
qemu.out:     file format elf32-littleriscv
qemu.out
architecture: riscv:rv32, flags 0x00000112:
EXEC_P, HAS_SYMS, D_PAGED
start address 0x200001c0

Program Header:
    LOAD off    0x00001000 vaddr 0x20000000 paddr 0x20000000 align 2**12
         filesz 0x00005432 memsz 0x00005432 flags r-x
    LOAD off    0x00007000 vaddr 0x90000000 paddr 0x20005438 align 2**12
         filesz 0x00008160 memsz 0x00008160 flags rw-
    LOAD off    0x00000160 vaddr 0x90008160 paddr 0x90008160 align 2**12
         filesz 0x00000000 memsz 0x000053e0 flags rw-
    LOAD off    0x00000800 vaddr 0x9000f800 paddr 0x9000d540 align 2**12
         filesz 0x00000000 memsz 0x00000800 flags rw-

Sections:
Idx Name              Size      VMA       LMA       File off  Algn  Flags
  0 .init             00000308  20000000  20000000  00001000  2**6  CONTENTS, ALLOC, LOAD, READONLY, CODE
  1 .text             000049e0  20000340  20000340  00001340  2**6  CONTENTS, ALLOC, LOAD, READONLY, CODE
  2 .stext            00000712  20004d20  20004d20  00005d20  2**1  CONTENTS, ALLOC, LOAD, READONLY, CODE
  3 .data             00000078  90000000  20005438  00007000  2**3  CONTENTS, ALLOC, LOAD, DATA
  4 .RTOS_HEAP_SEC    000080e8  90000078  200054b0  00007078  2**2  CONTENTS, ALLOC, LOAD, DATA
  5 .tbss_space       00000000  90008160  90008160  0000f160  2**3  CONTENTS
  6 .bss              000003e0  90008160  90008160  0000f160  2**3  ALLOC
  7 .heap             00005000  90008540  90008540  0000f160  2**4  ALLOC
  8 .stack            00000800  9000f800  9000d540  0000f800  2**0  ALLOC
  9 .debug_info       00015638  00000000  00000000  0000f160  2**0  CONTENTS, READONLY, DEBUGGING, OCTETS
 10 .debug_abbrev     00003644  00000000  00000000  00024798  2**0  CONTENTS, READONLY, DEBUGGING, OCTETS
 11 .debug_loc        0000eec9  00000000  00000000  00027ddc  2**0  CONTENTS, READONLY, DEBUGGING, OCTETS
 12 .debug_aranges    00000a28  00000000  00000000  00036ca8  2**3  CONTENTS, READONLY, DEBUGGING, OCTETS
 13 .debug_ranges     00002968  00000000  00000000  000376d0  2**3  CONTENTS, READONLY, DEBUGGING, OCTETS
 14 .debug_line       0001b2e8  00000000  00000000  0003a038  2**0  CONTENTS, READONLY, DEBUGGING, OCTETS
 15 .debug_str        000053d1  00000000  00000000  00055320  2**0  CONTENTS, READONLY, DEBUGGING, OCTETS
 16 .comment          00000012  00000000  00000000  0005a6f1  2**0  CONTENTS, READONLY
 17 .riscv.attributes 00000034  00000000  00000000  0005a703  2**0  CONTENTS, READONLY
 18 .debug_frame      00002170  00000000  00000000  0005a738  2**2  CONTENTS, READONLY, DEBUGGING, OCTETS
SYMBOL TABLE:
20000000 l    d  .init	00000000 .init
20000340 l    d  .text	00000000 .text
20004d20 l    d  .stext	00000000 .stext
90000000 l    d  .data	00000000 .data
90000078 l    d  .RTOS_HEAP_SEC	00000000 .RTOS_HEAP_SEC
90008160 l    d  .tbss_space	00000000 .tbss_space
90008160 l    d  .bss	00000000 .bss
90008540 l    d  .heap	00000000 .heap
9000f800 l    d  .stack	00000000 .stack
00000000 l    d  .debug_info	00000000 .debug_info
00000000 l    d  .debug_abbrev	00000000 .debug_abbrev
00000000 l    d  .debug_loc	00000000 .debug_loc
00000000 l    d  .debug_aranges	00000000 .debug_aranges
00000000 l    d  .debug_ranges	00000000 .debug_ranges
00000000 l    d  .debug_line	00000000 .debug_line
00000000 l    d  .debug_str	00000000 .debug_str
00000000 l    d  .comment	00000000 .comment
00000000 l    d  .riscv.attributes	00000000 .riscv.attributes
00000000 l    d  .debug_frame	00000000 .debug_frame
00000000 l    df *ABS*	00000000 main.c
00000000 l    df *ABS*	00000000 task_Hello_VeriSilicon.c
2000039e l     F .text	00000020 task_Hello_VeriSilicon_exec
90008160 l     O .bss	00000004 task_Hello_VeriSilicon
00000000 l    df *ABS*	00000000 hal_uart.c
90008200 l     O .bss	00000010 hal_dev
00000000 l    df *ABS*	00000000 newlib.c
90008164 l     O .bss	00000004 uart_dev
00000000 l    df *ABS*	00000000 portasm.o
200005fa l       .text	00000000 Undef_Handler
00000000 l    df *ABS*	00000000 port.c
20000714 l     F .text	00000048 prvTaskExitError
90000078 l     O .RTOS_HEAP_SEC	00000074 xIdleTaskTCBBuffer
900000ec l     O .RTOS_HEAP_SEC	00000400 xIdleStack
900004ec l     O .RTOS_HEAP_SEC	00000074 xTimerTaskTCBBuffer
90000560 l     O .RTOS_HEAP_SEC	00000400 xTimerStack
90008168 l     O .bss	00000001 ucMaxSysCallPriority
90000060 l     O .data	00000004 uxCriticalNesting
00000000 l    df *ABS*	00000000 soc_init.c
00000000 l    df *ABS*	00000000 soc_sysctl.c
00000000 l    df *ABS*	00000000 system_pegasus.c
20000d64 l     F .text	00000014 system_default_exception_handler
90008210 l     O .bss	00000034 system_exception_handlers
00000000 l    df *ABS*	00000000 clock.c
90008169 l     O .bss	00000001 clk_count
9000816c l     O .bss	00000004 clks
00000000 l    df *ABS*	00000000 e203_uart.c
00000000 l    df *ABS*	00000000 uart_printf.c
20004d20 l     F .stext	00000128 prints
20004e48 l     F .stext	000000d8 printi
20004f20 l     F .stext	0000039e print.constprop.0
00000000 l    df *ABS*	00000000 osal_task.c
00000000 l    df *ABS*	00000000 tasks.c
20001038 l     F .text	0000016c prvAddNewTaskToReadyList
200011a4 l     F .text	000000a4 prvAddCurrentTaskToDelayedList
20001248 l     F .text	000000e0 vTaskSwitchContext.part.0
20001328 l     F .text	000000e0 prvInitialiseNewTask.constprop.0
20001408 l     F .text	000000d4 prvIdleTask
200014dc l     F .text	0000018a xTaskIncrementTick.part.0
20001666 l     F .text	0000016c xTaskResumeAll.part.0
90008244 l     O .bss	000000a0 pxReadyTasksLists
900082e4 l     O .bss	00000014 xDelayedTaskList1
900082f8 l     O .bss	00000014 xDelayedTaskList2
9000830c l     O .bss	00000014 xPendingReadyList
90008320 l     O .bss	00000014 xSuspendedTaskList
90008334 l     O .bss	00000014 xTasksWaitingTermination
90008178 l     O .bss	00000004 pxDelayedTaskList
9000817c l     O .bss	00000004 pxOverflowDelayedTaskList
90008180 l     O .bss	00000004 ulTaskSwitchedInTime
90008184 l     O .bss	00000004 ulTotalRunTime
90008188 l     O .bss	00000004 uxCurrentNumberOfTasks
9000818c l     O .bss	00000004 uxDeletedTasksWaitingCleanUp
90008190 l     O .bss	00000004 uxSchedulerSuspended
90008194 l     O .bss	00000004 uxTaskNumber
90008198 l     O .bss	00000004 uxTopReadyPriority
9000819c l     O .bss	00000004 xIdleTaskHandle
900081a0 l     O .bss	00000004 xNextTaskUnblockTime
900081a4 l     O .bss	00000004 xNumOfOverflows
900081a8 l     O .bss	00000004 xPendedTicks
900081ac l     O .bss	00000004 xSchedulerRunning
900081b0 l     O .bss	00000004 xTickCount
900081b4 l     O .bss	00000004 xYieldPending
00000000 l    df *ABS*	00000000 list.c
00000000 l    df *ABS*	00000000 timers.c
20001e50 l     F .text	0000007e prvCheckForValidListAndQueue
2000204c l     F .text	0000029c prvTimerTask
20001fb8 l     F .text	00000094 prvSwitchTimerLists
90008348 l     O .bss	000000f0 ucStaticTimerQueueStorage.1
90008438 l     O .bss	00000014 xActiveTimerList1
9000844c l     O .bss	00000014 xActiveTimerList2
90008460 l     O .bss	00000054 xStaticTimerQueue.0
900081b8 l     O .bss	00000004 pxCurrentTimerList
900081bc l     O .bss	00000004 pxOverflowTimerList
900081c0 l     O .bss	00000004 xLastTime.2
900081c4 l     O .bss	00000004 xTimerQueue
900081c8 l     O .bss	00000004 xTimerTaskHandle
00000000 l    df *ABS*	00000000 heap_4.c
200022e8 l     F .text	0000004e prvInsertBlockIntoFreeList
900081cc l     O .bss	00000004 pxEnd
900081d0 l     O .bss	00000004 xBlockAllocatedBit
900081d4 l     O .bss	00000004 xFreeBytesRemaining
900081d8 l     O .bss	00000004 xMinimumEverFreeBytesRemaining
900081dc l     O .bss	00000004 xNumberOfSuccessfulAllocations
900081e0 l     O .bss	00000004 xNumberOfSuccessfulFrees
900081e4 l     O .bss	00000008 xStart
00000000 l    df *ABS*	00000000 queue.c
20002564 l     F .text	000000a8 prvCopyDataToQueue
2000260c l     F .text	000000b2 prvNotifyQueueSetContainer
200026be l     F .text	000000c4 prvUnlockQueue
00000000 l    df *ABS*	00000000 libgcc2.c
00000000 l    df *ABS*	00000000 libgcc2.c
00000000 l    df *ABS*	00000000 atexit.c
00000000 l    df *ABS*	00000000 fini.c
00000000 l    df *ABS*	00000000 init.c
00000000 l    df *ABS*	00000000 memcpy.c
00000000 l    df *ABS*	00000000 nano-mallocr.c
00000000 l    df *ABS*	00000000 nano-mallocr.c
00000000 l    df *ABS*	00000000 printf.c
00000000 l    df *ABS*	00000000 sbrkr.c
00000000 l    df *ABS*	00000000 sysisatty.c
00000000 l    df *ABS*	00000000 __atexit.c
900084b4 l     O .bss	0000008c _global_atexit0
00000000 l    df *ABS*	00000000 findfp.c
200039ac l     F .text	00000068 std
00000000 l    df *ABS*	00000000 fwalk.c
00000000 l    df *ABS*	00000000 mlock.c
00000000 l    df *ABS*	00000000 nano-vfprintf.c
20003bda l     F .text	00000028 __sfputc_r
00000000 l    df *ABS*	00000000 nano-vfprintf_i.c
00000000 l    df *ABS*	00000000 stdio.c
00000000 l    df *ABS*	00000000 wbuf.c
00000000 l    df *ABS*	00000000 writer.c
00000000 l    df *ABS*	00000000 wsetup.c
00000000 l    df *ABS*	00000000 closer.c
00000000 l    df *ABS*	00000000 fflush.c
00000000 l    df *ABS*	00000000 lseekr.c
00000000 l    df *ABS*	00000000 makebuf.c
00000000 l    df *ABS*	00000000 memchr.c
00000000 l    df *ABS*	00000000 readr.c
00000000 l    df *ABS*	00000000 fstatr.c
00000000 l    df *ABS*	00000000 isattyr.c
00000000 l    df *ABS*	00000000 sbrk.c
900081fc l     O .bss	00000004 heap_end.0
00000000 l    df *ABS*	00000000 impure.c
90000000 l     O .data	00000060 impure_data
00000000 l    df *ABS*	00000000 vpi_error.c
20004a80 l     O .text	00000048 CSWTCH.14
00000000 l    df *ABS*	00000000 libgcc2.c
00000000 l    df *ABS*	00000000 vs_logging.c
00000000 l    df *ABS*	00000000 
20005432 l       .data	00000000 __fini_array_end
20005432 l       .data	00000000 __fini_array_start
20005432 l       .data	00000000 __init_array_end
20005432 l       .data	00000000 __preinit_array_end
20005432 l       .data	00000000 __init_array_start
20005432 l       .data	00000000 __preinit_array_start
2000489c g     F .text	00000030 _isatty_r
90008170 g     O .bss	00000001 os_scheduler_start
200046f0 g     F .text	00000034 _lseek_r
00005000 g       *ABS*	00000000 __HEAP_SIZE
200007c8 g     F .text	00000036 vPortExitCritical
20001034 g     F .text	00000004 osal_start_scheduler
200038c4 g     F .text	00000038 printf
90000860 g       .data	00000000 __global_pointer$
200042d6 g     F .text	00000036 __sseek
20003a64 g     F .text	0000006a __sinit
20004312 g     F .text	000000c2 __swbuf_r
20002e1c g     F .text	0000006c vQueueWaitForMessageRestricted
20003a1e g     F .text	00000046 __sfmoreglue
90008160 g       .RTOS_HEAP_SEC	00000000 __tls_base
20003bd8 g     F .text	00000002 __malloc_unlock
90000064 g     O .data	00000001 uxMaxSysCallMTH
20002b14 g     F .text	00000146 xQueueGenericSendFromISR
20000664 g       .text	00000000 eclic_msip_handler
90008174 g     O .bss	00000004 pxCurrentTCB
20000fd8 g     F .text	00000058 osal_create_task
2000486a g     F .text	00000032 _fstat_r
900081f8 g     O .bss	00000004 errno
20005432 g       .stext	00000000 _etext
20000e82 g     F .text	00000012 uart_write
20001c44 g     F .text	00000016 vTaskInternalSetTimeOutState
20004d20 g       .text	00000000 __rt_init_start
20004d20 g       .text	00000000 __fsymtab_end
20000d62 g     F .text	00000002 bsp_init
20000b76 g     F .text	00000102 xPortStartScheduler
200035c6 g     F .text	000000dc memcpy
20001b2c g     F .text	0000003a vTaskPlaceOnEventList
20000600 g       .text	00000000 prvPortStartFirstTask
20000862 g     F .text	0000010c eclic_mtip_handler
20003a14 g     F .text	0000000a _cleanup_r
2000096e  w    F .text	00000208 vPortSetupTimerInterrupt
20004d20 g       .text	00000000 __rt_init_end
200024da g     F .text	0000008a vPortFree
20000340 g       *ABS*	00000000 _text_lma
20000c78 g     F .text	0000008e vPortValidateInterruptPriority
2000392c g     F .text	00000004 isatty
200004bc  w    F .text	00000004 _fstat
90000068 g     O .data	00000004 vs_logging_level
20000000 g     O .init	00000000 vector_base
20001dda g     F .text	0000001a vListInsertEnd
20000500 g       .text	00000000 exc_entry
20000580 g       .text	00000000 irq_entry
200038fc g     F .text	00000030 _sbrk_r
20000300 g     F .init	00000000 early_exc_entry
20000e94 g     F .text	00000144 print_inner
20000d46 g     F .text	00000004 soc_init
200005fa g       .text	00000000 default_intexc_handler
20004836 g     F .text	00000034 _read_r
20001dd4 g     F .text	00000006 vListInitialiseItem
90000960 g     O .RTOS_HEAP_SEC	00007800 ucHeap
20002c5a g     F .text	000001c2 xQueueReceive
20000d2a g     F .text	0000001c vApplicationGetTimerTaskMemory
200031e8 g     F .text	00000340 .hidden __umoddi3
200004c0  w    F .text	00000004 _isatty
200048f0 g     O .text	00000004 _global_impure_ptr
20003568 g     F .text	0000005e __libc_init_array
20002e88 g     F .text	00000360 .hidden __udivdi3
200048cc g     F .text	00000020 _sbrk
20002336 g     F .text	000001a4 pvPortMalloc
20000e2a g     F .text	00000002 _init
20001dc0 g     F .text	00000014 vListInitialise
20001ad4 g     F .text	00000020 xTaskGetTickCount
2000290a g     F .text	0000020a xQueueGenericSend
20003532 g     F .text	00000036 __libc_fini_array
20001d22 g     F .text	0000009e xTaskPriorityDisinherit
20001baa g     F .text	0000009a xTaskRemoveFromEventList
20000dd0 g     F .text	00000058 _premain_init
20004c2c g     O .text	00000020 __sf_fake_stderr
90008540 g       .bss	00000000 end
200018ca g     F .text	00000140 vTaskDelete
20003c02 g     F .text	00000042 __sfputs_r
2000481c g     F .text	0000001a memchr
20001c5a g     F .text	000000a0 xTaskCheckForTimeOut
00000800 g       *ABS*	00000000 __STACK_SIZE
2000374a g     F .text	000000a2 _free_r
900081f4 g     O .bss	00000004 _global_atexit
90010000 g       .stack	00000000 _sp
20000d7a g     F .text	00000056 core_exception_handler
200001c0 g     F .init	00000000 _start
20001aa2 g     F .text	00000010 vTaskSuspendAll
200004c4  w    F .text	00000004 _lseek
20001e22 g     F .text	0000002e uxListRemove
20003930 g     F .text	0000007c __register_exitproc
00000001 g       *ABS*	00000000 __SMP_CPU_CNT
200017d2 g     F .text	0000007e xTaskCreateStatic
20001b12 g     F .text	0000001a vTaskSwitchContext
20001030 g     F .text	00000004 osal_delete_task
2000283e g     F .text	000000cc xQueueGenericCreateStatic
20001b66 g     F .text	00000044 vTaskPlaceOnEventListRestricted
20004512 g     F .text	00000030 _close_r
20000d12 g     F .text	00000018 vApplicationGetIdleTaskMemory
20001f32 g     F .text	00000086 xTimerGenericCommand
20004408 g     F .text	0000010a __swsetup_r
20000d06 g     F .text	0000000c vApplicationStackOverflowHook
20003ace g     F .text	0000009e __sfp
20004258 g     F .text	00000030 __sread
20000340 g       .text	00000000 _text
20003bd6 g     F .text	00000002 __malloc_lock
200002a6 g     F .init	00000000 _start_premain
2000468a g     F .text	00000066 _fflush_r
20004c4c g     O .text	00000020 __sf_fake_stdin
90008160 g       .RTOS_HEAP_SEC	00000000 __bss_start
200036a2 g     F .text	000000a8 memset
20000340 g     F .text	0000005e main
20001df4 g     F .text	0000002e vListInsert
2000430c g     F .text	00000006 __sclose
20001ece g     F .text	00000064 xTimerCreateTimerTask
200037ec g     F .text	000000d8 _malloc_r
20004d20 g       .text	00000000 __vsymtab_start
200052fe g     F .stext	0000001a uart_debug_init
20000e2c g     F .text	00000002 _fini
200038c4 g     F .text	00000038 iprintf
20001ab2 g     F .text	00000022 xTaskResumeAll
20000e2e g     F .text	0000002e clk_get_rate
9000006c g     O .data	00000004 uxTopUsedPriority
200052be g     F .stext	0000001c uart_printf
00000800 g       *ABS*	00000000 __TOT_STACK_SIZE
20004b2c g     O .text	00000100 .hidden __clz_tab
20001a0a g     F .text	00000098 vTaskStartScheduler
20003528 g     F .text	0000000a atexit
200043d4 g     F .text	00000034 _write_r
20003edc g     F .text	0000010c _printf_common
200003ec g     F .text	00000024 hal_uart_get_device
90000070 g     O .data	00000004 _impure_ptr
20000410 g     F .text	0000002a hal_uart_put_char
20004542 g     F .text	00000148 __sflush_r
90000000 g       .data	00000000 _data
20001cfa g     F .text	0000000c vTaskMissedYield
20004d20 g       .text	00000000 __vsymtab_end
20001af4 g     F .text	0000001e xTaskIncrementTick
20004724 g     F .text	0000005a __swhatbuf_r
20005332 g     F .stext	000000fc vpi_error_print
20002782 g     F .text	000000bc xQueueGenericReset
2000043a  w    F .text	0000007e _write
90008160 g       .RTOS_HEAP_SEC	00000000 _edata
20000e28 g     F .text	00000002 _postmain_fini
90008540 g       .bss	00000000 _end
20001850 g     F .text	0000007a xTaskCreate
20005438 g       *ABS*	00000000 _data_lma
20004288 g     F .text	0000004e __swrite
20003c44 g     F .text	00000298 _vfiprintf_r
20005318 g     F .stext	0000001a vsd_to_vpi
20003b6c g     F .text	0000006a _fwalk_reent
2000542e g     F .stext	00000004 vsa_to_vpi
20004c6c g     O .text	00000020 __sf_fake_stdout
20001d06 g     F .text	0000001c xTaskGetSchedulerState
200004c8  w    F .text	00000004 _read
20000d4a g     F .text	00000018 bsp_rtc_clock_get_freq
2000477e g     F .text	0000009e __smakebuf_r
20000e5c g     F .text	00000026 e203_uart_init
20000d78 g     F .text	00000002 premain_system_init
2000075c g     F .text	00000024 pxPortInitialiseStack
20003fe8 g     F .text	00000270 _printf_i
900081f0 g     O .bss	00000004 __malloc_sbrk_start
20000780 g     F .text	00000048 vPortEnterCritical
200003be g     F .text	0000002e task_Hello_VeriSilicon_create
900081ec g     O .bss	00000004 __malloc_free_list
20004d20 g       .text	00000000 __fsymtab_start
20003c44 g     F .text	00000298 _vfprintf_r
200052da g     F .stext	00000024 uart_sprintf
200007fe g     F .text	00000064 xPortTaskSwitch
200004b8  w    F .text	00000004 _close



Disassembly of section .init:

20000000 <vector_base>:
20000000:	6f 00 00 1c fa 05 00 20 fa 05 00 20 64 06 00 20     o...... ... d.. 
20000010:	fa 05 00 20 fa 05 00 20 fa 05 00 20 62 08 00 20     ... ... ... b.. 
20000020:	fa 05 00 20 fa 05 00 20 fa 05 00 20 fa 05 00 20     ... ... ... ... 
20000030:	fa 05 00 20 fa 05 00 20 fa 05 00 20 fa 05 00 20     ... ... ... ... 
20000040:	fa 05 00 20 fa 05 00 20 fa 05 00 20 fa 05 00 20     ... ... ... ... 
20000050:	fa 05 00 20 00 00 00 00 00 00 00 00 00 00 00 00     ... ............
	...
200000c0:	fa 05 00 20 00 00 00 00 00 00 00 00 00 00 00 00     ... ............
	...
200000f0:	fa 05 00 20 fa 05 00 20 fa 05 00 20 fa 05 00 20     ... ... ... ... 
20000100:	fa 05 00 20 fa 05 00 20 fa 05 00 20 fa 05 00 20     ... ... ... ... 
20000110:	fa 05 00 20 fa 05 00 20 fa 05 00 20 fa 05 00 20     ... ... ... ... 
20000120:	fa 05 00 20 fa 05 00 20 fa 05 00 20 fa 05 00 20     ... ... ... ... 
	...

200001c0 <_start>:
_start():
D:/work/VescChallenge/Outgoing/assignment1/galaxy_sdk/bsp/src/startup_riscv.S:258
 * Reset Handler called on controller reset
 */
_start:
    /* ===== Startup Stage 1 ===== */
    /* Disable Global Interrupt */
    csrc CSR_MSTATUS, MSTATUS_MIE
200001c0:	30047073          	csrci	mstatus,8
D:/work/VescChallenge/Outgoing/assignment1/galaxy_sdk/bsp/src/startup_riscv.S:263

    /* Initialize GP and TP */
    .option push
    .option norelax
    la gp, __global_pointer$
200001c4:	70000197          	auipc	gp,0x70000
200001c8:	69c18193          	addi	gp,gp,1692 # 90000860 <__global_pointer$>
D:/work/VescChallenge/Outgoing/assignment1/galaxy_sdk/bsp/src/startup_riscv.S:264
    la tp, __tls_base
200001cc:	70008217          	auipc	tp,0x70008
200001d0:	f9420213          	addi	tp,tp,-108 # 90008160 <task_Hello_VeriSilicon>
D:/work/VescChallenge/Outgoing/assignment1/galaxy_sdk/bsp/src/startup_riscv.S:267
    .option pop

    la sp, _sp
200001d4:	70010117          	auipc	sp,0x70010
200001d8:	e2c10113          	addi	sp,sp,-468 # 90010000 <_sp>
D:/work/VescChallenge/Outgoing/assignment1/galaxy_sdk/bsp/src/startup_riscv.S:274
    /*
     * Set the the NMI base mnvec to share
     * with mtvec by setting CSR_MMISC_CTL
     * bit 9 NMI_CAUSE_FFF to 1
     */
    li t0, MMISC_CTL_NMI_CAUSE_FFF
200001dc:	20000293          	li	t0,512
D:/work/VescChallenge/Outgoing/assignment1/galaxy_sdk/bsp/src/startup_riscv.S:275
    csrs CSR_MMISC_CTL, t0
200001e0:	7d02a073          	csrs	mmisc_ctl,t0
D:/work/VescChallenge/Outgoing/assignment1/galaxy_sdk/bsp/src/startup_riscv.S:281

    /*
     * Initialize ECLIC vector interrupt
     * base address mtvt to vector_base
     */
    la t0, vector_base
200001e4:	00000297          	auipc	t0,0x0
200001e8:	e1c28293          	addi	t0,t0,-484 # 20000000 <vector_base>
D:/work/VescChallenge/Outgoing/assignment1/galaxy_sdk/bsp/src/startup_riscv.S:282
    csrw CSR_MTVT, t0
200001ec:	30729073          	csrw	mtvt,t0
D:/work/VescChallenge/Outgoing/assignment1/galaxy_sdk/bsp/src/startup_riscv.S:290
     * Set ECLIC non-vector entry to be controlled
     * by mtvt2 CSR register.
     * Initialize ECLIC non-vector interrupt
     * base address mtvt2 to irq_entry.
     */
    la t0, irq_entry
200001f0:	00000297          	auipc	t0,0x0
200001f4:	39028293          	addi	t0,t0,912 # 20000580 <irq_entry>
D:/work/VescChallenge/Outgoing/assignment1/galaxy_sdk/bsp/src/startup_riscv.S:291
    csrw CSR_MTVT2, t0
200001f8:	7ec29073          	csrw	mtvt2,t0
D:/work/VescChallenge/Outgoing/assignment1/galaxy_sdk/bsp/src/startup_riscv.S:292
    csrs CSR_MTVT2, 0x1
200001fc:	7ec0e073          	csrsi	mtvt2,1
D:/work/VescChallenge/Outgoing/assignment1/galaxy_sdk/bsp/src/startup_riscv.S:301
     * Due to settings above, Exception and NMI
     * will share common entry.
     * This early_exc_entry is only used during early
     * boot stage before main
     */
    la t0, early_exc_entry
20000200:	00000297          	auipc	t0,0x0
20000204:	10028293          	addi	t0,t0,256 # 20000300 <early_exc_entry>
D:/work/VescChallenge/Outgoing/assignment1/galaxy_sdk/bsp/src/startup_riscv.S:302
    csrw CSR_MTVEC, t0
20000208:	30529073          	csrw	mtvec,t0
D:/work/VescChallenge/Outgoing/assignment1/galaxy_sdk/bsp/src/startup_riscv.S:305

    /* Set the interrupt processing mode to ECLIC mode */
    li t0, 0x3f
2000020c:	03f00293          	li	t0,63
D:/work/VescChallenge/Outgoing/assignment1/galaxy_sdk/bsp/src/startup_riscv.S:306
    csrc CSR_MTVEC, t0
20000210:	3052b073          	csrc	mtvec,t0
D:/work/VescChallenge/Outgoing/assignment1/galaxy_sdk/bsp/src/startup_riscv.S:307
    csrs CSR_MTVEC, 0x3
20000214:	3051e073          	csrsi	mtvec,3
D:/work/VescChallenge/Outgoing/assignment1/galaxy_sdk/bsp/src/startup_riscv.S:314
    /* ===== Startup Stage 2 ===== */

    /* Enable FPU Unit if f/d exist in march */
#if defined(__riscv_flen) && __riscv_flen > 0
    /* Enable FPU, and set state to initial */
    li t0, MSTATUS_FS
20000218:	6299                	lui	t0,0x6
D:/work/VescChallenge/Outgoing/assignment1/galaxy_sdk/bsp/src/startup_riscv.S:315
    csrc mstatus, t0
2000021a:	3002b073          	csrc	mstatus,t0
D:/work/VescChallenge/Outgoing/assignment1/galaxy_sdk/bsp/src/startup_riscv.S:316
    li t0, MSTATUS_FS_INITIAL
2000021e:	6289                	lui	t0,0x2
D:/work/VescChallenge/Outgoing/assignment1/galaxy_sdk/bsp/src/startup_riscv.S:317
    csrs mstatus, t0
20000220:	3002a073          	csrs	mstatus,t0
D:/work/VescChallenge/Outgoing/assignment1/galaxy_sdk/bsp/src/startup_riscv.S:321
#endif

    /* Enable mcycle and minstret counter */
    csrci CSR_MCOUNTINHIBIT, 0x5
20000224:	3202f073          	csrci	mcountinhibit,5
D:/work/VescChallenge/Outgoing/assignment1/galaxy_sdk/bsp/src/startup_riscv.S:328
    /* ===== Startup Stage 3 ===== */
    /*
     * Load text section from CODE ROM to CODE RAM
     * when text LMA is different with VMA
     */
    la a0, _text_lma
20000228:	00000517          	auipc	a0,0x0
2000022c:	11850513          	addi	a0,a0,280 # 20000340 <main>
D:/work/VescChallenge/Outgoing/assignment1/galaxy_sdk/bsp/src/startup_riscv.S:329
    la a1, _text
20000230:	00000597          	auipc	a1,0x0
20000234:	11058593          	addi	a1,a1,272 # 20000340 <main>
D:/work/VescChallenge/Outgoing/assignment1/galaxy_sdk/bsp/src/startup_riscv.S:332
    /* If text LMA and VMA are equal
     * then no need to copy text section */
    beq a0, a1, 2f
20000238:	02b50063          	beq	a0,a1,20000258 <_start+0x98>
D:/work/VescChallenge/Outgoing/assignment1/galaxy_sdk/bsp/src/startup_riscv.S:333
    la a2, _etext
2000023c:	00005617          	auipc	a2,0x5
20000240:	1f660613          	addi	a2,a2,502 # 20005432 <_etext>
D:/work/VescChallenge/Outgoing/assignment1/galaxy_sdk/bsp/src/startup_riscv.S:334
    bgeu a1, a2, 2f
20000244:	00c5fa63          	bgeu	a1,a2,20000258 <_start+0x98>
D:/work/VescChallenge/Outgoing/assignment1/galaxy_sdk/bsp/src/startup_riscv.S:338

1:
    /* Load code section if necessary */
    lw t0, (a0)
20000248:	00052283          	lw	t0,0(a0)
D:/work/VescChallenge/Outgoing/assignment1/galaxy_sdk/bsp/src/startup_riscv.S:339
    sw t0, (a1)
2000024c:	0055a023          	sw	t0,0(a1)
D:/work/VescChallenge/Outgoing/assignment1/galaxy_sdk/bsp/src/startup_riscv.S:340
    addi a0, a0, 4
20000250:	0511                	addi	a0,a0,4
D:/work/VescChallenge/Outgoing/assignment1/galaxy_sdk/bsp/src/startup_riscv.S:341
    addi a1, a1, 4
20000252:	0591                	addi	a1,a1,4
D:/work/VescChallenge/Outgoing/assignment1/galaxy_sdk/bsp/src/startup_riscv.S:342
    bltu a1, a2, 1b
20000254:	fec5eae3          	bltu	a1,a2,20000248 <_start+0x88>
D:/work/VescChallenge/Outgoing/assignment1/galaxy_sdk/bsp/src/startup_riscv.S:345
2:
    /* Load data section */
    la a0, _data_lma
20000258:	00005517          	auipc	a0,0x5
2000025c:	1e050513          	addi	a0,a0,480 # 20005438 <_data_lma>
D:/work/VescChallenge/Outgoing/assignment1/galaxy_sdk/bsp/src/startup_riscv.S:346
    la a1, _data
20000260:	70000597          	auipc	a1,0x70000
20000264:	da058593          	addi	a1,a1,-608 # 90000000 <impure_data>
D:/work/VescChallenge/Outgoing/assignment1/galaxy_sdk/bsp/src/startup_riscv.S:348
    /* If data vma=lma, no need to copy */
    beq a0, a1, 2f
20000268:	02b50063          	beq	a0,a1,20000288 <_start+0xc8>
D:/work/VescChallenge/Outgoing/assignment1/galaxy_sdk/bsp/src/startup_riscv.S:349
    la a2, _edata
2000026c:	70008617          	auipc	a2,0x70008
20000270:	ef460613          	addi	a2,a2,-268 # 90008160 <task_Hello_VeriSilicon>
D:/work/VescChallenge/Outgoing/assignment1/galaxy_sdk/bsp/src/startup_riscv.S:350
    bgeu a1, a2, 2f
20000274:	00c5fa63          	bgeu	a1,a2,20000288 <_start+0xc8>
D:/work/VescChallenge/Outgoing/assignment1/galaxy_sdk/bsp/src/startup_riscv.S:352
1:
    lw t0, (a0)
20000278:	00052283          	lw	t0,0(a0)
D:/work/VescChallenge/Outgoing/assignment1/galaxy_sdk/bsp/src/startup_riscv.S:353
    sw t0, (a1)
2000027c:	0055a023          	sw	t0,0(a1)
D:/work/VescChallenge/Outgoing/assignment1/galaxy_sdk/bsp/src/startup_riscv.S:354
    addi a0, a0, 4
20000280:	0511                	addi	a0,a0,4
D:/work/VescChallenge/Outgoing/assignment1/galaxy_sdk/bsp/src/startup_riscv.S:355
    addi a1, a1, 4
20000282:	0591                	addi	a1,a1,4
D:/work/VescChallenge/Outgoing/assignment1/galaxy_sdk/bsp/src/startup_riscv.S:356
    bltu a1, a2, 1b
20000284:	fec5eae3          	bltu	a1,a2,20000278 <_start+0xb8>
D:/work/VescChallenge/Outgoing/assignment1/galaxy_sdk/bsp/src/startup_riscv.S:359
2:
    /* Clear bss section */
    la a0, __bss_start
20000288:	70008517          	auipc	a0,0x70008
2000028c:	ed850513          	addi	a0,a0,-296 # 90008160 <task_Hello_VeriSilicon>
D:/work/VescChallenge/Outgoing/assignment1/galaxy_sdk/bsp/src/startup_riscv.S:360
    la a1, _end
20000290:	70008597          	auipc	a1,0x70008
20000294:	2b058593          	addi	a1,a1,688 # 90008540 <_end>
D:/work/VescChallenge/Outgoing/assignment1/galaxy_sdk/bsp/src/startup_riscv.S:361
    bgeu a0, a1, 2f
20000298:	00b57763          	bgeu	a0,a1,200002a6 <_start_premain>
D:/work/VescChallenge/Outgoing/assignment1/galaxy_sdk/bsp/src/startup_riscv.S:363
1:
    sw zero, (a0)
2000029c:	00052023          	sw	zero,0(a0)
D:/work/VescChallenge/Outgoing/assignment1/galaxy_sdk/bsp/src/startup_riscv.S:364
    addi a0, a0, 4
200002a0:	0511                	addi	a0,a0,4
D:/work/VescChallenge/Outgoing/assignment1/galaxy_sdk/bsp/src/startup_riscv.S:365
    bltu a0, a1, 1b
200002a2:	feb56de3          	bltu	a0,a1,2000029c <_start+0xdc>

200002a6 <_start_premain>:
_start_premain():
D:/work/VescChallenge/Outgoing/assignment1/galaxy_sdk/bsp/src/startup_riscv.S:375
_start_premain:
    /*
     * Call vendor defined system_init to
     * initialize the micro-controller system
     */
    call premain_system_init
200002a6:	2d3000ef          	jal	ra,20000d78 <premain_system_init>
D:/work/VescChallenge/Outgoing/assignment1/galaxy_sdk/bsp/src/startup_riscv.S:378

    /* Call global constructors */
    la a0, __libc_fini_array
200002aa:	00003517          	auipc	a0,0x3
200002ae:	28850513          	addi	a0,a0,648 # 20003532 <__libc_fini_array>
D:/work/VescChallenge/Outgoing/assignment1/galaxy_sdk/bsp/src/startup_riscv.S:379
    call atexit
200002b2:	276030ef          	jal	ra,20003528 <atexit>
D:/work/VescChallenge/Outgoing/assignment1/galaxy_sdk/bsp/src/startup_riscv.S:381
    /* Call C/C++ constructor start up code */
    call __libc_init_array
200002b6:	2b2030ef          	jal	ra,20003568 <__libc_init_array>
D:/work/VescChallenge/Outgoing/assignment1/galaxy_sdk/bsp/src/startup_riscv.S:384

    /* do pre-init steps before main */
    call _premain_init
200002ba:	317000ef          	jal	ra,20000dd0 <_premain_init>
D:/work/VescChallenge/Outgoing/assignment1/galaxy_sdk/bsp/src/startup_riscv.S:393
     * set exception entry to correct exception
     * entry and jump to main.
     * And set the interrupt processing mode to
     * ECLIC mode
     */
    la t0, exc_entry
200002be:	00000297          	auipc	t0,0x0
200002c2:	24228293          	addi	t0,t0,578 # 20000500 <exc_entry>
D:/work/VescChallenge/Outgoing/assignment1/galaxy_sdk/bsp/src/startup_riscv.S:394
    csrw CSR_MTVEC, t0
200002c6:	30529073          	csrw	mtvec,t0
D:/work/VescChallenge/Outgoing/assignment1/galaxy_sdk/bsp/src/startup_riscv.S:395
    li t0, 0x3f
200002ca:	03f00293          	li	t0,63
D:/work/VescChallenge/Outgoing/assignment1/galaxy_sdk/bsp/src/startup_riscv.S:396
    csrc CSR_MTVEC, t0
200002ce:	3052b073          	csrc	mtvec,t0
D:/work/VescChallenge/Outgoing/assignment1/galaxy_sdk/bsp/src/startup_riscv.S:397
    csrs CSR_MTVEC, 0x3
200002d2:	3051e073          	csrsi	mtvec,3
D:/work/VescChallenge/Outgoing/assignment1/galaxy_sdk/bsp/src/startup_riscv.S:401

    /* ===== Call Main Function  ===== */
    /* argc = argv = 0 */
    li a0, 0
200002d6:	4501                	li	a0,0
D:/work/VescChallenge/Outgoing/assignment1/galaxy_sdk/bsp/src/startup_riscv.S:402
    li a1, 0
200002d8:	4581                	li	a1,0
D:/work/VescChallenge/Outgoing/assignment1/galaxy_sdk/bsp/src/startup_riscv.S:404

    call main
200002da:	209d                	jal	20000340 <main>
D:/work/VescChallenge/Outgoing/assignment1/galaxy_sdk/bsp/src/startup_riscv.S:406
    /* do post-main steps after main */
    call _postmain_fini
200002dc:	34d000ef          	jal	ra,20000e28 <_postmain_fini>
D:/work/VescChallenge/Outgoing/assignment1/galaxy_sdk/bsp/src/startup_riscv.S:409

1:
    j 1b
200002e0:	a001                	j	200002e0 <_start_premain+0x3a>
200002e2:	00000013          	nop
200002e6:	00000013          	nop
200002ea:	00000013          	nop
200002ee:	00000013          	nop
200002f2:	00000013          	nop
200002f6:	00000013          	nop
200002fa:	00000013          	nop
200002fe:	0001                	nop

20000300 <early_exc_entry>:
early_exc_entry():
D:/work/VescChallenge/Outgoing/assignment1/galaxy_sdk/bsp/src/startup_riscv.S:416
/* Early boot exception entry before main */
.align 6
.global early_exc_entry
.type early_exc_entry, @function
early_exc_entry:
    wfi
20000300:	10500073          	wfi
D:/work/VescChallenge/Outgoing/assignment1/galaxy_sdk/bsp/src/startup_riscv.S:417
    j early_exc_entry
20000304:	bff5                	j	20000300 <early_exc_entry>
	...

Disassembly of section .text:

20000340 <main>:
main():
D:/work/VescChallenge/Outgoing/assignment1/galaxy_sdk/main.c:51
//    sample_task = osal_create_task(task_sample, "task_sample", 512, 4, NULL);
//    osal_delete_task(init_task);
//}

int main(void)
{
20000340:	1141                	addi	sp,sp,-16
20000342:	c422                	sw	s0,8(sp)
20000344:	c606                	sw	ra,12(sp)
D:/work/VescChallenge/Outgoing/assignment1/galaxy_sdk/main.c:55
    int ret;

    /* Initialize soc */
    ret = soc_init();
20000346:	201000ef          	jal	ra,20000d46 <soc_init>
2000034a:	842a                	mv	s0,a0
D:/work/VescChallenge/Outgoing/assignment1/galaxy_sdk/main.c:56
    if (vsd_to_vpi(ret) != VPI_SUCCESS) {
2000034c:	7cd040ef          	jal	ra,20005318 <vsd_to_vpi>
20000350:	ed11                	bnez	a0,2000036c <main+0x2c>
D:/work/VescChallenge/Outgoing/assignment1/galaxy_sdk/main.c:64
        else
            uart_printf("Soc Init Error!\r\n");
        return vsd_to_vpi(ret);
    }
    /* Initialize uart */
    uart_debug_init();
20000352:	7ad040ef          	jal	ra,200052fe <uart_debug_init>
D:/work/VescChallenge/Outgoing/assignment1/galaxy_sdk/main.c:66
    /* Initialize bsp */
    bsp_init();
20000356:	20d000ef          	jal	ra,20000d62 <bsp_init>
D:/work/VescChallenge/Outgoing/assignment1/galaxy_sdk/main.c:69
    /* Create init task */
    //init_task = osal_create_task(task_init_app, "init_app", 512, 1, NULL);
    task_Hello_VeriSilicon_create(NULL);
2000035a:	4501                	li	a0,0
2000035c:	208d                	jal	200003be <task_Hello_VeriSilicon_create>
D:/work/VescChallenge/Outgoing/assignment1/galaxy_sdk/main.c:71
    /* Start os */
    osal_start_scheduler();
2000035e:	4d7000ef          	jal	ra,20001034 <osal_start_scheduler>
D:/work/VescChallenge/Outgoing/assignment1/galaxy_sdk/main.c:74

    return 0;
}
20000362:	40b2                	lw	ra,12(sp)
20000364:	4422                	lw	s0,8(sp)
20000366:	4501                	li	a0,0
20000368:	0141                	addi	sp,sp,16
2000036a:	8082                	ret
D:/work/VescChallenge/Outgoing/assignment1/galaxy_sdk/main.c:57
        if (vsd_to_vpi(ret) == VPI_ERR_LICENSE)
2000036c:	8522                	mv	a0,s0
2000036e:	7ab040ef          	jal	ra,20005318 <vsd_to_vpi>
20000372:	47c1                	li	a5,16
20000374:	00f50e63          	beq	a0,a5,20000390 <main+0x50>
D:/work/VescChallenge/Outgoing/assignment1/galaxy_sdk/main.c:60
            uart_printf("Soc Init Error!\r\n");
20000378:	20005537          	lui	a0,0x20005
2000037c:	93450513          	addi	a0,a0,-1740 # 20004934 <_global_impure_ptr+0x44>
20000380:	73f040ef          	jal	ra,200052be <uart_printf>
D:/work/VescChallenge/Outgoing/assignment1/galaxy_sdk/main.c:61
        return vsd_to_vpi(ret);
20000384:	8522                	mv	a0,s0
D:/work/VescChallenge/Outgoing/assignment1/galaxy_sdk/main.c:74
}
20000386:	4422                	lw	s0,8(sp)
20000388:	40b2                	lw	ra,12(sp)
2000038a:	0141                	addi	sp,sp,16
D:/work/VescChallenge/Outgoing/assignment1/galaxy_sdk/main.c:61
        return vsd_to_vpi(ret);
2000038c:	78d0406f          	j	20005318 <vsd_to_vpi>
D:/work/VescChallenge/Outgoing/assignment1/galaxy_sdk/main.c:58
            uart_printf("Invalid SDK license!\r\n");
20000390:	20005537          	lui	a0,0x20005
20000394:	91c50513          	addi	a0,a0,-1764 # 2000491c <_global_impure_ptr+0x2c>
20000398:	727040ef          	jal	ra,200052be <uart_printf>
2000039c:	b7e5                	j	20000384 <main+0x44>

2000039e <task_Hello_VeriSilicon_exec>:
task_Hello_VeriSilicon_exec():
D:/work/VescChallenge/Outgoing/assignment1/galaxy_sdk/tasks/src/task_Hello_VeriSilicon.c:6
#include "task_Hello_VeriSilicon.h"
static void *task_Hello_VeriSilicon;

static void task_Hello_VeriSilicon_exec(void *param)
{
	uart_printf("Hello VeriSilicon\r\n");
2000039e:	20005537          	lui	a0,0x20005
D:/work/VescChallenge/Outgoing/assignment1/galaxy_sdk/tasks/src/task_Hello_VeriSilicon.c:5
{
200003a2:	1141                	addi	sp,sp,-16
D:/work/VescChallenge/Outgoing/assignment1/galaxy_sdk/tasks/src/task_Hello_VeriSilicon.c:6
	uart_printf("Hello VeriSilicon\r\n");
200003a4:	8f450513          	addi	a0,a0,-1804 # 200048f4 <_global_impure_ptr+0x4>
D:/work/VescChallenge/Outgoing/assignment1/galaxy_sdk/tasks/src/task_Hello_VeriSilicon.c:5
{
200003a8:	c606                	sw	ra,12(sp)
D:/work/VescChallenge/Outgoing/assignment1/galaxy_sdk/tasks/src/task_Hello_VeriSilicon.c:6
	uart_printf("Hello VeriSilicon\r\n");
200003aa:	715040ef          	jal	ra,200052be <uart_printf>
D:/work/VescChallenge/Outgoing/assignment1/galaxy_sdk/tasks/src/task_Hello_VeriSilicon.c:7
	osal_delete_task(task_Hello_VeriSilicon);
200003ae:	900087b7          	lui	a5,0x90008
D:/work/VescChallenge/Outgoing/assignment1/galaxy_sdk/tasks/src/task_Hello_VeriSilicon.c:8
}
200003b2:	40b2                	lw	ra,12(sp)
D:/work/VescChallenge/Outgoing/assignment1/galaxy_sdk/tasks/src/task_Hello_VeriSilicon.c:7
	osal_delete_task(task_Hello_VeriSilicon);
200003b4:	1607a503          	lw	a0,352(a5) # 90008160 <_sp+0xffff8160>
D:/work/VescChallenge/Outgoing/assignment1/galaxy_sdk/tasks/src/task_Hello_VeriSilicon.c:8
}
200003b8:	0141                	addi	sp,sp,16
D:/work/VescChallenge/Outgoing/assignment1/galaxy_sdk/tasks/src/task_Hello_VeriSilicon.c:7
	osal_delete_task(task_Hello_VeriSilicon);
200003ba:	4770006f          	j	20001030 <osal_delete_task>

200003be <task_Hello_VeriSilicon_create>:
task_Hello_VeriSilicon_create():
D:/work/VescChallenge/Outgoing/assignment1/galaxy_sdk/tasks/src/task_Hello_VeriSilicon.c:12

void task_Hello_VeriSilicon_create(void *param)
{
	task_Hello_VeriSilicon = osal_create_task(task_Hello_VeriSilicon_exec, "Hello_VeriSilicon", 512, 4, NULL);
200003be:	200055b7          	lui	a1,0x20005
200003c2:	20000537          	lui	a0,0x20000
D:/work/VescChallenge/Outgoing/assignment1/galaxy_sdk/tasks/src/task_Hello_VeriSilicon.c:11
{
200003c6:	1141                	addi	sp,sp,-16
D:/work/VescChallenge/Outgoing/assignment1/galaxy_sdk/tasks/src/task_Hello_VeriSilicon.c:12
	task_Hello_VeriSilicon = osal_create_task(task_Hello_VeriSilicon_exec, "Hello_VeriSilicon", 512, 4, NULL);
200003c8:	4701                	li	a4,0
200003ca:	4691                	li	a3,4
200003cc:	20000613          	li	a2,512
200003d0:	90858593          	addi	a1,a1,-1784 # 20004908 <_global_impure_ptr+0x18>
200003d4:	39e50513          	addi	a0,a0,926 # 2000039e <task_Hello_VeriSilicon_exec>
D:/work/VescChallenge/Outgoing/assignment1/galaxy_sdk/tasks/src/task_Hello_VeriSilicon.c:11
{
200003d8:	c606                	sw	ra,12(sp)
D:/work/VescChallenge/Outgoing/assignment1/galaxy_sdk/tasks/src/task_Hello_VeriSilicon.c:12
	task_Hello_VeriSilicon = osal_create_task(task_Hello_VeriSilicon_exec, "Hello_VeriSilicon", 512, 4, NULL);
200003da:	3ff000ef          	jal	ra,20000fd8 <osal_create_task>
D:/work/VescChallenge/Outgoing/assignment1/galaxy_sdk/tasks/src/task_Hello_VeriSilicon.c:13
}
200003de:	40b2                	lw	ra,12(sp)
D:/work/VescChallenge/Outgoing/assignment1/galaxy_sdk/tasks/src/task_Hello_VeriSilicon.c:12
	task_Hello_VeriSilicon = osal_create_task(task_Hello_VeriSilicon_exec, "Hello_VeriSilicon", 512, 4, NULL);
200003e0:	900087b7          	lui	a5,0x90008
200003e4:	16a7a023          	sw	a0,352(a5) # 90008160 <_sp+0xffff8160>
D:/work/VescChallenge/Outgoing/assignment1/galaxy_sdk/tasks/src/task_Hello_VeriSilicon.c:13
}
200003e8:	0141                	addi	sp,sp,16
200003ea:	8082                	ret

200003ec <hal_uart_get_device>:
hal_uart_get_device():
D:/work/VescChallenge/Outgoing/assignment1/galaxy_sdk/drivers/src/hal_uart.c:58
}

UartDevice *hal_uart_get_device(uint8_t dev_id)
{
    uint8_t i = 0;
    for (i = 0; i < sizeof(hal_dev) / sizeof(hal_dev[0]); i++) {
200003ec:	900087b7          	lui	a5,0x90008
200003f0:	20078793          	addi	a5,a5,512 # 90008200 <_sp+0xffff8200>
D:/work/VescChallenge/Outgoing/assignment1/galaxy_sdk/drivers/src/hal_uart.c:56
{
200003f4:	872a                	mv	a4,a0
200003f6:	01078613          	addi	a2,a5,16
D:/work/VescChallenge/Outgoing/assignment1/galaxy_sdk/drivers/src/hal_uart.c:59
        if (hal_dev[i] && (hal_dev[i]->dev_id == dev_id)) {
200003fa:	4388                	lw	a0,0(a5)
D:/work/VescChallenge/Outgoing/assignment1/galaxy_sdk/drivers/src/hal_uart.c:58
    for (i = 0; i < sizeof(hal_dev) / sizeof(hal_dev[0]); i++) {
200003fc:	0791                	addi	a5,a5,4
D:/work/VescChallenge/Outgoing/assignment1/galaxy_sdk/drivers/src/hal_uart.c:59
        if (hal_dev[i] && (hal_dev[i]->dev_id == dev_id)) {
200003fe:	c509                	beqz	a0,20000408 <hal_uart_get_device+0x1c>
D:/work/VescChallenge/Outgoing/assignment1/galaxy_sdk/drivers/src/hal_uart.c:59 (discriminator 1)
20000400:	00054683          	lbu	a3,0(a0)
20000404:	00e68563          	beq	a3,a4,2000040e <hal_uart_get_device+0x22>
D:/work/VescChallenge/Outgoing/assignment1/galaxy_sdk/drivers/src/hal_uart.c:58 (discriminator 2)
    for (i = 0; i < sizeof(hal_dev) / sizeof(hal_dev[0]); i++) {
20000408:	fec799e3          	bne	a5,a2,200003fa <hal_uart_get_device+0xe>
D:/work/VescChallenge/Outgoing/assignment1/galaxy_sdk/drivers/src/hal_uart.c:63
            return hal_dev[i];
        }
    }
    return NULL;
2000040c:	4501                	li	a0,0
D:/work/VescChallenge/Outgoing/assignment1/galaxy_sdk/drivers/src/hal_uart.c:64
}
2000040e:	8082                	ret

20000410 <hal_uart_put_char>:
hal_uart_put_char():
D:/work/VescChallenge/Outgoing/assignment1/galaxy_sdk/drivers/src/hal_uart.c:93
    ret = get_ops(dev)->data_gets(dev, exp_sz, c, &act_sz);
    return ret;
}

int hal_uart_put_char(const UartDevice *dev, const char c)
{
20000410:	1101                	addi	sp,sp,-32
20000412:	ce06                	sw	ra,28(sp)
20000414:	00b107a3          	sb	a1,15(sp)
D:/work/VescChallenge/Outgoing/assignment1/galaxy_sdk/drivers/src/hal_uart.c:95
    int ret;
    if (!dev)
20000418:	c919                	beqz	a0,2000042e <hal_uart_put_char+0x1e>
D:/work/VescChallenge/Outgoing/assignment1/galaxy_sdk/drivers/src/hal_uart.c:97
        return VSD_ERR_INVALID_POINTER;
    else if (!get_ops(dev)->data_puts)
2000041a:	491c                	lw	a5,16(a0)
2000041c:	47dc                	lw	a5,12(a5)
2000041e:	cf81                	beqz	a5,20000436 <hal_uart_put_char+0x26>
D:/work/VescChallenge/Outgoing/assignment1/galaxy_sdk/drivers/src/hal_uart.c:100
        return VSD_ERR_UNSUPPORTED;

    ret = get_ops(dev)->data_puts(dev, 1, &c);
20000420:	00f10613          	addi	a2,sp,15
20000424:	4585                	li	a1,1
20000426:	9782                	jalr	a5
D:/work/VescChallenge/Outgoing/assignment1/galaxy_sdk/drivers/src/hal_uart.c:102
    return ret;
}
20000428:	40f2                	lw	ra,28(sp)
2000042a:	6105                	addi	sp,sp,32
2000042c:	8082                	ret
2000042e:	40f2                	lw	ra,28(sp)
D:/work/VescChallenge/Outgoing/assignment1/galaxy_sdk/drivers/src/hal_uart.c:96
        return VSD_ERR_INVALID_POINTER;
20000430:	4509                	li	a0,2
D:/work/VescChallenge/Outgoing/assignment1/galaxy_sdk/drivers/src/hal_uart.c:102
}
20000432:	6105                	addi	sp,sp,32
20000434:	8082                	ret
D:/work/VescChallenge/Outgoing/assignment1/galaxy_sdk/drivers/src/hal_uart.c:98
        return VSD_ERR_UNSUPPORTED;
20000436:	451d                	li	a0,7
20000438:	bfc5                	j	20000428 <hal_uart_put_char+0x18>

2000043a <_write>:
_write():
D:/work/VescChallenge/Outgoing/assignment1/galaxy_sdk/bsp/src/newlib.c:35
#endif
    return dat;
}

__WEAK ssize_t _write(int fd, const void *ptr, size_t len)
{
2000043a:	1101                	addi	sp,sp,-32
2000043c:	cc22                	sw	s0,24(sp)
2000043e:	c452                	sw	s4,8(sp)
20000440:	ce06                	sw	ra,28(sp)
20000442:	ca26                	sw	s1,20(sp)
20000444:	c84a                	sw	s2,16(sp)
20000446:	c64e                	sw	s3,12(sp)
20000448:	842e                	mv	s0,a1
2000044a:	8a32                	mv	s4,a2
D:/work/VescChallenge/Outgoing/assignment1/galaxy_sdk/bsp/src/newlib.c:36
    if (!isatty(fd)) {
2000044c:	4e0030ef          	jal	ra,2000392c <isatty>
20000450:	c135                	beqz	a0,200004b4 <_write+0x7a>
D:/work/VescChallenge/Outgoing/assignment1/galaxy_sdk/bsp/src/newlib.c:39
        return -1;
    }
    if (__rv_unlikely(!uart_dev))
20000452:	900084b7          	lui	s1,0x90008
20000456:	16448493          	addi	s1,s1,356 # 90008164 <_sp+0xffff8164>
2000045a:	409c                	lw	a5,0(s1)
2000045c:	cba1                	beqz	a5,200004ac <_write+0x72>
D:/work/VescChallenge/Outgoing/assignment1/galaxy_sdk/bsp/src/newlib.c:43 (discriminator 1)
        uart_dev = hal_uart_get_device(UART_DEV_ID_0);

    const uint8_t *writebuf = (const uint8_t *)ptr;
    for (size_t i = 0; i < len; i++) {
2000045e:	020a0e63          	beqz	s4,2000049a <_write+0x60>
20000462:	014409b3          	add	s3,s0,s4
putchar():
D:/work/VescChallenge/Outgoing/assignment1/galaxy_sdk/bsp/src/newlib.c:19
    if (dat == '\n') {
20000466:	4929                	li	s2,10
20000468:	a801                	j	20000478 <_write+0x3e>
D:/work/VescChallenge/Outgoing/assignment1/galaxy_sdk/bsp/src/newlib.c:27
    uart_write(UART0, dat);
2000046a:	85a6                	mv	a1,s1
2000046c:	10013537          	lui	a0,0x10013
20000470:	213000ef          	jal	ra,20000e82 <uart_write>
_write():
D:/work/VescChallenge/Outgoing/assignment1/galaxy_sdk/bsp/src/newlib.c:43
    for (size_t i = 0; i < len; i++) {
20000474:	03340363          	beq	s0,s3,2000049a <_write+0x60>
D:/work/VescChallenge/Outgoing/assignment1/galaxy_sdk/bsp/src/newlib.c:44 (discriminator 3)
        putchar((int)writebuf[i]);
20000478:	00044483          	lbu	s1,0(s0)
D:/work/VescChallenge/Outgoing/assignment1/galaxy_sdk/bsp/src/newlib.c:43 (discriminator 3)
    for (size_t i = 0; i < len; i++) {
2000047c:	0405                	addi	s0,s0,1
putchar():
D:/work/VescChallenge/Outgoing/assignment1/galaxy_sdk/bsp/src/newlib.c:19 (discriminator 3)
    if (dat == '\n') {
2000047e:	ff2496e3          	bne	s1,s2,2000046a <_write+0x30>
D:/work/VescChallenge/Outgoing/assignment1/galaxy_sdk/bsp/src/newlib.c:21
        uart_write(UART0, '\r');
20000482:	45b5                	li	a1,13
20000484:	10013537          	lui	a0,0x10013
20000488:	1fb000ef          	jal	ra,20000e82 <uart_write>
D:/work/VescChallenge/Outgoing/assignment1/galaxy_sdk/bsp/src/newlib.c:27
    uart_write(UART0, dat);
2000048c:	85a6                	mv	a1,s1
2000048e:	10013537          	lui	a0,0x10013
20000492:	1f1000ef          	jal	ra,20000e82 <uart_write>
_write():
D:/work/VescChallenge/Outgoing/assignment1/galaxy_sdk/bsp/src/newlib.c:43
    for (size_t i = 0; i < len; i++) {
20000496:	ff3411e3          	bne	s0,s3,20000478 <_write+0x3e>
D:/work/VescChallenge/Outgoing/assignment1/galaxy_sdk/bsp/src/newlib.c:46
    }
    return len;
2000049a:	8552                	mv	a0,s4
D:/work/VescChallenge/Outgoing/assignment1/galaxy_sdk/bsp/src/newlib.c:47
}
2000049c:	40f2                	lw	ra,28(sp)
2000049e:	4462                	lw	s0,24(sp)
200004a0:	44d2                	lw	s1,20(sp)
200004a2:	4942                	lw	s2,16(sp)
200004a4:	49b2                	lw	s3,12(sp)
200004a6:	4a22                	lw	s4,8(sp)
200004a8:	6105                	addi	sp,sp,32
200004aa:	8082                	ret
D:/work/VescChallenge/Outgoing/assignment1/galaxy_sdk/bsp/src/newlib.c:40
        uart_dev = hal_uart_get_device(UART_DEV_ID_0);
200004ac:	4501                	li	a0,0
200004ae:	3f3d                	jal	200003ec <hal_uart_get_device>
200004b0:	c088                	sw	a0,0(s1)
200004b2:	b775                	j	2000045e <_write+0x24>
D:/work/VescChallenge/Outgoing/assignment1/galaxy_sdk/bsp/src/newlib.c:37
        return -1;
200004b4:	557d                	li	a0,-1
200004b6:	b7dd                	j	2000049c <_write+0x62>

200004b8 <_close>:
_close():
D:/work/VescChallenge/Outgoing/assignment1/galaxy_sdk/bsp/src/newlib.c:52

__WEAK int _close(int fd)
{
    return -1;
}
200004b8:	557d                	li	a0,-1
200004ba:	8082                	ret

200004bc <_fstat>:
_fstat():
D:/work/VescChallenge/Outgoing/assignment1/galaxy_sdk/bsp/src/newlib.c:57

__WEAK int _fstat(int file, void *st)
{
    return -1;
}
200004bc:	557d                	li	a0,-1
200004be:	8082                	ret

200004c0 <_isatty>:
_isatty():
D:/work/VescChallenge/Outgoing/assignment1/galaxy_sdk/bsp/src/newlib.c:67
}

__WEAK int _isatty(int fd)
{
    return 1;
}
200004c0:	4505                	li	a0,1
200004c2:	8082                	ret

200004c4 <_lseek>:
_lseek():
D:/work/VescChallenge/Outgoing/assignment1/galaxy_sdk/bsp/src/newlib.c:77
}

__WEAK int _lseek(int file, int offset, int whence)
{
    return 0;
}
200004c4:	4501                	li	a0,0
200004c6:	8082                	ret

200004c8 <_read>:
_read():
D:/work/VescChallenge/Outgoing/assignment1/galaxy_sdk/bsp/src/newlib.c:82

__WEAK ssize_t _read(int fd, void *ptr, size_t len)
{
    return -1;
}
200004c8:	557d                	li	a0,-1
200004ca:	8082                	ret
	...

20000500 <exc_entry>:
exc_entry():
D:/work/VescChallenge/Outgoing/assignment1/galaxy_sdk/bsp/src/portasm.S:177
/* In CLIC mode, the exception entry must be 64bytes aligned */
.align 6
.global exc_entry
exc_entry:
    /* Save the caller saving registers (context) */
    SAVE_CONTEXT
20000500:	34911173          	csrrw	sp,mscratchcswl,sp
20000504:	715d                	addi	sp,sp,-80
20000506:	c006                	sw	ra,0(sp)
20000508:	c212                	sw	tp,4(sp)
2000050a:	c416                	sw	t0,8(sp)
2000050c:	c61a                	sw	t1,12(sp)
2000050e:	c81e                	sw	t2,16(sp)
20000510:	ca2a                	sw	a0,20(sp)
20000512:	cc2e                	sw	a1,24(sp)
20000514:	ce32                	sw	a2,28(sp)
20000516:	d036                	sw	a3,32(sp)
20000518:	d23a                	sw	a4,36(sp)
2000051a:	d43e                	sw	a5,40(sp)
2000051c:	dc42                	sw	a6,56(sp)
2000051e:	de46                	sw	a7,60(sp)
20000520:	c0f2                	sw	t3,64(sp)
20000522:	c2f6                	sw	t4,68(sp)
20000524:	c4fa                	sw	t5,72(sp)
20000526:	c6fe                	sw	t6,76(sp)
D:/work/VescChallenge/Outgoing/assignment1/galaxy_sdk/bsp/src/portasm.S:179
    /* Save the necessary CSR registers */
    SAVE_CSR_CONTEXT
20000528:	7ee5d073          	csrwi	pushmcause,11
2000052c:	7ef65073          	csrwi	pushmepc,12
20000530:	7eb6d073          	csrwi	pushmsubm,13
D:/work/VescChallenge/Outgoing/assignment1/galaxy_sdk/bsp/src/portasm.S:186
    /*
     * Set the exception handler function arguments
     * argument 1: mcause value
     * argument 2: current stack point(SP) value
     */
    csrr a0, mcause
20000534:	34202573          	csrr	a0,mcause
D:/work/VescChallenge/Outgoing/assignment1/galaxy_sdk/bsp/src/portasm.S:187
    mv a1, sp
20000538:	858a                	mv	a1,sp
D:/work/VescChallenge/Outgoing/assignment1/galaxy_sdk/bsp/src/portasm.S:193
    /*
     * TODO: Call the exception handler function
     * By default, the function template is provided in
     * system_Device.c, you can adjust it as you want
     */
    call core_exception_handler
2000053a:	041000ef          	jal	ra,20000d7a <core_exception_handler>
D:/work/VescChallenge/Outgoing/assignment1/galaxy_sdk/bsp/src/portasm.S:196

    /* Restore the necessary CSR registers */
    RESTORE_CSR_CONTEXT
2000053e:	52d2                	lw	t0,52(sp)
20000540:	7c429073          	csrw	msubm,t0
20000544:	52c2                	lw	t0,48(sp)
20000546:	34129073          	csrw	mepc,t0
2000054a:	52b2                	lw	t0,44(sp)
2000054c:	34229073          	csrw	mcause,t0
D:/work/VescChallenge/Outgoing/assignment1/galaxy_sdk/bsp/src/portasm.S:198
    /* Restore the caller saving registers (context) */
    RESTORE_CONTEXT
20000550:	4082                	lw	ra,0(sp)
20000552:	4212                	lw	tp,4(sp)
20000554:	42a2                	lw	t0,8(sp)
20000556:	4332                	lw	t1,12(sp)
20000558:	43c2                	lw	t2,16(sp)
2000055a:	4552                	lw	a0,20(sp)
2000055c:	45e2                	lw	a1,24(sp)
2000055e:	4672                	lw	a2,28(sp)
20000560:	5682                	lw	a3,32(sp)
20000562:	5712                	lw	a4,36(sp)
20000564:	57a2                	lw	a5,40(sp)
20000566:	5862                	lw	a6,56(sp)
20000568:	58f2                	lw	a7,60(sp)
2000056a:	4e06                	lw	t3,64(sp)
2000056c:	4e96                	lw	t4,68(sp)
2000056e:	4f26                	lw	t5,72(sp)
20000570:	4fb6                	lw	t6,76(sp)
20000572:	6161                	addi	sp,sp,80
20000574:	34911173          	csrrw	sp,mscratchcswl,sp
D:/work/VescChallenge/Outgoing/assignment1/galaxy_sdk/bsp/src/portasm.S:201

    /* Return to regular code */
    mret
20000578:	30200073          	mret
2000057c:	0000                	unimp
	...

20000580 <irq_entry>:
irq_entry():
D:/work/VescChallenge/Outgoing/assignment1/galaxy_sdk/bsp/src/portasm.S:220
.align 2
.global irq_entry
/* This label will be set to MTVT2 register */
irq_entry:
    /* Save the caller saving registers (context) */
    SAVE_CONTEXT
20000580:	34911173          	csrrw	sp,mscratchcswl,sp
20000584:	715d                	addi	sp,sp,-80
20000586:	c006                	sw	ra,0(sp)
20000588:	c212                	sw	tp,4(sp)
2000058a:	c416                	sw	t0,8(sp)
2000058c:	c61a                	sw	t1,12(sp)
2000058e:	c81e                	sw	t2,16(sp)
20000590:	ca2a                	sw	a0,20(sp)
20000592:	cc2e                	sw	a1,24(sp)
20000594:	ce32                	sw	a2,28(sp)
20000596:	d036                	sw	a3,32(sp)
20000598:	d23a                	sw	a4,36(sp)
2000059a:	d43e                	sw	a5,40(sp)
2000059c:	dc42                	sw	a6,56(sp)
2000059e:	de46                	sw	a7,60(sp)
200005a0:	c0f2                	sw	t3,64(sp)
200005a2:	c2f6                	sw	t4,68(sp)
200005a4:	c4fa                	sw	t5,72(sp)
200005a6:	c6fe                	sw	t6,76(sp)
D:/work/VescChallenge/Outgoing/assignment1/galaxy_sdk/bsp/src/portasm.S:222
    /* Save the necessary CSR registers */
    SAVE_CSR_CONTEXT
200005a8:	7ee5d073          	csrwi	pushmcause,11
200005ac:	7ef65073          	csrwi	pushmepc,12
200005b0:	7eb6d073          	csrwi	pushmsubm,13
D:/work/VescChallenge/Outgoing/assignment1/galaxy_sdk/bsp/src/portasm.S:229
    /* This special CSR read/write operation, which is actually
     * claim the CLIC to find its pending highest ID, if the ID
     * is not 0, then automatically enable the mstatus.MIE, and
     * jump to its vector-entry-label, and update the link register
     */
    csrrw ra, CSR_JALMNXTI, ra
200005b4:	7ed090f3          	csrrw	ra,jalmnxti,ra
D:/work/VescChallenge/Outgoing/assignment1/galaxy_sdk/bsp/src/portasm.S:232

    /* Critical section with interrupts disabled */
    DISABLE_MIE
200005b8:	30047073          	csrci	mstatus,8
D:/work/VescChallenge/Outgoing/assignment1/galaxy_sdk/bsp/src/portasm.S:235

    /* Restore the necessary CSR registers */
    RESTORE_CSR_CONTEXT
200005bc:	52d2                	lw	t0,52(sp)
200005be:	7c429073          	csrw	msubm,t0
200005c2:	52c2                	lw	t0,48(sp)
200005c4:	34129073          	csrw	mepc,t0
200005c8:	52b2                	lw	t0,44(sp)
200005ca:	34229073          	csrw	mcause,t0
D:/work/VescChallenge/Outgoing/assignment1/galaxy_sdk/bsp/src/portasm.S:237
    /* Restore the caller saving registers (context) */
    RESTORE_CONTEXT
200005ce:	4082                	lw	ra,0(sp)
200005d0:	4212                	lw	tp,4(sp)
200005d2:	42a2                	lw	t0,8(sp)
200005d4:	4332                	lw	t1,12(sp)
200005d6:	43c2                	lw	t2,16(sp)
200005d8:	4552                	lw	a0,20(sp)
200005da:	45e2                	lw	a1,24(sp)
200005dc:	4672                	lw	a2,28(sp)
200005de:	5682                	lw	a3,32(sp)
200005e0:	5712                	lw	a4,36(sp)
200005e2:	57a2                	lw	a5,40(sp)
200005e4:	5862                	lw	a6,56(sp)
200005e6:	58f2                	lw	a7,60(sp)
200005e8:	4e06                	lw	t3,64(sp)
200005ea:	4e96                	lw	t4,68(sp)
200005ec:	4f26                	lw	t5,72(sp)
200005ee:	4fb6                	lw	t6,76(sp)
200005f0:	6161                	addi	sp,sp,80
200005f2:	34911173          	csrrw	sp,mscratchcswl,sp
D:/work/VescChallenge/Outgoing/assignment1/galaxy_sdk/bsp/src/portasm.S:240

    /* Return to regular code */
    mret
200005f6:	30200073          	mret

200005fa <default_intexc_handler>:
Undef_Handler():
D:/work/VescChallenge/Outgoing/assignment1/galaxy_sdk/bsp/src/portasm.S:247
/* Default Handler for Exceptions / Interrupts */
.global default_intexc_handler
Undef_Handler:
default_intexc_handler:
1:
    j 1b
200005fa:	a001                	j	200005fa <default_intexc_handler>
200005fc:	00000013          	nop

20000600 <prvPortStartFirstTask>:
prvPortStartFirstTask():
D:/work/VescChallenge/Outgoing/assignment1/galaxy_sdk/bsp/src/portasm.S:260
    /* Setup Interrupt Stack using
       The stack that was used by main()
       before the scheduler is started is
       no longer required after the scheduler is started.
       Interrupt stack pointer is stored in CSR_MSCRATCH */
    la t0, _sp
20000600:	70010297          	auipc	t0,0x70010
20000604:	a0028293          	addi	t0,t0,-1536 # 90010000 <_sp>
D:/work/VescChallenge/Outgoing/assignment1/galaxy_sdk/bsp/src/portasm.S:261
    csrw CSR_MSCRATCH, t0
20000608:	34029073          	csrw	mscratch,t0
D:/work/VescChallenge/Outgoing/assignment1/galaxy_sdk/bsp/src/portasm.S:262
    LOAD sp, pxCurrentTCB           /* Load pxCurrentTCB. */
2000060c:	70008117          	auipc	sp,0x70008
20000610:	b6812103          	lw	sp,-1176(sp) # 90008174 <pxCurrentTCB>
D:/work/VescChallenge/Outgoing/assignment1/galaxy_sdk/bsp/src/portasm.S:263
    LOAD sp, 0x0(sp)                /* Read sp from first TCB member */
20000614:	4102                	lw	sp,0(sp)
D:/work/VescChallenge/Outgoing/assignment1/galaxy_sdk/bsp/src/portasm.S:266

    /* Pop PC from stack and set MEPC */
    LOAD t0,  0  * REGBYTES(sp)
20000616:	4282                	lw	t0,0(sp)
D:/work/VescChallenge/Outgoing/assignment1/galaxy_sdk/bsp/src/portasm.S:267
    csrw CSR_MEPC, t0
20000618:	34129073          	csrw	mepc,t0
D:/work/VescChallenge/Outgoing/assignment1/galaxy_sdk/bsp/src/portasm.S:269
    /* Pop mstatus from stack and set it */
    LOAD t0,  (portRegNum - 1)  * REGBYTES(sp)
2000061c:	52d6                	lw	t0,116(sp)
D:/work/VescChallenge/Outgoing/assignment1/galaxy_sdk/bsp/src/portasm.S:270
    csrw CSR_MSTATUS, t0
2000061e:	30029073          	csrw	mstatus,t0
D:/work/VescChallenge/Outgoing/assignment1/galaxy_sdk/bsp/src/portasm.S:273
    /* Interrupt still disable here */
    /* Restore Registers from Stack */
    LOAD x1,  1  * REGBYTES(sp)    /* RA */
20000622:	4092                	lw	ra,4(sp)
D:/work/VescChallenge/Outgoing/assignment1/galaxy_sdk/bsp/src/portasm.S:274
    LOAD x5,  2  * REGBYTES(sp)
20000624:	42a2                	lw	t0,8(sp)
D:/work/VescChallenge/Outgoing/assignment1/galaxy_sdk/bsp/src/portasm.S:275
    LOAD x6,  3  * REGBYTES(sp)
20000626:	4332                	lw	t1,12(sp)
D:/work/VescChallenge/Outgoing/assignment1/galaxy_sdk/bsp/src/portasm.S:276
    LOAD x7,  4  * REGBYTES(sp)
20000628:	43c2                	lw	t2,16(sp)
D:/work/VescChallenge/Outgoing/assignment1/galaxy_sdk/bsp/src/portasm.S:277
    LOAD x8,  5  * REGBYTES(sp)
2000062a:	4452                	lw	s0,20(sp)
D:/work/VescChallenge/Outgoing/assignment1/galaxy_sdk/bsp/src/portasm.S:278
    LOAD x9,  6  * REGBYTES(sp)
2000062c:	44e2                	lw	s1,24(sp)
D:/work/VescChallenge/Outgoing/assignment1/galaxy_sdk/bsp/src/portasm.S:279
    LOAD x10, 7  * REGBYTES(sp)
2000062e:	4572                	lw	a0,28(sp)
D:/work/VescChallenge/Outgoing/assignment1/galaxy_sdk/bsp/src/portasm.S:280
    LOAD x11, 8  * REGBYTES(sp)
20000630:	5582                	lw	a1,32(sp)
D:/work/VescChallenge/Outgoing/assignment1/galaxy_sdk/bsp/src/portasm.S:281
    LOAD x12, 9  * REGBYTES(sp)
20000632:	5612                	lw	a2,36(sp)
D:/work/VescChallenge/Outgoing/assignment1/galaxy_sdk/bsp/src/portasm.S:282
    LOAD x13, 10 * REGBYTES(sp)
20000634:	56a2                	lw	a3,40(sp)
D:/work/VescChallenge/Outgoing/assignment1/galaxy_sdk/bsp/src/portasm.S:283
    LOAD x14, 11 * REGBYTES(sp)
20000636:	5732                	lw	a4,44(sp)
D:/work/VescChallenge/Outgoing/assignment1/galaxy_sdk/bsp/src/portasm.S:284
    LOAD x15, 12 * REGBYTES(sp)
20000638:	57c2                	lw	a5,48(sp)
D:/work/VescChallenge/Outgoing/assignment1/galaxy_sdk/bsp/src/portasm.S:286
#ifndef __riscv_32e
    LOAD x16, 13 * REGBYTES(sp)
2000063a:	5852                	lw	a6,52(sp)
D:/work/VescChallenge/Outgoing/assignment1/galaxy_sdk/bsp/src/portasm.S:287
    LOAD x17, 14 * REGBYTES(sp)
2000063c:	58e2                	lw	a7,56(sp)
D:/work/VescChallenge/Outgoing/assignment1/galaxy_sdk/bsp/src/portasm.S:288
    LOAD x18, 15 * REGBYTES(sp)
2000063e:	5972                	lw	s2,60(sp)
D:/work/VescChallenge/Outgoing/assignment1/galaxy_sdk/bsp/src/portasm.S:289
    LOAD x19, 16 * REGBYTES(sp)
20000640:	4986                	lw	s3,64(sp)
D:/work/VescChallenge/Outgoing/assignment1/galaxy_sdk/bsp/src/portasm.S:290
    LOAD x20, 17 * REGBYTES(sp)
20000642:	4a16                	lw	s4,68(sp)
D:/work/VescChallenge/Outgoing/assignment1/galaxy_sdk/bsp/src/portasm.S:291
    LOAD x21, 18 * REGBYTES(sp)
20000644:	4aa6                	lw	s5,72(sp)
D:/work/VescChallenge/Outgoing/assignment1/galaxy_sdk/bsp/src/portasm.S:292
    LOAD x22, 19 * REGBYTES(sp)
20000646:	4b36                	lw	s6,76(sp)
D:/work/VescChallenge/Outgoing/assignment1/galaxy_sdk/bsp/src/portasm.S:293
    LOAD x23, 20 * REGBYTES(sp)
20000648:	4bc6                	lw	s7,80(sp)
D:/work/VescChallenge/Outgoing/assignment1/galaxy_sdk/bsp/src/portasm.S:294
    LOAD x24, 21 * REGBYTES(sp)
2000064a:	4c56                	lw	s8,84(sp)
D:/work/VescChallenge/Outgoing/assignment1/galaxy_sdk/bsp/src/portasm.S:295
    LOAD x25, 22 * REGBYTES(sp)
2000064c:	4ce6                	lw	s9,88(sp)
D:/work/VescChallenge/Outgoing/assignment1/galaxy_sdk/bsp/src/portasm.S:296
    LOAD x26, 23 * REGBYTES(sp)
2000064e:	4d76                	lw	s10,92(sp)
D:/work/VescChallenge/Outgoing/assignment1/galaxy_sdk/bsp/src/portasm.S:297
    LOAD x27, 24 * REGBYTES(sp)
20000650:	5d86                	lw	s11,96(sp)
D:/work/VescChallenge/Outgoing/assignment1/galaxy_sdk/bsp/src/portasm.S:298
    LOAD x28, 25 * REGBYTES(sp)
20000652:	5e16                	lw	t3,100(sp)
D:/work/VescChallenge/Outgoing/assignment1/galaxy_sdk/bsp/src/portasm.S:299
    LOAD x29, 26 * REGBYTES(sp)
20000654:	5ea6                	lw	t4,104(sp)
D:/work/VescChallenge/Outgoing/assignment1/galaxy_sdk/bsp/src/portasm.S:300
    LOAD x30, 27 * REGBYTES(sp)
20000656:	5f36                	lw	t5,108(sp)
D:/work/VescChallenge/Outgoing/assignment1/galaxy_sdk/bsp/src/portasm.S:301
    LOAD x31, 28 * REGBYTES(sp)
20000658:	5fc6                	lw	t6,112(sp)
D:/work/VescChallenge/Outgoing/assignment1/galaxy_sdk/bsp/src/portasm.S:304
#endif

    addi sp, sp, portCONTEXT_SIZE
2000065a:	07810113          	addi	sp,sp,120
D:/work/VescChallenge/Outgoing/assignment1/galaxy_sdk/bsp/src/portasm.S:306

    mret
2000065e:	30200073          	mret
20000662:	0001                	nop

20000664 <eclic_msip_handler>:
eclic_msip_handler():
D:/work/VescChallenge/Outgoing/assignment1/galaxy_sdk/bsp/src/portasm.S:311

.align 2
.global eclic_msip_handler
eclic_msip_handler:
    addi sp, sp, -portCONTEXT_SIZE
20000664:	f8810113          	addi	sp,sp,-120
D:/work/VescChallenge/Outgoing/assignment1/galaxy_sdk/bsp/src/portasm.S:312
    STORE x1,  1  * REGBYTES(sp)    /* RA */
20000668:	c206                	sw	ra,4(sp)
D:/work/VescChallenge/Outgoing/assignment1/galaxy_sdk/bsp/src/portasm.S:313
    STORE x5,  2  * REGBYTES(sp)
2000066a:	c416                	sw	t0,8(sp)
D:/work/VescChallenge/Outgoing/assignment1/galaxy_sdk/bsp/src/portasm.S:314
    STORE x6,  3  * REGBYTES(sp)
2000066c:	c61a                	sw	t1,12(sp)
D:/work/VescChallenge/Outgoing/assignment1/galaxy_sdk/bsp/src/portasm.S:315
    STORE x7,  4  * REGBYTES(sp)
2000066e:	c81e                	sw	t2,16(sp)
D:/work/VescChallenge/Outgoing/assignment1/galaxy_sdk/bsp/src/portasm.S:316
    STORE x8,  5  * REGBYTES(sp)
20000670:	ca22                	sw	s0,20(sp)
D:/work/VescChallenge/Outgoing/assignment1/galaxy_sdk/bsp/src/portasm.S:317
    STORE x9,  6  * REGBYTES(sp)
20000672:	cc26                	sw	s1,24(sp)
D:/work/VescChallenge/Outgoing/assignment1/galaxy_sdk/bsp/src/portasm.S:318
    STORE x10, 7  * REGBYTES(sp)
20000674:	ce2a                	sw	a0,28(sp)
D:/work/VescChallenge/Outgoing/assignment1/galaxy_sdk/bsp/src/portasm.S:319
    STORE x11, 8  * REGBYTES(sp)
20000676:	d02e                	sw	a1,32(sp)
D:/work/VescChallenge/Outgoing/assignment1/galaxy_sdk/bsp/src/portasm.S:320
    STORE x12, 9  * REGBYTES(sp)
20000678:	d232                	sw	a2,36(sp)
D:/work/VescChallenge/Outgoing/assignment1/galaxy_sdk/bsp/src/portasm.S:321
    STORE x13, 10 * REGBYTES(sp)
2000067a:	d436                	sw	a3,40(sp)
D:/work/VescChallenge/Outgoing/assignment1/galaxy_sdk/bsp/src/portasm.S:322
    STORE x14, 11 * REGBYTES(sp)
2000067c:	d63a                	sw	a4,44(sp)
D:/work/VescChallenge/Outgoing/assignment1/galaxy_sdk/bsp/src/portasm.S:323
    STORE x15, 12 * REGBYTES(sp)
2000067e:	d83e                	sw	a5,48(sp)
D:/work/VescChallenge/Outgoing/assignment1/galaxy_sdk/bsp/src/portasm.S:325
#ifndef __riscv_32e
    STORE x16, 13 * REGBYTES(sp)
20000680:	da42                	sw	a6,52(sp)
D:/work/VescChallenge/Outgoing/assignment1/galaxy_sdk/bsp/src/portasm.S:326
    STORE x17, 14 * REGBYTES(sp)
20000682:	dc46                	sw	a7,56(sp)
D:/work/VescChallenge/Outgoing/assignment1/galaxy_sdk/bsp/src/portasm.S:327
    STORE x18, 15 * REGBYTES(sp)
20000684:	de4a                	sw	s2,60(sp)
D:/work/VescChallenge/Outgoing/assignment1/galaxy_sdk/bsp/src/portasm.S:328
    STORE x19, 16 * REGBYTES(sp)
20000686:	c0ce                	sw	s3,64(sp)
D:/work/VescChallenge/Outgoing/assignment1/galaxy_sdk/bsp/src/portasm.S:329
    STORE x20, 17 * REGBYTES(sp)
20000688:	c2d2                	sw	s4,68(sp)
D:/work/VescChallenge/Outgoing/assignment1/galaxy_sdk/bsp/src/portasm.S:330
    STORE x21, 18 * REGBYTES(sp)
2000068a:	c4d6                	sw	s5,72(sp)
D:/work/VescChallenge/Outgoing/assignment1/galaxy_sdk/bsp/src/portasm.S:331
    STORE x22, 19 * REGBYTES(sp)
2000068c:	c6da                	sw	s6,76(sp)
D:/work/VescChallenge/Outgoing/assignment1/galaxy_sdk/bsp/src/portasm.S:332
    STORE x23, 20 * REGBYTES(sp)
2000068e:	c8de                	sw	s7,80(sp)
D:/work/VescChallenge/Outgoing/assignment1/galaxy_sdk/bsp/src/portasm.S:333
    STORE x24, 21 * REGBYTES(sp)
20000690:	cae2                	sw	s8,84(sp)
D:/work/VescChallenge/Outgoing/assignment1/galaxy_sdk/bsp/src/portasm.S:334
    STORE x25, 22 * REGBYTES(sp)
20000692:	cce6                	sw	s9,88(sp)
D:/work/VescChallenge/Outgoing/assignment1/galaxy_sdk/bsp/src/portasm.S:335
    STORE x26, 23 * REGBYTES(sp)
20000694:	ceea                	sw	s10,92(sp)
D:/work/VescChallenge/Outgoing/assignment1/galaxy_sdk/bsp/src/portasm.S:336
    STORE x27, 24 * REGBYTES(sp)
20000696:	d0ee                	sw	s11,96(sp)
D:/work/VescChallenge/Outgoing/assignment1/galaxy_sdk/bsp/src/portasm.S:337
    STORE x28, 25 * REGBYTES(sp)
20000698:	d2f2                	sw	t3,100(sp)
D:/work/VescChallenge/Outgoing/assignment1/galaxy_sdk/bsp/src/portasm.S:338
    STORE x29, 26 * REGBYTES(sp)
2000069a:	d4f6                	sw	t4,104(sp)
D:/work/VescChallenge/Outgoing/assignment1/galaxy_sdk/bsp/src/portasm.S:339
    STORE x30, 27 * REGBYTES(sp)
2000069c:	d6fa                	sw	t5,108(sp)
D:/work/VescChallenge/Outgoing/assignment1/galaxy_sdk/bsp/src/portasm.S:340
    STORE x31, 28 * REGBYTES(sp)
2000069e:	d8fe                	sw	t6,112(sp)
D:/work/VescChallenge/Outgoing/assignment1/galaxy_sdk/bsp/src/portasm.S:343
#endif
    /* Push mstatus to stack */
    csrr t0, CSR_MSTATUS
200006a0:	300022f3          	csrr	t0,mstatus
D:/work/VescChallenge/Outgoing/assignment1/galaxy_sdk/bsp/src/portasm.S:344
    STORE t0,  (portRegNum - 1)  * REGBYTES(sp)
200006a4:	da96                	sw	t0,116(sp)
D:/work/VescChallenge/Outgoing/assignment1/galaxy_sdk/bsp/src/portasm.S:349

    /* Push additional registers */

    /* Store sp to task stack */
    LOAD t0, pxCurrentTCB
200006a6:	70008297          	auipc	t0,0x70008
200006aa:	ace2a283          	lw	t0,-1330(t0) # 90008174 <pxCurrentTCB>
D:/work/VescChallenge/Outgoing/assignment1/galaxy_sdk/bsp/src/portasm.S:350
    STORE sp, 0(t0)
200006ae:	0022a023          	sw	sp,0(t0)
D:/work/VescChallenge/Outgoing/assignment1/galaxy_sdk/bsp/src/portasm.S:352

    csrr t0, CSR_MEPC
200006b2:	341022f3          	csrr	t0,mepc
D:/work/VescChallenge/Outgoing/assignment1/galaxy_sdk/bsp/src/portasm.S:353
    STORE t0, 0(sp)
200006b6:	c016                	sw	t0,0(sp)
D:/work/VescChallenge/Outgoing/assignment1/galaxy_sdk/bsp/src/portasm.S:354
    jal xPortTaskSwitch
200006b8:	146000ef          	jal	ra,200007fe <xPortTaskSwitch>
D:/work/VescChallenge/Outgoing/assignment1/galaxy_sdk/bsp/src/portasm.S:357

    /* Switch task context */
    LOAD t0, pxCurrentTCB           /* Load pxCurrentTCB. */
200006bc:	70008297          	auipc	t0,0x70008
200006c0:	ab82a283          	lw	t0,-1352(t0) # 90008174 <pxCurrentTCB>
D:/work/VescChallenge/Outgoing/assignment1/galaxy_sdk/bsp/src/portasm.S:358
    LOAD sp, 0x0(t0)                /* Read sp from first TCB member */
200006c4:	0002a103          	lw	sp,0(t0)
D:/work/VescChallenge/Outgoing/assignment1/galaxy_sdk/bsp/src/portasm.S:361

    /* Pop PC from stack and set MEPC */
    LOAD t0,  0  * REGBYTES(sp)
200006c8:	4282                	lw	t0,0(sp)
D:/work/VescChallenge/Outgoing/assignment1/galaxy_sdk/bsp/src/portasm.S:362
    csrw CSR_MEPC, t0
200006ca:	34129073          	csrw	mepc,t0
D:/work/VescChallenge/Outgoing/assignment1/galaxy_sdk/bsp/src/portasm.S:366
    /* Pop additional registers */

    /* Pop mstatus from stack and set it */
    LOAD t0,  (portRegNum - 1)  * REGBYTES(sp)
200006ce:	52d6                	lw	t0,116(sp)
D:/work/VescChallenge/Outgoing/assignment1/galaxy_sdk/bsp/src/portasm.S:367
    csrw CSR_MSTATUS, t0
200006d0:	30029073          	csrw	mstatus,t0
D:/work/VescChallenge/Outgoing/assignment1/galaxy_sdk/bsp/src/portasm.S:370
    /* Interrupt still disable here */
    /* Restore Registers from Stack */
    LOAD x1,  1  * REGBYTES(sp)    /* RA */
200006d4:	4092                	lw	ra,4(sp)
D:/work/VescChallenge/Outgoing/assignment1/galaxy_sdk/bsp/src/portasm.S:371
    LOAD x5,  2  * REGBYTES(sp)
200006d6:	42a2                	lw	t0,8(sp)
D:/work/VescChallenge/Outgoing/assignment1/galaxy_sdk/bsp/src/portasm.S:372
    LOAD x6,  3  * REGBYTES(sp)
200006d8:	4332                	lw	t1,12(sp)
D:/work/VescChallenge/Outgoing/assignment1/galaxy_sdk/bsp/src/portasm.S:373
    LOAD x7,  4  * REGBYTES(sp)
200006da:	43c2                	lw	t2,16(sp)
D:/work/VescChallenge/Outgoing/assignment1/galaxy_sdk/bsp/src/portasm.S:374
    LOAD x8,  5  * REGBYTES(sp)
200006dc:	4452                	lw	s0,20(sp)
D:/work/VescChallenge/Outgoing/assignment1/galaxy_sdk/bsp/src/portasm.S:375
    LOAD x9,  6  * REGBYTES(sp)
200006de:	44e2                	lw	s1,24(sp)
D:/work/VescChallenge/Outgoing/assignment1/galaxy_sdk/bsp/src/portasm.S:376
    LOAD x10, 7  * REGBYTES(sp)
200006e0:	4572                	lw	a0,28(sp)
D:/work/VescChallenge/Outgoing/assignment1/galaxy_sdk/bsp/src/portasm.S:377
    LOAD x11, 8  * REGBYTES(sp)
200006e2:	5582                	lw	a1,32(sp)
D:/work/VescChallenge/Outgoing/assignment1/galaxy_sdk/bsp/src/portasm.S:378
    LOAD x12, 9  * REGBYTES(sp)
200006e4:	5612                	lw	a2,36(sp)
D:/work/VescChallenge/Outgoing/assignment1/galaxy_sdk/bsp/src/portasm.S:379
    LOAD x13, 10 * REGBYTES(sp)
200006e6:	56a2                	lw	a3,40(sp)
D:/work/VescChallenge/Outgoing/assignment1/galaxy_sdk/bsp/src/portasm.S:380
    LOAD x14, 11 * REGBYTES(sp)
200006e8:	5732                	lw	a4,44(sp)
D:/work/VescChallenge/Outgoing/assignment1/galaxy_sdk/bsp/src/portasm.S:381
    LOAD x15, 12 * REGBYTES(sp)
200006ea:	57c2                	lw	a5,48(sp)
D:/work/VescChallenge/Outgoing/assignment1/galaxy_sdk/bsp/src/portasm.S:383
#ifndef __riscv_32e
    LOAD x16, 13 * REGBYTES(sp)
200006ec:	5852                	lw	a6,52(sp)
D:/work/VescChallenge/Outgoing/assignment1/galaxy_sdk/bsp/src/portasm.S:384
    LOAD x17, 14 * REGBYTES(sp)
200006ee:	58e2                	lw	a7,56(sp)
D:/work/VescChallenge/Outgoing/assignment1/galaxy_sdk/bsp/src/portasm.S:385
    LOAD x18, 15 * REGBYTES(sp)
200006f0:	5972                	lw	s2,60(sp)
D:/work/VescChallenge/Outgoing/assignment1/galaxy_sdk/bsp/src/portasm.S:386
    LOAD x19, 16 * REGBYTES(sp)
200006f2:	4986                	lw	s3,64(sp)
D:/work/VescChallenge/Outgoing/assignment1/galaxy_sdk/bsp/src/portasm.S:387
    LOAD x20, 17 * REGBYTES(sp)
200006f4:	4a16                	lw	s4,68(sp)
D:/work/VescChallenge/Outgoing/assignment1/galaxy_sdk/bsp/src/portasm.S:388
    LOAD x21, 18 * REGBYTES(sp)
200006f6:	4aa6                	lw	s5,72(sp)
D:/work/VescChallenge/Outgoing/assignment1/galaxy_sdk/bsp/src/portasm.S:389
    LOAD x22, 19 * REGBYTES(sp)
200006f8:	4b36                	lw	s6,76(sp)
D:/work/VescChallenge/Outgoing/assignment1/galaxy_sdk/bsp/src/portasm.S:390
    LOAD x23, 20 * REGBYTES(sp)
200006fa:	4bc6                	lw	s7,80(sp)
D:/work/VescChallenge/Outgoing/assignment1/galaxy_sdk/bsp/src/portasm.S:391
    LOAD x24, 21 * REGBYTES(sp)
200006fc:	4c56                	lw	s8,84(sp)
D:/work/VescChallenge/Outgoing/assignment1/galaxy_sdk/bsp/src/portasm.S:392
    LOAD x25, 22 * REGBYTES(sp)
200006fe:	4ce6                	lw	s9,88(sp)
D:/work/VescChallenge/Outgoing/assignment1/galaxy_sdk/bsp/src/portasm.S:393
    LOAD x26, 23 * REGBYTES(sp)
20000700:	4d76                	lw	s10,92(sp)
D:/work/VescChallenge/Outgoing/assignment1/galaxy_sdk/bsp/src/portasm.S:394
    LOAD x27, 24 * REGBYTES(sp)
20000702:	5d86                	lw	s11,96(sp)
D:/work/VescChallenge/Outgoing/assignment1/galaxy_sdk/bsp/src/portasm.S:395
    LOAD x28, 25 * REGBYTES(sp)
20000704:	5e16                	lw	t3,100(sp)
D:/work/VescChallenge/Outgoing/assignment1/galaxy_sdk/bsp/src/portasm.S:396
    LOAD x29, 26 * REGBYTES(sp)
20000706:	5ea6                	lw	t4,104(sp)
D:/work/VescChallenge/Outgoing/assignment1/galaxy_sdk/bsp/src/portasm.S:397
    LOAD x30, 27 * REGBYTES(sp)
20000708:	5f36                	lw	t5,108(sp)
D:/work/VescChallenge/Outgoing/assignment1/galaxy_sdk/bsp/src/portasm.S:398
    LOAD x31, 28 * REGBYTES(sp)
2000070a:	5fc6                	lw	t6,112(sp)
D:/work/VescChallenge/Outgoing/assignment1/galaxy_sdk/bsp/src/portasm.S:401
#endif

    addi sp, sp, portCONTEXT_SIZE
2000070c:	07810113          	addi	sp,sp,120
D:/work/VescChallenge/Outgoing/assignment1/galaxy_sdk/bsp/src/portasm.S:402
    mret
20000710:	30200073          	mret

20000714 <prvTaskExitError>:
prvTaskExitError():
/jenkins/node-gerritverify/workspace/gerrit_review_verification/.workspace/bsp/arch/riscv/n309/os_portable/freertos/port.c:267
20000714:	900007b7          	lui	a5,0x90000
20000718:	0607a703          	lw	a4,96(a5) # 90000060 <_sp+0xffff0060>
/jenkins/node-gerritverify/workspace/gerrit_review_verification/.workspace/bsp/arch/riscv/n309/os_portable/freertos/port.c:258
2000071c:	1141                	addi	sp,sp,-16
vPortRaiseBASEPRI():
/jenkins/node-gerritverify/workspace/gerrit_review_verification/.workspace/bsp/arch/riscv/n309/os_portable/freertos/portmacro.h:171
2000071e:	900006b7          	lui	a3,0x90000
prvTaskExitError():
/jenkins/node-gerritverify/workspace/gerrit_review_verification/.workspace/bsp/arch/riscv/n309/os_portable/freertos/port.c:259
20000722:	c602                	sw	zero,12(sp)
/jenkins/node-gerritverify/workspace/gerrit_review_verification/.workspace/bsp/arch/riscv/n309/os_portable/freertos/port.c:267
20000724:	57fd                	li	a5,-1
vPortRaiseBASEPRI():
/jenkins/node-gerritverify/workspace/gerrit_review_verification/.workspace/bsp/arch/riscv/n309/os_portable/freertos/portmacro.h:171
20000726:	0646c683          	lbu	a3,100(a3) # 90000064 <_sp+0xffff0064>
prvTaskExitError():
/jenkins/node-gerritverify/workspace/gerrit_review_verification/.workspace/bsp/arch/riscv/n309/os_portable/freertos/port.c:267
2000072a:	00f70963          	beq	a4,a5,2000073c <prvTaskExitError+0x28>
__ECLIC_SetMth():
/jenkins/node-gerritverify/workspace/gerrit_review_verification/.workspace/bsp/arch/riscv/n309/include/core_feature_eclic.h:340
2000072e:	0c0007b7          	lui	a5,0xc000
20000732:	00d785a3          	sb	a3,11(a5) # c00000b <__HEAP_SIZE+0xbffb00b>
vPortRaiseBASEPRI():
/jenkins/node-gerritverify/workspace/gerrit_review_verification/.workspace/bsp/arch/riscv/n309/os_portable/freertos/portmacro.h:172
20000736:	0ff0000f          	fence
prvTaskExitError():
/jenkins/node-gerritverify/workspace/gerrit_review_verification/.workspace/bsp/arch/riscv/n309/os_portable/freertos/port.c:267
2000073a:	a001                	j	2000073a <prvTaskExitError+0x26>
__ECLIC_SetMth():
/jenkins/node-gerritverify/workspace/gerrit_review_verification/.workspace/bsp/arch/riscv/n309/include/core_feature_eclic.h:340
2000073c:	0c0007b7          	lui	a5,0xc000
20000740:	00d785a3          	sb	a3,11(a5) # c00000b <__HEAP_SIZE+0xbffb00b>
vPortRaiseBASEPRI():
/jenkins/node-gerritverify/workspace/gerrit_review_verification/.workspace/bsp/arch/riscv/n309/os_portable/freertos/portmacro.h:172
20000744:	0ff0000f          	fence
prvTaskExitError():
/jenkins/node-gerritverify/workspace/gerrit_review_verification/.workspace/bsp/arch/riscv/n309/os_portable/freertos/port.c:269
20000748:	47b2                	lw	a5,12(sp)
2000074a:	e799                	bnez	a5,20000758 <prvTaskExitError+0x44>
__WFI():
/jenkins/node-gerritverify/workspace/gerrit_review_verification/.workspace/bsp/arch/riscv/n309/include/core_feature_base.h:719
2000074c:	8100f073          	csrci	wfe,1
/jenkins/node-gerritverify/workspace/gerrit_review_verification/.workspace/bsp/arch/riscv/n309/include/core_feature_base.h:720
20000750:	10500073          	wfi
prvTaskExitError():
/jenkins/node-gerritverify/workspace/gerrit_review_verification/.workspace/bsp/arch/riscv/n309/os_portable/freertos/port.c:269
20000754:	47b2                	lw	a5,12(sp)
20000756:	dbfd                	beqz	a5,2000074c <prvTaskExitError+0x38>
/jenkins/node-gerritverify/workspace/gerrit_review_verification/.workspace/bsp/arch/riscv/n309/os_portable/freertos/port.c:280
20000758:	0141                	addi	sp,sp,16
2000075a:	8082                	ret

2000075c <pxPortInitialiseStack>:
pxPortInitialiseStack():
/jenkins/node-gerritverify/workspace/gerrit_review_verification/.workspace/bsp/arch/riscv/n309/os_portable/freertos/port.c:238
2000075c:	6791                	lui	a5,0x4
2000075e:	88078793          	addi	a5,a5,-1920 # 3880 <__STACK_SIZE+0x3080>
20000762:	fef52e23          	sw	a5,-4(a0) # 10012ffc <__HEAP_SIZE+0x1000dffc>
/jenkins/node-gerritverify/workspace/gerrit_review_verification/.workspace/bsp/arch/riscv/n309/os_portable/freertos/port.c:248
20000766:	200007b7          	lui	a5,0x20000
2000076a:	71478793          	addi	a5,a5,1812 # 20000714 <prvTaskExitError>
/jenkins/node-gerritverify/workspace/gerrit_review_verification/.workspace/bsp/arch/riscv/n309/os_portable/freertos/port.c:246
2000076e:	fac52223          	sw	a2,-92(a0)
/jenkins/node-gerritverify/workspace/gerrit_review_verification/.workspace/bsp/arch/riscv/n309/os_portable/freertos/port.c:248
20000772:	f8f52623          	sw	a5,-116(a0)
/jenkins/node-gerritverify/workspace/gerrit_review_verification/.workspace/bsp/arch/riscv/n309/os_portable/freertos/port.c:251
20000776:	f8b52423          	sw	a1,-120(a0)
/jenkins/node-gerritverify/workspace/gerrit_review_verification/.workspace/bsp/arch/riscv/n309/os_portable/freertos/port.c:254
2000077a:	f8850513          	addi	a0,a0,-120
2000077e:	8082                	ret

20000780 <vPortEnterCritical>:
vPortRaiseBASEPRI():
/jenkins/node-gerritverify/workspace/gerrit_review_verification/.workspace/bsp/arch/riscv/n309/os_portable/freertos/portmacro.h:171
20000780:	900006b7          	lui	a3,0x90000
20000784:	06468693          	addi	a3,a3,100 # 90000064 <_sp+0xffff0064>
20000788:	0006c783          	lbu	a5,0(a3)
__ECLIC_SetMth():
/jenkins/node-gerritverify/workspace/gerrit_review_verification/.workspace/bsp/arch/riscv/n309/include/core_feature_eclic.h:340
2000078c:	0c000637          	lui	a2,0xc000
20000790:	00f605a3          	sb	a5,11(a2) # c00000b <__HEAP_SIZE+0xbffb00b>
vPortRaiseBASEPRI():
/jenkins/node-gerritverify/workspace/gerrit_review_verification/.workspace/bsp/arch/riscv/n309/os_portable/freertos/portmacro.h:172
20000794:	0ff0000f          	fence
vPortEnterCritical():
/jenkins/node-gerritverify/workspace/gerrit_review_verification/.workspace/bsp/arch/riscv/n309/os_portable/freertos/port.c:389
20000798:	90000737          	lui	a4,0x90000
2000079c:	06070713          	addi	a4,a4,96 # 90000060 <_sp+0xffff0060>
200007a0:	431c                	lw	a5,0(a4)
/jenkins/node-gerritverify/workspace/gerrit_review_verification/.workspace/bsp/arch/riscv/n309/os_portable/freertos/port.c:396
200007a2:	4585                	li	a1,1
/jenkins/node-gerritverify/workspace/gerrit_review_verification/.workspace/bsp/arch/riscv/n309/os_portable/freertos/port.c:389
200007a4:	0785                	addi	a5,a5,1
200007a6:	c31c                	sw	a5,0(a4)
/jenkins/node-gerritverify/workspace/gerrit_review_verification/.workspace/bsp/arch/riscv/n309/os_portable/freertos/port.c:396
200007a8:	00b78363          	beq	a5,a1,200007ae <vPortEnterCritical+0x2e>
/jenkins/node-gerritverify/workspace/gerrit_review_verification/.workspace/bsp/arch/riscv/n309/os_portable/freertos/port.c:399
200007ac:	8082                	ret
__ECLIC_GetMth():
/jenkins/node-gerritverify/workspace/gerrit_review_verification/.workspace/bsp/arch/riscv/n309/include/core_feature_eclic.h:353
200007ae:	00b64783          	lbu	a5,11(a2)
vPortEnterCritical():
/jenkins/node-gerritverify/workspace/gerrit_review_verification/.workspace/bsp/arch/riscv/n309/os_portable/freertos/port.c:397
200007b2:	0006c703          	lbu	a4,0(a3)
__ECLIC_GetMth():
/jenkins/node-gerritverify/workspace/gerrit_review_verification/.workspace/bsp/arch/riscv/n309/include/core_feature_eclic.h:353
200007b6:	0ff7f793          	zext.b	a5,a5
vPortEnterCritical():
/jenkins/node-gerritverify/workspace/gerrit_review_verification/.workspace/bsp/arch/riscv/n309/os_portable/freertos/port.c:397
200007ba:	fef709e3          	beq	a4,a5,200007ac <vPortEnterCritical+0x2c>
__ECLIC_SetMth():
/jenkins/node-gerritverify/workspace/gerrit_review_verification/.workspace/bsp/arch/riscv/n309/include/core_feature_eclic.h:340
200007be:	00e605a3          	sb	a4,11(a2)
vPortRaiseBASEPRI():
/jenkins/node-gerritverify/workspace/gerrit_review_verification/.workspace/bsp/arch/riscv/n309/os_portable/freertos/portmacro.h:172
200007c2:	0ff0000f          	fence
vPortEnterCritical():
/jenkins/node-gerritverify/workspace/gerrit_review_verification/.workspace/bsp/arch/riscv/n309/os_portable/freertos/port.c:397 (discriminator 1)
200007c6:	a001                	j	200007c6 <vPortEnterCritical+0x46>

200007c8 <vPortExitCritical>:
vPortExitCritical():
/jenkins/node-gerritverify/workspace/gerrit_review_verification/.workspace/bsp/arch/riscv/n309/os_portable/freertos/port.c:404
200007c8:	900007b7          	lui	a5,0x90000
200007cc:	06078793          	addi	a5,a5,96 # 90000060 <_sp+0xffff0060>
200007d0:	4398                	lw	a4,0(a5)
200007d2:	ef01                	bnez	a4,200007ea <vPortExitCritical+0x22>
vPortRaiseBASEPRI():
/jenkins/node-gerritverify/workspace/gerrit_review_verification/.workspace/bsp/arch/riscv/n309/os_portable/freertos/portmacro.h:171
200007d4:	900007b7          	lui	a5,0x90000
200007d8:	0647c703          	lbu	a4,100(a5) # 90000064 <_sp+0xffff0064>
__ECLIC_SetMth():
/jenkins/node-gerritverify/workspace/gerrit_review_verification/.workspace/bsp/arch/riscv/n309/include/core_feature_eclic.h:340
200007dc:	0c0007b7          	lui	a5,0xc000
200007e0:	00e785a3          	sb	a4,11(a5) # c00000b <__HEAP_SIZE+0xbffb00b>
vPortRaiseBASEPRI():
/jenkins/node-gerritverify/workspace/gerrit_review_verification/.workspace/bsp/arch/riscv/n309/os_portable/freertos/portmacro.h:172
200007e4:	0ff0000f          	fence
vPortExitCritical():
/jenkins/node-gerritverify/workspace/gerrit_review_verification/.workspace/bsp/arch/riscv/n309/os_portable/freertos/port.c:404 (discriminator 1)
200007e8:	a001                	j	200007e8 <vPortExitCritical+0x20>
/jenkins/node-gerritverify/workspace/gerrit_review_verification/.workspace/bsp/arch/riscv/n309/os_portable/freertos/port.c:405 (discriminator 2)
200007ea:	177d                	addi	a4,a4,-1
200007ec:	c398                	sw	a4,0(a5)
/jenkins/node-gerritverify/workspace/gerrit_review_verification/.workspace/bsp/arch/riscv/n309/os_portable/freertos/port.c:406 (discriminator 2)
200007ee:	e719                	bnez	a4,200007fc <vPortExitCritical+0x34>
__ECLIC_SetMth():
/jenkins/node-gerritverify/workspace/gerrit_review_verification/.workspace/bsp/arch/riscv/n309/include/core_feature_eclic.h:340
200007f0:	0c0007b7          	lui	a5,0xc000
200007f4:	000785a3          	sb	zero,11(a5) # c00000b <__HEAP_SIZE+0xbffb00b>
vPortSetBASEPRI():
/jenkins/node-gerritverify/workspace/gerrit_review_verification/.workspace/bsp/arch/riscv/n309/os_portable/freertos/portmacro.h:194
200007f8:	0ff0000f          	fence
vPortExitCritical():
/jenkins/node-gerritverify/workspace/gerrit_review_verification/.workspace/bsp/arch/riscv/n309/os_portable/freertos/port.c:409
200007fc:	8082                	ret

200007fe <xPortTaskSwitch>:
vPortRaiseBASEPRI():
/jenkins/node-gerritverify/workspace/gerrit_review_verification/.workspace/bsp/arch/riscv/n309/os_portable/freertos/portmacro.h:171
200007fe:	900007b7          	lui	a5,0x90000
20000802:	0647c703          	lbu	a4,100(a5) # 90000064 <_sp+0xffff0064>
xPortTaskSwitch():
/jenkins/node-gerritverify/workspace/gerrit_review_verification/.workspace/bsp/arch/riscv/n309/os_portable/freertos/port.c:432
20000806:	1141                	addi	sp,sp,-16
20000808:	c606                	sw	ra,12(sp)
__ECLIC_SetMth():
/jenkins/node-gerritverify/workspace/gerrit_review_verification/.workspace/bsp/arch/riscv/n309/include/core_feature_eclic.h:340
2000080a:	0c0007b7          	lui	a5,0xc000
2000080e:	00e785a3          	sb	a4,11(a5) # c00000b <__HEAP_SIZE+0xbffb00b>
vPortRaiseBASEPRI():
/jenkins/node-gerritverify/workspace/gerrit_review_verification/.workspace/bsp/arch/riscv/n309/os_portable/freertos/portmacro.h:172
20000812:	0ff0000f          	fence
SysTimer_ClearSWIRQ():
/jenkins/node-gerritverify/workspace/gerrit_review_verification/.workspace/bsp/arch/riscv/n309/include/core_feature_timer.h:313
20000816:	f14027f3          	csrr	a5,mhartid
/jenkins/node-gerritverify/workspace/gerrit_review_verification/.workspace/bsp/arch/riscv/n309/include/core_feature_timer.h:314
2000081a:	e39d                	bnez	a5,20000840 <xPortTaskSwitch+0x42>
/jenkins/node-gerritverify/workspace/gerrit_review_verification/.workspace/bsp/arch/riscv/n309/include/core_feature_timer.h:315
2000081c:	02001737          	lui	a4,0x2001
20000820:	ffc72783          	lw	a5,-4(a4) # 2000ffc <__HEAP_SIZE+0x1ffbffc>
20000824:	9bf9                	andi	a5,a5,-2
20000826:	fef72e23          	sw	a5,-4(a4)
xPortTaskSwitch():
/jenkins/node-gerritverify/workspace/gerrit_review_verification/.workspace/bsp/arch/riscv/n309/os_portable/freertos/port.c:436
2000082a:	2e8010ef          	jal	ra,20001b12 <vTaskSwitchContext>
__ECLIC_SetMth():
/jenkins/node-gerritverify/workspace/gerrit_review_verification/.workspace/bsp/arch/riscv/n309/include/core_feature_eclic.h:340
2000082e:	0c0007b7          	lui	a5,0xc000
20000832:	000785a3          	sb	zero,11(a5) # c00000b <__HEAP_SIZE+0xbffb00b>
vPortSetBASEPRI():
/jenkins/node-gerritverify/workspace/gerrit_review_verification/.workspace/bsp/arch/riscv/n309/os_portable/freertos/portmacro.h:194
20000836:	0ff0000f          	fence
xPortTaskSwitch():
/jenkins/node-gerritverify/workspace/gerrit_review_verification/.workspace/bsp/arch/riscv/n309/os_portable/freertos/port.c:438
2000083a:	40b2                	lw	ra,12(sp)
2000083c:	0141                	addi	sp,sp,16
2000083e:	8082                	ret
SysTimer_ClearSWIRQ():
/jenkins/node-gerritverify/workspace/gerrit_review_verification/.workspace/bsp/arch/riscv/n309/include/core_feature_timer.h:317
20000840:	02001737          	lui	a4,0x2001
20000844:	078a                	slli	a5,a5,0x2
20000846:	97ba                	add	a5,a5,a4
__SW():
/jenkins/node-gerritverify/workspace/gerrit_review_verification/.workspace/bsp/arch/riscv/n309/include/core_feature_base.h:1460
20000848:	4701                	li	a4,0
2000084a:	c398                	sw	a4,0(a5)
xPortTaskSwitch():
/jenkins/node-gerritverify/workspace/gerrit_review_verification/.workspace/bsp/arch/riscv/n309/os_portable/freertos/port.c:436
2000084c:	2c6010ef          	jal	ra,20001b12 <vTaskSwitchContext>
__ECLIC_SetMth():
/jenkins/node-gerritverify/workspace/gerrit_review_verification/.workspace/bsp/arch/riscv/n309/include/core_feature_eclic.h:340
20000850:	0c0007b7          	lui	a5,0xc000
20000854:	000785a3          	sb	zero,11(a5) # c00000b <__HEAP_SIZE+0xbffb00b>
vPortSetBASEPRI():
/jenkins/node-gerritverify/workspace/gerrit_review_verification/.workspace/bsp/arch/riscv/n309/os_portable/freertos/portmacro.h:194
20000858:	0ff0000f          	fence
xPortTaskSwitch():
/jenkins/node-gerritverify/workspace/gerrit_review_verification/.workspace/bsp/arch/riscv/n309/os_portable/freertos/port.c:438
2000085c:	40b2                	lw	ra,12(sp)
2000085e:	0141                	addi	sp,sp,16
20000860:	8082                	ret

20000862 <eclic_mtip_handler>:
vPortRaiseBASEPRI():
/jenkins/node-gerritverify/workspace/gerrit_review_verification/.workspace/bsp/arch/riscv/n309/os_portable/freertos/portmacro.h:171
20000862:	900007b7          	lui	a5,0x90000
20000866:	0647c703          	lbu	a4,100(a5) # 90000064 <_sp+0xffff0064>
eclic_mtip_handler():
/jenkins/node-gerritverify/workspace/gerrit_review_verification/.workspace/bsp/arch/riscv/n309/os_portable/freertos/port.c:442
2000086a:	1101                	addi	sp,sp,-32
2000086c:	ce06                	sw	ra,28(sp)
__ECLIC_SetMth():
/jenkins/node-gerritverify/workspace/gerrit_review_verification/.workspace/bsp/arch/riscv/n309/include/core_feature_eclic.h:340
2000086e:	0c0007b7          	lui	a5,0xc000
20000872:	00e785a3          	sb	a4,11(a5) # c00000b <__HEAP_SIZE+0xbffb00b>
vPortRaiseBASEPRI():
/jenkins/node-gerritverify/workspace/gerrit_review_verification/.workspace/bsp/arch/riscv/n309/os_portable/freertos/portmacro.h:172
20000876:	0ff0000f          	fence
eclic_mtip_handler():
/jenkins/node-gerritverify/workspace/gerrit_review_verification/.workspace/bsp/arch/riscv/n309/os_portable/freertos/port.c:449
2000087a:	29c1                	jal	20000d4a <bsp_rtc_clock_get_freq>
2000087c:	51eb87b7          	lui	a5,0x51eb8
20000880:	51f78793          	addi	a5,a5,1311 # 51eb851f <_data_lma+0x31eb30e7>
20000884:	02f53533          	mulhu	a0,a0,a5
__LW():
/jenkins/node-gerritverify/workspace/gerrit_review_verification/.workspace/bsp/arch/riscv/n309/include/core_feature_base.h:1410
20000888:	02000737          	lui	a4,0x2000
eclic_mtip_handler():
/jenkins/node-gerritverify/workspace/gerrit_review_verification/.workspace/bsp/arch/riscv/n309/os_portable/freertos/port.c:449
2000088c:	8115                	srli	a0,a0,0x5
__LW():
/jenkins/node-gerritverify/workspace/gerrit_review_verification/.workspace/bsp/arch/riscv/n309/include/core_feature_base.h:1410
2000088e:	00470793          	addi	a5,a4,4 # 2000004 <__HEAP_SIZE+0x1ffb004>
20000892:	4394                	lw	a3,0(a5)
SysTimer_GetLoadValue():
/jenkins/node-gerritverify/workspace/gerrit_review_verification/.workspace/bsp/arch/riscv/n309/include/core_feature_timer.h:148
20000894:	c236                	sw	a3,4(sp)
__LW():
/jenkins/node-gerritverify/workspace/gerrit_review_verification/.workspace/bsp/arch/riscv/n309/include/core_feature_base.h:1410
20000896:	4314                	lw	a3,0(a4)
SysTimer_GetLoadValue():
/jenkins/node-gerritverify/workspace/gerrit_review_verification/.workspace/bsp/arch/riscv/n309/include/core_feature_timer.h:149
20000898:	c436                	sw	a3,8(sp)
__LW():
/jenkins/node-gerritverify/workspace/gerrit_review_verification/.workspace/bsp/arch/riscv/n309/include/core_feature_base.h:1410
2000089a:	439c                	lw	a5,0(a5)
SysTimer_GetLoadValue():
/jenkins/node-gerritverify/workspace/gerrit_review_verification/.workspace/bsp/arch/riscv/n309/include/core_feature_timer.h:150
2000089c:	c63e                	sw	a5,12(sp)
/jenkins/node-gerritverify/workspace/gerrit_review_verification/.workspace/bsp/arch/riscv/n309/include/core_feature_timer.h:151
2000089e:	4692                	lw	a3,4(sp)
200008a0:	47b2                	lw	a5,12(sp)
200008a2:	00f68463          	beq	a3,a5,200008aa <eclic_mtip_handler+0x48>
__LW():
/jenkins/node-gerritverify/workspace/gerrit_review_verification/.workspace/bsp/arch/riscv/n309/include/core_feature_base.h:1410
200008a6:	4318                	lw	a4,0(a4)
SysTimer_GetLoadValue():
/jenkins/node-gerritverify/workspace/gerrit_review_verification/.workspace/bsp/arch/riscv/n309/include/core_feature_timer.h:152
200008a8:	c43a                	sw	a4,8(sp)
/jenkins/node-gerritverify/workspace/gerrit_review_verification/.workspace/bsp/arch/riscv/n309/include/core_feature_timer.h:154
200008aa:	4732                	lw	a4,12(sp)
200008ac:	4622                	lw	a2,8(sp)
SysTick_Reload():
/jenkins/node-gerritverify/workspace/gerrit_review_verification/.workspace/bsp/arch/riscv/n309/include/core_feature_timer.h:462
200008ae:	00c506b3          	add	a3,a0,a2
200008b2:	00a6b7b3          	sltu	a5,a3,a0
200008b6:	97ba                	add	a5,a5,a4
/jenkins/node-gerritverify/workspace/gerrit_review_verification/.workspace/bsp/arch/riscv/n309/include/core_feature_timer.h:464
200008b8:	06f77963          	bgeu	a4,a5,2000092a <eclic_mtip_handler+0xc8>
SysTimer_SetCompareValue():
/jenkins/node-gerritverify/workspace/gerrit_review_verification/.workspace/bsp/arch/riscv/n309/include/core_feature_timer.h:174
200008bc:	f1402773          	csrr	a4,mhartid
/jenkins/node-gerritverify/workspace/gerrit_review_verification/.workspace/bsp/arch/riscv/n309/include/core_feature_timer.h:175
200008c0:	c721                	beqz	a4,20000908 <eclic_mtip_handler+0xa6>
/jenkins/node-gerritverify/workspace/gerrit_review_verification/.workspace/bsp/arch/riscv/n309/include/core_feature_timer.h:186
200008c2:	02005637          	lui	a2,0x2005
200008c6:	070e                	slli	a4,a4,0x3
200008c8:	9732                	add	a4,a4,a2
__SW():
/jenkins/node-gerritverify/workspace/gerrit_review_verification/.workspace/bsp/arch/riscv/n309/include/core_feature_base.h:1460
200008ca:	567d                	li	a2,-1
200008cc:	c310                	sw	a2,0(a4)
SysTimer_SetCompareValue():
/jenkins/node-gerritverify/workspace/gerrit_review_verification/.workspace/bsp/arch/riscv/n309/include/core_feature_timer.h:189
200008ce:	00470613          	addi	a2,a4,4
__SW():
/jenkins/node-gerritverify/workspace/gerrit_review_verification/.workspace/bsp/arch/riscv/n309/include/core_feature_base.h:1460
200008d2:	c21c                	sw	a5,0(a2)
200008d4:	c314                	sw	a3,0(a4)
eclic_mtip_handler():
/jenkins/node-gerritverify/workspace/gerrit_review_verification/.workspace/bsp/arch/riscv/n309/os_portable/freertos/port.c:451
200008d6:	21e010ef          	jal	ra,20001af4 <xTaskIncrementTick>
200008da:	cd11                	beqz	a0,200008f6 <eclic_mtip_handler+0x94>
SysTimer_SetSWIRQ():
/jenkins/node-gerritverify/workspace/gerrit_review_verification/.workspace/bsp/arch/riscv/n309/include/core_feature_timer.h:293
200008dc:	f14027f3          	csrr	a5,mhartid
/jenkins/node-gerritverify/workspace/gerrit_review_verification/.workspace/bsp/arch/riscv/n309/include/core_feature_timer.h:294
200008e0:	ef95                	bnez	a5,2000091c <eclic_mtip_handler+0xba>
/jenkins/node-gerritverify/workspace/gerrit_review_verification/.workspace/bsp/arch/riscv/n309/include/core_feature_timer.h:295
200008e2:	02001737          	lui	a4,0x2001
200008e6:	ffc72783          	lw	a5,-4(a4) # 2000ffc <__HEAP_SIZE+0x1ffbffc>
200008ea:	0017e793          	ori	a5,a5,1
200008ee:	fef72e23          	sw	a5,-4(a4)
eclic_mtip_handler():
/jenkins/node-gerritverify/workspace/gerrit_review_verification/.workspace/bsp/arch/riscv/n309/os_portable/freertos/port.c:454
200008f2:	0ff0000f          	fence
__ECLIC_SetMth():
/jenkins/node-gerritverify/workspace/gerrit_review_verification/.workspace/bsp/arch/riscv/n309/include/core_feature_eclic.h:340 (discriminator 1)
200008f6:	0c0007b7          	lui	a5,0xc000
200008fa:	000785a3          	sb	zero,11(a5) # c00000b <__HEAP_SIZE+0xbffb00b>
vPortSetBASEPRI():
/jenkins/node-gerritverify/workspace/gerrit_review_verification/.workspace/bsp/arch/riscv/n309/os_portable/freertos/portmacro.h:194 (discriminator 1)
200008fe:	0ff0000f          	fence
eclic_mtip_handler():
/jenkins/node-gerritverify/workspace/gerrit_review_verification/.workspace/bsp/arch/riscv/n309/os_portable/freertos/port.c:458 (discriminator 1)
20000902:	40f2                	lw	ra,28(sp)
20000904:	6105                	addi	sp,sp,32
20000906:	8082                	ret
__SW():
/jenkins/node-gerritverify/workspace/gerrit_review_verification/.workspace/bsp/arch/riscv/n309/include/core_feature_base.h:1460
20000908:	02000737          	lui	a4,0x2000
2000090c:	00870613          	addi	a2,a4,8 # 2000008 <__HEAP_SIZE+0x1ffb008>
20000910:	55fd                	li	a1,-1
20000912:	c20c                	sw	a1,0(a2)
20000914:	0731                	addi	a4,a4,12
20000916:	c31c                	sw	a5,0(a4)
20000918:	c214                	sw	a3,0(a2)
/jenkins/node-gerritverify/workspace/gerrit_review_verification/.workspace/bsp/arch/riscv/n309/include/core_feature_base.h:1461
2000091a:	bf75                	j	200008d6 <eclic_mtip_handler+0x74>
SysTimer_SetSWIRQ():
/jenkins/node-gerritverify/workspace/gerrit_review_verification/.workspace/bsp/arch/riscv/n309/include/core_feature_timer.h:297
2000091c:	02001737          	lui	a4,0x2001
20000920:	078a                	slli	a5,a5,0x2
20000922:	97ba                	add	a5,a5,a4
__SW():
/jenkins/node-gerritverify/workspace/gerrit_review_verification/.workspace/bsp/arch/riscv/n309/include/core_feature_base.h:1460
20000924:	4705                	li	a4,1
20000926:	c398                	sw	a4,0(a5)
/jenkins/node-gerritverify/workspace/gerrit_review_verification/.workspace/bsp/arch/riscv/n309/include/core_feature_base.h:1461
20000928:	b7e9                	j	200008f2 <eclic_mtip_handler+0x90>
SysTick_Reload():
/jenkins/node-gerritverify/workspace/gerrit_review_verification/.workspace/bsp/arch/riscv/n309/include/core_feature_timer.h:464
2000092a:	00e79463          	bne	a5,a4,20000932 <eclic_mtip_handler+0xd0>
2000092e:	f8d667e3          	bltu	a2,a3,200008bc <eclic_mtip_handler+0x5a>
__SW():
/jenkins/node-gerritverify/workspace/gerrit_review_verification/.workspace/bsp/arch/riscv/n309/include/core_feature_base.h:1460
20000932:	4681                	li	a3,0
20000934:	02000737          	lui	a4,0x2000
20000938:	c314                	sw	a3,0(a4)
2000093a:	00470793          	addi	a5,a4,4 # 2000004 <__HEAP_SIZE+0x1ffb004>
2000093e:	c394                	sw	a3,0(a5)
20000940:	c314                	sw	a3,0(a4)
SysTimer_SetCompareValue():
/jenkins/node-gerritverify/workspace/gerrit_review_verification/.workspace/bsp/arch/riscv/n309/include/core_feature_timer.h:174
20000942:	f14027f3          	csrr	a5,mhartid
/jenkins/node-gerritverify/workspace/gerrit_review_verification/.workspace/bsp/arch/riscv/n309/include/core_feature_timer.h:175
20000946:	eb89                	bnez	a5,20000958 <eclic_mtip_handler+0xf6>
__SW():
/jenkins/node-gerritverify/workspace/gerrit_review_verification/.workspace/bsp/arch/riscv/n309/include/core_feature_base.h:1460
20000948:	00870693          	addi	a3,a4,8
2000094c:	567d                	li	a2,-1
2000094e:	c290                	sw	a2,0(a3)
20000950:	0731                	addi	a4,a4,12
20000952:	c31c                	sw	a5,0(a4)
20000954:	c288                	sw	a0,0(a3)
/jenkins/node-gerritverify/workspace/gerrit_review_verification/.workspace/bsp/arch/riscv/n309/include/core_feature_base.h:1461
20000956:	b741                	j	200008d6 <eclic_mtip_handler+0x74>
SysTimer_SetCompareValue():
/jenkins/node-gerritverify/workspace/gerrit_review_verification/.workspace/bsp/arch/riscv/n309/include/core_feature_timer.h:186
20000958:	02005737          	lui	a4,0x2005
2000095c:	078e                	slli	a5,a5,0x3
2000095e:	97ba                	add	a5,a5,a4
__SW():
/jenkins/node-gerritverify/workspace/gerrit_review_verification/.workspace/bsp/arch/riscv/n309/include/core_feature_base.h:1460
20000960:	577d                	li	a4,-1
20000962:	c398                	sw	a4,0(a5)
SysTimer_SetCompareValue():
/jenkins/node-gerritverify/workspace/gerrit_review_verification/.workspace/bsp/arch/riscv/n309/include/core_feature_timer.h:189
20000964:	00478713          	addi	a4,a5,4
__SW():
/jenkins/node-gerritverify/workspace/gerrit_review_verification/.workspace/bsp/arch/riscv/n309/include/core_feature_base.h:1460
20000968:	c314                	sw	a3,0(a4)
2000096a:	c388                	sw	a0,0(a5)
/jenkins/node-gerritverify/workspace/gerrit_review_verification/.workspace/bsp/arch/riscv/n309/include/core_feature_base.h:1461
2000096c:	b7ad                	j	200008d6 <eclic_mtip_handler+0x74>

2000096e <vPortSetupTimerInterrupt>:
vPortSetupTimerInterrupt():
/jenkins/node-gerritverify/workspace/gerrit_review_verification/.workspace/bsp/arch/riscv/n309/os_portable/freertos/port.c:629
2000096e:	1101                	addi	sp,sp,-32
20000970:	ce06                	sw	ra,28(sp)
/jenkins/node-gerritverify/workspace/gerrit_review_verification/.workspace/bsp/arch/riscv/n309/os_portable/freertos/port.c:646
20000972:	2ee1                	jal	20000d4a <bsp_rtc_clock_get_freq>
20000974:	51eb87b7          	lui	a5,0x51eb8
20000978:	51f78793          	addi	a5,a5,1311 # 51eb851f <_data_lma+0x31eb30e7>
2000097c:	02f53533          	mulhu	a0,a0,a5
__LW():
/jenkins/node-gerritverify/workspace/gerrit_review_verification/.workspace/bsp/arch/riscv/n309/include/core_feature_base.h:1410
20000980:	02000737          	lui	a4,0x2000
vPortSetupTimerInterrupt():
/jenkins/node-gerritverify/workspace/gerrit_review_verification/.workspace/bsp/arch/riscv/n309/os_portable/freertos/port.c:646
20000984:	8115                	srli	a0,a0,0x5
__LW():
/jenkins/node-gerritverify/workspace/gerrit_review_verification/.workspace/bsp/arch/riscv/n309/include/core_feature_base.h:1410
20000986:	00470793          	addi	a5,a4,4 # 2000004 <__HEAP_SIZE+0x1ffb004>
2000098a:	4394                	lw	a3,0(a5)
SysTimer_GetLoadValue():
/jenkins/node-gerritverify/workspace/gerrit_review_verification/.workspace/bsp/arch/riscv/n309/include/core_feature_timer.h:148
2000098c:	c236                	sw	a3,4(sp)
__LW():
/jenkins/node-gerritverify/workspace/gerrit_review_verification/.workspace/bsp/arch/riscv/n309/include/core_feature_base.h:1410
2000098e:	4314                	lw	a3,0(a4)
SysTimer_GetLoadValue():
/jenkins/node-gerritverify/workspace/gerrit_review_verification/.workspace/bsp/arch/riscv/n309/include/core_feature_timer.h:149
20000990:	c436                	sw	a3,8(sp)
__LW():
/jenkins/node-gerritverify/workspace/gerrit_review_verification/.workspace/bsp/arch/riscv/n309/include/core_feature_base.h:1410
20000992:	439c                	lw	a5,0(a5)
SysTimer_GetLoadValue():
/jenkins/node-gerritverify/workspace/gerrit_review_verification/.workspace/bsp/arch/riscv/n309/include/core_feature_timer.h:150
20000994:	c63e                	sw	a5,12(sp)
/jenkins/node-gerritverify/workspace/gerrit_review_verification/.workspace/bsp/arch/riscv/n309/include/core_feature_timer.h:151
20000996:	4692                	lw	a3,4(sp)
20000998:	47b2                	lw	a5,12(sp)
2000099a:	00f68463          	beq	a3,a5,200009a2 <vPortSetupTimerInterrupt+0x34>
__LW():
/jenkins/node-gerritverify/workspace/gerrit_review_verification/.workspace/bsp/arch/riscv/n309/include/core_feature_base.h:1410
2000099e:	4318                	lw	a4,0(a4)
SysTimer_GetLoadValue():
/jenkins/node-gerritverify/workspace/gerrit_review_verification/.workspace/bsp/arch/riscv/n309/include/core_feature_timer.h:152
200009a0:	c43a                	sw	a4,8(sp)
/jenkins/node-gerritverify/workspace/gerrit_review_verification/.workspace/bsp/arch/riscv/n309/include/core_feature_timer.h:154
200009a2:	4732                	lw	a4,12(sp)
200009a4:	47a2                	lw	a5,8(sp)
SysTick_Config():
/jenkins/node-gerritverify/workspace/gerrit_review_verification/.workspace/bsp/arch/riscv/n309/include/core_feature_timer.h:429
200009a6:	00a786b3          	add	a3,a5,a0
200009aa:	00f6b7b3          	sltu	a5,a3,a5
200009ae:	97ba                	add	a5,a5,a4
SysTimer_SetCompareValue():
/jenkins/node-gerritverify/workspace/gerrit_review_verification/.workspace/bsp/arch/riscv/n309/include/core_feature_timer.h:174
200009b0:	f1402773          	csrr	a4,mhartid
/jenkins/node-gerritverify/workspace/gerrit_review_verification/.workspace/bsp/arch/riscv/n309/include/core_feature_timer.h:175
200009b4:	1a071063          	bnez	a4,20000b54 <vPortSetupTimerInterrupt+0x1e6>
__SW():
/jenkins/node-gerritverify/workspace/gerrit_review_verification/.workspace/bsp/arch/riscv/n309/include/core_feature_base.h:1460
200009b8:	02000737          	lui	a4,0x2000
200009bc:	00870613          	addi	a2,a4,8 # 2000008 <__HEAP_SIZE+0x1ffb008>
200009c0:	55fd                	li	a1,-1
200009c2:	c20c                	sw	a1,0(a2)
200009c4:	0731                	addi	a4,a4,12
200009c6:	c31c                	sw	a5,0(a4)
200009c8:	c214                	sw	a3,0(a2)
__ECLIC_SetShvIRQ():
/jenkins/node-gerritverify/workspace/gerrit_review_verification/.workspace/bsp/arch/riscv/n309/include/core_feature_eclic.h:515
200009ca:	0c0017b7          	lui	a5,0xc001
200009ce:	01e7c703          	lbu	a4,30(a5) # c00101e <__HEAP_SIZE+0xbffc01e>
200009d2:	0c0006b7          	lui	a3,0xc000
200009d6:	0fe77713          	andi	a4,a4,254
200009da:	00e78f23          	sb	a4,30(a5)
/jenkins/node-gerritverify/workspace/gerrit_review_verification/.workspace/bsp/arch/riscv/n309/include/core_feature_eclic.h:516
200009de:	01e7c703          	lbu	a4,30(a5)
200009e2:	0ff77713          	zext.b	a4,a4
200009e6:	00e78f23          	sb	a4,30(a5)
__ECLIC_GetCfgNlbits():
/jenkins/node-gerritverify/workspace/gerrit_review_verification/.workspace/bsp/arch/riscv/n309/include/core_feature_eclic.h:278
200009ea:	0006c783          	lbu	a5,0(a3) # c000000 <__HEAP_SIZE+0xbffb000>
__ECLIC_GetInfoCtlbits():
/jenkins/node-gerritverify/workspace/gerrit_review_verification/.workspace/bsp/arch/riscv/n309/include/core_feature_eclic.h:311
200009ee:	42d8                	lw	a4,4(a3)
__ECLIC_GetCfgNlbits():
/jenkins/node-gerritverify/workspace/gerrit_review_verification/.workspace/bsp/arch/riscv/n309/include/core_feature_eclic.h:278
200009f0:	8385                	srli	a5,a5,0x1
200009f2:	8bbd                	andi	a5,a5,15
__ECLIC_SetLevelIRQ():
/jenkins/node-gerritverify/workspace/gerrit_review_verification/.workspace/bsp/arch/riscv/n309/include/core_feature_eclic.h:589
200009f4:	c795                	beqz	a5,20000a20 <vPortSetupTimerInterrupt+0xb2>
__ECLIC_GetInfoCtlbits():
/jenkins/node-gerritverify/workspace/gerrit_review_verification/.workspace/bsp/arch/riscv/n309/include/core_feature_eclic.h:311
200009f6:	8355                	srli	a4,a4,0x15
200009f8:	8b3d                	andi	a4,a4,15
__ECLIC_SetLevelIRQ():
/jenkins/node-gerritverify/workspace/gerrit_review_verification/.workspace/bsp/arch/riscv/n309/include/core_feature_eclic.h:586
200009fa:	0ff7f613          	zext.b	a2,a5
/jenkins/node-gerritverify/workspace/gerrit_review_verification/.workspace/bsp/arch/riscv/n309/include/core_feature_eclic.h:596
200009fe:	86ba                	mv	a3,a4
20000a00:	16e7e963          	bltu	a5,a4,20000b72 <vPortSetupTimerInterrupt+0x204>
__ECLIC_GetCtrlIRQ():
/jenkins/node-gerritverify/workspace/gerrit_review_verification/.workspace/bsp/arch/riscv/n309/include/core_feature_eclic.h:566
20000a04:	0c001737          	lui	a4,0xc001
20000a08:	01f74783          	lbu	a5,31(a4) # c00101f <__HEAP_SIZE+0xbffc01f>
__ECLIC_SetLevelIRQ():
/jenkins/node-gerritverify/workspace/gerrit_review_verification/.workspace/bsp/arch/riscv/n309/include/core_feature_eclic.h:602
20000a0c:	00d797b3          	sll	a5,a5,a3
/jenkins/node-gerritverify/workspace/gerrit_review_verification/.workspace/bsp/arch/riscv/n309/include/core_feature_eclic.h:603
20000a10:	0ff7f793          	zext.b	a5,a5
20000a14:	40d7d7b3          	sra	a5,a5,a3
20000a18:	0ff7f793          	zext.b	a5,a5
__ECLIC_SetCtrlIRQ():
/jenkins/node-gerritverify/workspace/gerrit_review_verification/.workspace/bsp/arch/riscv/n309/include/core_feature_eclic.h:550
20000a1c:	00f70fa3          	sb	a5,31(a4)
__ECLIC_EnableIRQ():
/jenkins/node-gerritverify/workspace/gerrit_review_verification/.workspace/bsp/arch/riscv/n309/include/core_feature_eclic.h:369
20000a20:	0c001737          	lui	a4,0xc001
20000a24:	01d74783          	lbu	a5,29(a4) # c00101d <__HEAP_SIZE+0xbffc01d>
__SW():
/jenkins/node-gerritverify/workspace/gerrit_review_verification/.workspace/bsp/arch/riscv/n309/include/core_feature_base.h:1460
20000a28:	4681                	li	a3,0
SysTick_Config():
/jenkins/node-gerritverify/workspace/gerrit_review_verification/.workspace/bsp/arch/riscv/n309/include/core_feature_eclic.h:369
20000a2a:	0ff7f793          	zext.b	a5,a5
20000a2e:	0017e793          	ori	a5,a5,1
20000a32:	00f70ea3          	sb	a5,29(a4)
__SW():
/jenkins/node-gerritverify/workspace/gerrit_review_verification/.workspace/bsp/arch/riscv/n309/include/core_feature_base.h:1460
20000a36:	02000737          	lui	a4,0x2000
20000a3a:	c314                	sw	a3,0(a4)
20000a3c:	00470793          	addi	a5,a4,4 # 2000004 <__HEAP_SIZE+0x1ffb004>
20000a40:	c394                	sw	a3,0(a5)
20000a42:	c314                	sw	a3,0(a4)
SysTimer_SetCompareValue():
/jenkins/node-gerritverify/workspace/gerrit_review_verification/.workspace/bsp/arch/riscv/n309/include/core_feature_timer.h:174
20000a44:	f14027f3          	csrr	a5,mhartid
/jenkins/node-gerritverify/workspace/gerrit_review_verification/.workspace/bsp/arch/riscv/n309/include/core_feature_timer.h:175
20000a48:	ebfd                	bnez	a5,20000b3e <vPortSetupTimerInterrupt+0x1d0>
__SW():
/jenkins/node-gerritverify/workspace/gerrit_review_verification/.workspace/bsp/arch/riscv/n309/include/core_feature_base.h:1460
20000a4a:	00870693          	addi	a3,a4,8
20000a4e:	567d                	li	a2,-1
20000a50:	c290                	sw	a2,0(a3)
20000a52:	0731                	addi	a4,a4,12
20000a54:	c31c                	sw	a5,0(a4)
20000a56:	c288                	sw	a0,0(a3)
__ECLIC_DisableIRQ():
/jenkins/node-gerritverify/workspace/gerrit_review_verification/.workspace/bsp/arch/riscv/n309/include/core_feature_eclic.h:403
20000a58:	0c0016b7          	lui	a3,0xc001
20000a5c:	01d6c783          	lbu	a5,29(a3) # c00101d <__HEAP_SIZE+0xbffc01d>
20000a60:	0c000737          	lui	a4,0xc000
20000a64:	0fe7f793          	andi	a5,a5,254
20000a68:	00f68ea3          	sb	a5,29(a3)
__ECLIC_GetCfgNlbits():
/jenkins/node-gerritverify/workspace/gerrit_review_verification/.workspace/bsp/arch/riscv/n309/include/core_feature_eclic.h:278
20000a6c:	00074783          	lbu	a5,0(a4) # c000000 <__HEAP_SIZE+0xbffb000>
__ECLIC_GetInfoCtlbits():
/jenkins/node-gerritverify/workspace/gerrit_review_verification/.workspace/bsp/arch/riscv/n309/include/core_feature_eclic.h:311
20000a70:	4358                	lw	a4,4(a4)
__ECLIC_GetCfgNlbits():
/jenkins/node-gerritverify/workspace/gerrit_review_verification/.workspace/bsp/arch/riscv/n309/include/core_feature_eclic.h:278
20000a72:	8385                	srli	a5,a5,0x1
20000a74:	8bbd                	andi	a5,a5,15
__ECLIC_SetLevelIRQ():
/jenkins/node-gerritverify/workspace/gerrit_review_verification/.workspace/bsp/arch/riscv/n309/include/core_feature_eclic.h:589
20000a76:	c795                	beqz	a5,20000aa2 <vPortSetupTimerInterrupt+0x134>
__ECLIC_GetInfoCtlbits():
/jenkins/node-gerritverify/workspace/gerrit_review_verification/.workspace/bsp/arch/riscv/n309/include/core_feature_eclic.h:311
20000a78:	8355                	srli	a4,a4,0x15
20000a7a:	8b3d                	andi	a4,a4,15
__ECLIC_SetLevelIRQ():
/jenkins/node-gerritverify/workspace/gerrit_review_verification/.workspace/bsp/arch/riscv/n309/include/core_feature_eclic.h:586
20000a7c:	0ff7f613          	zext.b	a2,a5
/jenkins/node-gerritverify/workspace/gerrit_review_verification/.workspace/bsp/arch/riscv/n309/include/core_feature_eclic.h:596
20000a80:	86ba                	mv	a3,a4
20000a82:	0ee7e663          	bltu	a5,a4,20000b6e <vPortSetupTimerInterrupt+0x200>
__ECLIC_GetCtrlIRQ():
/jenkins/node-gerritverify/workspace/gerrit_review_verification/.workspace/bsp/arch/riscv/n309/include/core_feature_eclic.h:566
20000a86:	0c001737          	lui	a4,0xc001
20000a8a:	01f74783          	lbu	a5,31(a4) # c00101f <__HEAP_SIZE+0xbffc01f>
__ECLIC_SetLevelIRQ():
/jenkins/node-gerritverify/workspace/gerrit_review_verification/.workspace/bsp/arch/riscv/n309/include/core_feature_eclic.h:602
20000a8e:	00d797b3          	sll	a5,a5,a3
/jenkins/node-gerritverify/workspace/gerrit_review_verification/.workspace/bsp/arch/riscv/n309/include/core_feature_eclic.h:603
20000a92:	0ff7f793          	zext.b	a5,a5
20000a96:	40d7d7b3          	sra	a5,a5,a3
20000a9a:	0ff7f793          	zext.b	a5,a5
__ECLIC_SetCtrlIRQ():
/jenkins/node-gerritverify/workspace/gerrit_review_verification/.workspace/bsp/arch/riscv/n309/include/core_feature_eclic.h:550
20000a9e:	00f70fa3          	sb	a5,31(a4)
__ECLIC_SetShvIRQ():
/jenkins/node-gerritverify/workspace/gerrit_review_verification/.workspace/bsp/arch/riscv/n309/include/core_feature_eclic.h:515
20000aa2:	0c0017b7          	lui	a5,0xc001
20000aa6:	01e7c703          	lbu	a4,30(a5) # c00101e <__HEAP_SIZE+0xbffc01e>
20000aaa:	0c0006b7          	lui	a3,0xc000
20000aae:	0fe77713          	andi	a4,a4,254
20000ab2:	00e78f23          	sb	a4,30(a5)
/jenkins/node-gerritverify/workspace/gerrit_review_verification/.workspace/bsp/arch/riscv/n309/include/core_feature_eclic.h:516
20000ab6:	01e7c703          	lbu	a4,30(a5)
20000aba:	0ff77713          	zext.b	a4,a4
20000abe:	00e78f23          	sb	a4,30(a5)
__ECLIC_EnableIRQ():
/jenkins/node-gerritverify/workspace/gerrit_review_verification/.workspace/bsp/arch/riscv/n309/include/core_feature_eclic.h:369
20000ac2:	01d7c703          	lbu	a4,29(a5)
20000ac6:	0ff77713          	zext.b	a4,a4
20000aca:	00176713          	ori	a4,a4,1
20000ace:	00e78ea3          	sb	a4,29(a5)
__ECLIC_SetShvIRQ():
/jenkins/node-gerritverify/workspace/gerrit_review_verification/.workspace/bsp/arch/riscv/n309/include/core_feature_eclic.h:515
20000ad2:	00e7c703          	lbu	a4,14(a5)
20000ad6:	0fe77713          	andi	a4,a4,254
20000ada:	00e78723          	sb	a4,14(a5)
/jenkins/node-gerritverify/workspace/gerrit_review_verification/.workspace/bsp/arch/riscv/n309/include/core_feature_eclic.h:516
20000ade:	00e7c703          	lbu	a4,14(a5)
20000ae2:	0ff77713          	zext.b	a4,a4
20000ae6:	00176713          	ori	a4,a4,1
20000aea:	00e78723          	sb	a4,14(a5)
__ECLIC_GetCfgNlbits():
/jenkins/node-gerritverify/workspace/gerrit_review_verification/.workspace/bsp/arch/riscv/n309/include/core_feature_eclic.h:278
20000aee:	0006c783          	lbu	a5,0(a3) # c000000 <__HEAP_SIZE+0xbffb000>
__ECLIC_GetInfoCtlbits():
/jenkins/node-gerritverify/workspace/gerrit_review_verification/.workspace/bsp/arch/riscv/n309/include/core_feature_eclic.h:311
20000af2:	42d8                	lw	a4,4(a3)
__ECLIC_GetCfgNlbits():
/jenkins/node-gerritverify/workspace/gerrit_review_verification/.workspace/bsp/arch/riscv/n309/include/core_feature_eclic.h:278
20000af4:	8385                	srli	a5,a5,0x1
20000af6:	8bbd                	andi	a5,a5,15
__ECLIC_SetLevelIRQ():
/jenkins/node-gerritverify/workspace/gerrit_review_verification/.workspace/bsp/arch/riscv/n309/include/core_feature_eclic.h:589
20000af8:	c795                	beqz	a5,20000b24 <vPortSetupTimerInterrupt+0x1b6>
__ECLIC_GetInfoCtlbits():
/jenkins/node-gerritverify/workspace/gerrit_review_verification/.workspace/bsp/arch/riscv/n309/include/core_feature_eclic.h:311
20000afa:	8355                	srli	a4,a4,0x15
20000afc:	8b3d                	andi	a4,a4,15
__ECLIC_SetLevelIRQ():
/jenkins/node-gerritverify/workspace/gerrit_review_verification/.workspace/bsp/arch/riscv/n309/include/core_feature_eclic.h:586
20000afe:	0ff7f613          	zext.b	a2,a5
/jenkins/node-gerritverify/workspace/gerrit_review_verification/.workspace/bsp/arch/riscv/n309/include/core_feature_eclic.h:596
20000b02:	86ba                	mv	a3,a4
20000b04:	06e7e363          	bltu	a5,a4,20000b6a <vPortSetupTimerInterrupt+0x1fc>
__ECLIC_GetCtrlIRQ():
/jenkins/node-gerritverify/workspace/gerrit_review_verification/.workspace/bsp/arch/riscv/n309/include/core_feature_eclic.h:566
20000b08:	0c001737          	lui	a4,0xc001
20000b0c:	00f74783          	lbu	a5,15(a4) # c00100f <__HEAP_SIZE+0xbffc00f>
__ECLIC_SetLevelIRQ():
/jenkins/node-gerritverify/workspace/gerrit_review_verification/.workspace/bsp/arch/riscv/n309/include/core_feature_eclic.h:602
20000b10:	00d797b3          	sll	a5,a5,a3
/jenkins/node-gerritverify/workspace/gerrit_review_verification/.workspace/bsp/arch/riscv/n309/include/core_feature_eclic.h:603
20000b14:	0ff7f793          	zext.b	a5,a5
20000b18:	40d7d7b3          	sra	a5,a5,a3
20000b1c:	0ff7f793          	zext.b	a5,a5
__ECLIC_SetCtrlIRQ():
/jenkins/node-gerritverify/workspace/gerrit_review_verification/.workspace/bsp/arch/riscv/n309/include/core_feature_eclic.h:550
20000b20:	00f707a3          	sb	a5,15(a4)
__ECLIC_EnableIRQ():
/jenkins/node-gerritverify/workspace/gerrit_review_verification/.workspace/bsp/arch/riscv/n309/include/core_feature_eclic.h:369
20000b24:	0c001737          	lui	a4,0xc001
20000b28:	00d74783          	lbu	a5,13(a4) # c00100d <__HEAP_SIZE+0xbffc00d>
20000b2c:	0ff7f793          	zext.b	a5,a5
20000b30:	0017e793          	ori	a5,a5,1
20000b34:	00f706a3          	sb	a5,13(a4)
vPortSetupTimerInterrupt():
/jenkins/node-gerritverify/workspace/gerrit_review_verification/.workspace/bsp/arch/riscv/n309/os_portable/freertos/port.c:667
20000b38:	40f2                	lw	ra,28(sp)
20000b3a:	6105                	addi	sp,sp,32
20000b3c:	8082                	ret
SysTimer_SetCompareValue():
/jenkins/node-gerritverify/workspace/gerrit_review_verification/.workspace/bsp/arch/riscv/n309/include/core_feature_timer.h:186
20000b3e:	02005737          	lui	a4,0x2005
20000b42:	078e                	slli	a5,a5,0x3
20000b44:	97ba                	add	a5,a5,a4
__SW():
/jenkins/node-gerritverify/workspace/gerrit_review_verification/.workspace/bsp/arch/riscv/n309/include/core_feature_base.h:1460
20000b46:	577d                	li	a4,-1
20000b48:	c398                	sw	a4,0(a5)
SysTimer_SetCompareValue():
/jenkins/node-gerritverify/workspace/gerrit_review_verification/.workspace/bsp/arch/riscv/n309/include/core_feature_timer.h:189
20000b4a:	00478713          	addi	a4,a5,4
__SW():
/jenkins/node-gerritverify/workspace/gerrit_review_verification/.workspace/bsp/arch/riscv/n309/include/core_feature_base.h:1460
20000b4e:	c314                	sw	a3,0(a4)
20000b50:	c388                	sw	a0,0(a5)
/jenkins/node-gerritverify/workspace/gerrit_review_verification/.workspace/bsp/arch/riscv/n309/include/core_feature_base.h:1461
20000b52:	b719                	j	20000a58 <vPortSetupTimerInterrupt+0xea>
SysTimer_SetCompareValue():
/jenkins/node-gerritverify/workspace/gerrit_review_verification/.workspace/bsp/arch/riscv/n309/include/core_feature_timer.h:186
20000b54:	02005637          	lui	a2,0x2005
20000b58:	070e                	slli	a4,a4,0x3
20000b5a:	9732                	add	a4,a4,a2
__SW():
/jenkins/node-gerritverify/workspace/gerrit_review_verification/.workspace/bsp/arch/riscv/n309/include/core_feature_base.h:1460
20000b5c:	567d                	li	a2,-1
20000b5e:	c310                	sw	a2,0(a4)
SysTimer_SetCompareValue():
/jenkins/node-gerritverify/workspace/gerrit_review_verification/.workspace/bsp/arch/riscv/n309/include/core_feature_timer.h:189
20000b60:	00470613          	addi	a2,a4,4 # 2005004 <__HEAP_SIZE+0x2000004>
__SW():
/jenkins/node-gerritverify/workspace/gerrit_review_verification/.workspace/bsp/arch/riscv/n309/include/core_feature_base.h:1460
20000b64:	c21c                	sw	a5,0(a2)
20000b66:	c314                	sw	a3,0(a4)
/jenkins/node-gerritverify/workspace/gerrit_review_verification/.workspace/bsp/arch/riscv/n309/include/core_feature_base.h:1461
20000b68:	b58d                	j	200009ca <vPortSetupTimerInterrupt+0x5c>
__ECLIC_SetLevelIRQ():
/jenkins/node-gerritverify/workspace/gerrit_review_verification/.workspace/bsp/arch/riscv/n309/include/core_feature_eclic.h:596
20000b6a:	86b2                	mv	a3,a2
20000b6c:	bf71                	j	20000b08 <vPortSetupTimerInterrupt+0x19a>
20000b6e:	86b2                	mv	a3,a2
20000b70:	bf19                	j	20000a86 <vPortSetupTimerInterrupt+0x118>
SysTick_Config():
/jenkins/node-gerritverify/workspace/gerrit_review_verification/.workspace/bsp/arch/riscv/n309/include/core_feature_eclic.h:596
20000b72:	86b2                	mv	a3,a2
20000b74:	bd41                	j	20000a04 <vPortSetupTimerInterrupt+0x96>

20000b76 <xPortStartScheduler>:
xPortStartScheduler():
/jenkins/node-gerritverify/workspace/gerrit_review_verification/.workspace/bsp/arch/riscv/n309/os_portable/freertos/port.c:332
20000b76:	1101                	addi	sp,sp,-32
__ECLIC_GetCfgNlbits():
/jenkins/node-gerritverify/workspace/gerrit_review_verification/.workspace/bsp/arch/riscv/n309/include/core_feature_eclic.h:278
20000b78:	0c000737          	lui	a4,0xc000
xPortStartScheduler():
/jenkins/node-gerritverify/workspace/gerrit_review_verification/.workspace/bsp/arch/riscv/n309/os_portable/freertos/port.c:332
20000b7c:	ce06                	sw	ra,28(sp)
20000b7e:	cc22                	sw	s0,24(sp)
20000b80:	ca26                	sw	s1,20(sp)
__ECLIC_GetCfgNlbits():
/jenkins/node-gerritverify/workspace/gerrit_review_verification/.workspace/bsp/arch/riscv/n309/include/core_feature_eclic.h:278
20000b82:	00074783          	lbu	a5,0(a4) # c000000 <__HEAP_SIZE+0xbffb000>
__ECLIC_GetInfoCtlbits():
/jenkins/node-gerritverify/workspace/gerrit_review_verification/.workspace/bsp/arch/riscv/n309/include/core_feature_eclic.h:311
20000b86:	4358                	lw	a4,4(a4)
__ECLIC_GetCfgNlbits():
/jenkins/node-gerritverify/workspace/gerrit_review_verification/.workspace/bsp/arch/riscv/n309/include/core_feature_eclic.h:278
20000b88:	8385                	srli	a5,a5,0x1
__ECLIC_GetInfoCtlbits():
/jenkins/node-gerritverify/workspace/gerrit_review_verification/.workspace/bsp/arch/riscv/n309/include/core_feature_eclic.h:311
20000b8a:	8355                	srli	a4,a4,0x15
__ECLIC_GetCfgNlbits():
/jenkins/node-gerritverify/workspace/gerrit_review_verification/.workspace/bsp/arch/riscv/n309/include/core_feature_eclic.h:278
20000b8c:	8bbd                	andi	a5,a5,15
20000b8e:	00f77613          	andi	a2,a4,15
20000b92:	86be                	mv	a3,a5
20000b94:	00f67363          	bgeu	a2,a5,20000b9a <xPortStartScheduler+0x24>
20000b98:	86b2                	mv	a3,a2
prvCalcMaxSysCallMTH():
/jenkins/node-gerritverify/workspace/gerrit_review_verification/.workspace/bsp/arch/riscv/n309/os_portable/freertos/port.c:318
20000b9a:	4785                	li	a5,1
20000b9c:	00d797b3          	sll	a5,a5,a3
20000ba0:	17fd                	addi	a5,a5,-1
/jenkins/node-gerritverify/workspace/gerrit_review_verification/.workspace/bsp/arch/riscv/n309/os_portable/freertos/port.c:316
20000ba2:	4721                	li	a4,8
20000ba4:	8f15                	sub	a4,a4,a3
xPortStartScheduler():
/jenkins/node-gerritverify/workspace/gerrit_review_verification/.workspace/bsp/arch/riscv/n309/os_portable/freertos/port.c:337
20000ba6:	900004b7          	lui	s1,0x90000
prvCalcMaxSysCallMTH():
/jenkins/node-gerritverify/workspace/gerrit_review_verification/.workspace/bsp/arch/riscv/n309/os_portable/freertos/port.c:323
20000baa:	0ff7f613          	zext.b	a2,a5
20000bae:	469d                	li	a3,7
20000bb0:	0ff77713          	zext.b	a4,a4
xPortStartScheduler():
/jenkins/node-gerritverify/workspace/gerrit_review_verification/.workspace/bsp/arch/riscv/n309/os_portable/freertos/port.c:337
20000bb4:	06448493          	addi	s1,s1,100 # 90000064 <_sp+0xffff0064>
prvCalcMaxSysCallMTH():
/jenkins/node-gerritverify/workspace/gerrit_review_verification/.workspace/bsp/arch/riscv/n309/os_portable/freertos/port.c:323
20000bb8:	00c6f363          	bgeu	a3,a2,20000bbe <xPortStartScheduler+0x48>
20000bbc:	479d                	li	a5,7
20000bbe:	4685                	li	a3,1
20000bc0:	00e696b3          	sll	a3,a3,a4
20000bc4:	0ff7f793          	zext.b	a5,a5
20000bc8:	00e797b3          	sll	a5,a5,a4
20000bcc:	fff68713          	addi	a4,a3,-1
20000bd0:	8fd9                	or	a5,a5,a4
xPortStartScheduler():
/jenkins/node-gerritverify/workspace/gerrit_review_verification/.workspace/bsp/arch/riscv/n309/os_portable/freertos/port.c:337
20000bd2:	00f48023          	sb	a5,0(s1)
__ECLIC_GetCfgNlbits():
/jenkins/node-gerritverify/workspace/gerrit_review_verification/.workspace/bsp/arch/riscv/n309/include/core_feature_eclic.h:278
20000bd6:	0c000737          	lui	a4,0xc000
20000bda:	00074783          	lbu	a5,0(a4) # c000000 <__HEAP_SIZE+0xbffb000>
__ECLIC_GetInfoCtlbits():
/jenkins/node-gerritverify/workspace/gerrit_review_verification/.workspace/bsp/arch/riscv/n309/include/core_feature_eclic.h:311
20000bde:	4358                	lw	a4,4(a4)
__ECLIC_GetCfgNlbits():
/jenkins/node-gerritverify/workspace/gerrit_review_verification/.workspace/bsp/arch/riscv/n309/include/core_feature_eclic.h:278
20000be0:	8385                	srli	a5,a5,0x1
__ECLIC_GetInfoCtlbits():
/jenkins/node-gerritverify/workspace/gerrit_review_verification/.workspace/bsp/arch/riscv/n309/include/core_feature_eclic.h:311
20000be2:	8355                	srli	a4,a4,0x15
__ECLIC_GetCfgNlbits():
/jenkins/node-gerritverify/workspace/gerrit_review_verification/.workspace/bsp/arch/riscv/n309/include/core_feature_eclic.h:278
20000be4:	8bbd                	andi	a5,a5,15
prvCheckMaxSysCallPrio():
/jenkins/node-gerritverify/workspace/gerrit_review_verification/.workspace/bsp/arch/riscv/n309/os_portable/freertos/port.c:295
20000be6:	00f77593          	andi	a1,a4,15
xPortStartScheduler():
/jenkins/node-gerritverify/workspace/gerrit_review_verification/.workspace/bsp/arch/riscv/n309/os_portable/freertos/port.c:344
20000bea:	90008637          	lui	a2,0x90008
prvCheckMaxSysCallPrio():
/jenkins/node-gerritverify/workspace/gerrit_review_verification/.workspace/bsp/arch/riscv/n309/os_portable/freertos/port.c:295
20000bee:	86be                	mv	a3,a5
20000bf0:	00f5f363          	bgeu	a1,a5,20000bf6 <xPortStartScheduler+0x80>
20000bf4:	86ae                	mv	a3,a1
20000bf6:	4785                	li	a5,1
20000bf8:	00d797b3          	sll	a5,a5,a3
20000bfc:	17fd                	addi	a5,a5,-1
xPortStartScheduler():
/jenkins/node-gerritverify/workspace/gerrit_review_verification/.workspace/bsp/arch/riscv/n309/os_portable/freertos/port.c:344
20000bfe:	0ff7f693          	zext.b	a3,a5
20000c02:	471d                	li	a4,7
20000c04:	00d77363          	bgeu	a4,a3,20000c0a <xPortStartScheduler+0x94>
20000c08:	479d                	li	a5,7
20000c0a:	16f60423          	sb	a5,360(a2) # 90008168 <_sp+0xffff8168>
__disable_irq():
/jenkins/node-gerritverify/workspace/gerrit_review_verification/.workspace/bsp/arch/riscv/n309/include/core_feature_base.h:599
20000c0e:	30047073          	csrci	mstatus,8
xPortStartScheduler():
/jenkins/node-gerritverify/workspace/gerrit_review_verification/.workspace/bsp/arch/riscv/n309/os_portable/freertos/port.c:357
20000c12:	90000437          	lui	s0,0x90000
/jenkins/node-gerritverify/workspace/gerrit_review_verification/.workspace/bsp/arch/riscv/n309/os_portable/freertos/port.c:354
20000c16:	3ba1                	jal	2000096e <vPortSetupTimerInterrupt>
/jenkins/node-gerritverify/workspace/gerrit_review_verification/.workspace/bsp/arch/riscv/n309/os_portable/freertos/port.c:358
20000c18:	900087b7          	lui	a5,0x90008
20000c1c:	4705                	li	a4,1
/jenkins/node-gerritverify/workspace/gerrit_review_verification/.workspace/bsp/arch/riscv/n309/os_portable/freertos/port.c:357
20000c1e:	06040413          	addi	s0,s0,96 # 90000060 <_sp+0xffff0060>
/jenkins/node-gerritverify/workspace/gerrit_review_verification/.workspace/bsp/arch/riscv/n309/os_portable/freertos/port.c:358
20000c22:	16e78823          	sb	a4,368(a5) # 90008170 <_sp+0xffff8170>
/jenkins/node-gerritverify/workspace/gerrit_review_verification/.workspace/bsp/arch/riscv/n309/os_portable/freertos/port.c:357
20000c26:	00042023          	sw	zero,0(s0)
/jenkins/node-gerritverify/workspace/gerrit_review_verification/.workspace/bsp/arch/riscv/n309/os_portable/freertos/port.c:361
20000c2a:	3ad9                	jal	20000600 <prvPortStartFirstTask>
/jenkins/node-gerritverify/workspace/gerrit_review_verification/.workspace/bsp/arch/riscv/n309/os_portable/freertos/port.c:369
20000c2c:	6e7000ef          	jal	ra,20001b12 <vTaskSwitchContext>
prvTaskExitError():
/jenkins/node-gerritverify/workspace/gerrit_review_verification/.workspace/bsp/arch/riscv/n309/os_portable/freertos/port.c:267
20000c30:	4018                	lw	a4,0(s0)
/jenkins/node-gerritverify/workspace/gerrit_review_verification/.workspace/bsp/arch/riscv/n309/os_portable/freertos/port.c:259
20000c32:	c602                	sw	zero,12(sp)
/jenkins/node-gerritverify/workspace/gerrit_review_verification/.workspace/bsp/arch/riscv/n309/os_portable/freertos/port.c:267
20000c34:	57fd                	li	a5,-1
20000c36:	00f70b63          	beq	a4,a5,20000c4c <xPortStartScheduler+0xd6>
vPortRaiseBASEPRI():
/jenkins/node-gerritverify/workspace/gerrit_review_verification/.workspace/bsp/arch/riscv/n309/os_portable/freertos/portmacro.h:171
20000c3a:	0004c703          	lbu	a4,0(s1)
__ECLIC_SetMth():
/jenkins/node-gerritverify/workspace/gerrit_review_verification/.workspace/bsp/arch/riscv/n309/include/core_feature_eclic.h:340
20000c3e:	0c0007b7          	lui	a5,0xc000
20000c42:	00e785a3          	sb	a4,11(a5) # c00000b <__HEAP_SIZE+0xbffb00b>
vPortRaiseBASEPRI():
/jenkins/node-gerritverify/workspace/gerrit_review_verification/.workspace/bsp/arch/riscv/n309/os_portable/freertos/portmacro.h:172
20000c46:	0ff0000f          	fence
prvTaskExitError():
/jenkins/node-gerritverify/workspace/gerrit_review_verification/.workspace/bsp/arch/riscv/n309/os_portable/freertos/port.c:267
20000c4a:	a001                	j	20000c4a <xPortStartScheduler+0xd4>
vPortRaiseBASEPRI():
/jenkins/node-gerritverify/workspace/gerrit_review_verification/.workspace/bsp/arch/riscv/n309/os_portable/freertos/portmacro.h:171
20000c4c:	0004c703          	lbu	a4,0(s1)
__ECLIC_SetMth():
/jenkins/node-gerritverify/workspace/gerrit_review_verification/.workspace/bsp/arch/riscv/n309/include/core_feature_eclic.h:340
20000c50:	0c0007b7          	lui	a5,0xc000
20000c54:	00e785a3          	sb	a4,11(a5) # c00000b <__HEAP_SIZE+0xbffb00b>
vPortRaiseBASEPRI():
/jenkins/node-gerritverify/workspace/gerrit_review_verification/.workspace/bsp/arch/riscv/n309/os_portable/freertos/portmacro.h:172
20000c58:	0ff0000f          	fence
prvTaskExitError():
/jenkins/node-gerritverify/workspace/gerrit_review_verification/.workspace/bsp/arch/riscv/n309/os_portable/freertos/port.c:269
20000c5c:	47b2                	lw	a5,12(sp)
20000c5e:	e799                	bnez	a5,20000c6c <xPortStartScheduler+0xf6>
__WFI():
/jenkins/node-gerritverify/workspace/gerrit_review_verification/.workspace/bsp/arch/riscv/n309/include/core_feature_base.h:719
20000c60:	8100f073          	csrci	wfe,1
/jenkins/node-gerritverify/workspace/gerrit_review_verification/.workspace/bsp/arch/riscv/n309/include/core_feature_base.h:720
20000c64:	10500073          	wfi
prvTaskExitError():
/jenkins/node-gerritverify/workspace/gerrit_review_verification/.workspace/bsp/arch/riscv/n309/os_portable/freertos/port.c:269
20000c68:	47b2                	lw	a5,12(sp)
20000c6a:	dbfd                	beqz	a5,20000c60 <xPortStartScheduler+0xea>
xPortStartScheduler():
/jenkins/node-gerritverify/workspace/gerrit_review_verification/.workspace/bsp/arch/riscv/n309/os_portable/freertos/port.c:374
20000c6c:	40f2                	lw	ra,28(sp)
20000c6e:	4462                	lw	s0,24(sp)
20000c70:	44d2                	lw	s1,20(sp)
20000c72:	4501                	li	a0,0
20000c74:	6105                	addi	sp,sp,32
20000c76:	8082                	ret

20000c78 <vPortValidateInterruptPriority>:
vPortValidateInterruptPriority():
/jenkins/node-gerritverify/workspace/gerrit_review_verification/.workspace/bsp/arch/riscv/n309/os_portable/freertos/port.c:689
20000c78:	342027f3          	csrr	a5,mcause
/jenkins/node-gerritverify/workspace/gerrit_review_verification/.workspace/bsp/arch/riscv/n309/os_portable/freertos/port.c:691
20000c7c:	0007cd63          	bltz	a5,20000c96 <vPortValidateInterruptPriority+0x1e>
vPortRaiseBASEPRI():
/jenkins/node-gerritverify/workspace/gerrit_review_verification/.workspace/bsp/arch/riscv/n309/os_portable/freertos/portmacro.h:171
20000c80:	900007b7          	lui	a5,0x90000
20000c84:	0647c703          	lbu	a4,100(a5) # 90000064 <_sp+0xffff0064>
__ECLIC_SetMth():
/jenkins/node-gerritverify/workspace/gerrit_review_verification/.workspace/bsp/arch/riscv/n309/include/core_feature_eclic.h:340
20000c88:	0c0007b7          	lui	a5,0xc000
20000c8c:	00e785a3          	sb	a4,11(a5) # c00000b <__HEAP_SIZE+0xbffb00b>
vPortRaiseBASEPRI():
/jenkins/node-gerritverify/workspace/gerrit_review_verification/.workspace/bsp/arch/riscv/n309/os_portable/freertos/portmacro.h:172
20000c90:	0ff0000f          	fence
vPortValidateInterruptPriority():
/jenkins/node-gerritverify/workspace/gerrit_review_verification/.workspace/bsp/arch/riscv/n309/os_portable/freertos/port.c:691 (discriminator 1)
20000c94:	a001                	j	20000c94 <vPortValidateInterruptPriority+0x1c>
/jenkins/node-gerritverify/workspace/gerrit_review_verification/.workspace/bsp/arch/riscv/n309/os_portable/freertos/port.c:693
20000c96:	07d2                	slli	a5,a5,0x14
20000c98:	83d1                	srli	a5,a5,0x14
/jenkins/node-gerritverify/workspace/gerrit_review_verification/.workspace/bsp/arch/riscv/n309/os_portable/freertos/port.c:695
20000c9a:	4745                	li	a4,17
20000c9c:	06f77463          	bgeu	a4,a5,20000d04 <vPortValidateInterruptPriority+0x8c>
__ECLIC_GetCfgNlbits():
/jenkins/node-gerritverify/workspace/gerrit_review_verification/.workspace/bsp/arch/riscv/n309/include/core_feature_eclic.h:278
20000ca0:	0c000637          	lui	a2,0xc000
20000ca4:	00064703          	lbu	a4,0(a2) # c000000 <__HEAP_SIZE+0xbffb000>
__ECLIC_GetInfoCtlbits():
/jenkins/node-gerritverify/workspace/gerrit_review_verification/.workspace/bsp/arch/riscv/n309/include/core_feature_eclic.h:311
20000ca8:	4254                	lw	a3,4(a2)
__ECLIC_GetCfgNlbits():
/jenkins/node-gerritverify/workspace/gerrit_review_verification/.workspace/bsp/arch/riscv/n309/include/core_feature_eclic.h:278
20000caa:	8305                	srli	a4,a4,0x1
20000cac:	8b3d                	andi	a4,a4,15
__ECLIC_GetLevelIRQ():
/jenkins/node-gerritverify/workspace/gerrit_review_verification/.workspace/bsp/arch/riscv/n309/include/core_feature_eclic.h:623
20000cae:	cb39                	beqz	a4,20000d04 <vPortValidateInterruptPriority+0x8c>
__ECLIC_GetCtrlIRQ():
/jenkins/node-gerritverify/workspace/gerrit_review_verification/.workspace/bsp/arch/riscv/n309/include/core_feature_eclic.h:566
20000cb0:	40078793          	addi	a5,a5,1024
20000cb4:	078a                	slli	a5,a5,0x2
20000cb6:	97b2                	add	a5,a5,a2
20000cb8:	0037c783          	lbu	a5,3(a5)
__ECLIC_GetInfoCtlbits():
/jenkins/node-gerritverify/workspace/gerrit_review_verification/.workspace/bsp/arch/riscv/n309/include/core_feature_eclic.h:311
20000cbc:	82d5                	srli	a3,a3,0x15
20000cbe:	8abd                	andi	a3,a3,15
vPortValidateInterruptPriority():
/jenkins/node-gerritverify/workspace/gerrit_review_verification/.workspace/bsp/arch/riscv/n309/os_portable/freertos/port.c:720
20000cc0:	900085b7          	lui	a1,0x90008
__ECLIC_GetLevelIRQ():
/jenkins/node-gerritverify/workspace/gerrit_review_verification/.workspace/bsp/arch/riscv/n309/include/core_feature_eclic.h:620
20000cc4:	0ff77513          	zext.b	a0,a4
__ECLIC_GetCtrlIRQ():
/jenkins/node-gerritverify/workspace/gerrit_review_verification/.workspace/bsp/arch/riscv/n309/include/core_feature_eclic.h:566
20000cc8:	0ff7f793          	zext.b	a5,a5
__ECLIC_GetLevelIRQ():
/jenkins/node-gerritverify/workspace/gerrit_review_verification/.workspace/bsp/arch/riscv/n309/include/core_feature_eclic.h:631
20000ccc:	0ff6f613          	zext.b	a2,a3
20000cd0:	00d77463          	bgeu	a4,a3,20000cd8 <vPortValidateInterruptPriority+0x60>
20000cd4:	0ff57613          	zext.b	a2,a0
20000cd8:	4721                	li	a4,8
20000cda:	40c70633          	sub	a2,a4,a2
20000cde:	40c7d7b3          	sra	a5,a5,a2
vPortValidateInterruptPriority():
/jenkins/node-gerritverify/workspace/gerrit_review_verification/.workspace/bsp/arch/riscv/n309/os_portable/freertos/port.c:720
20000ce2:	1685c703          	lbu	a4,360(a1) # 90008168 <_sp+0xffff8168>
20000ce6:	0ff7f793          	zext.b	a5,a5
20000cea:	00f77d63          	bgeu	a4,a5,20000d04 <vPortValidateInterruptPriority+0x8c>
vPortRaiseBASEPRI():
/jenkins/node-gerritverify/workspace/gerrit_review_verification/.workspace/bsp/arch/riscv/n309/os_portable/freertos/portmacro.h:171
20000cee:	900007b7          	lui	a5,0x90000
20000cf2:	0647c703          	lbu	a4,100(a5) # 90000064 <_sp+0xffff0064>
__ECLIC_SetMth():
/jenkins/node-gerritverify/workspace/gerrit_review_verification/.workspace/bsp/arch/riscv/n309/include/core_feature_eclic.h:340
20000cf6:	0c0007b7          	lui	a5,0xc000
20000cfa:	00e785a3          	sb	a4,11(a5) # c00000b <__HEAP_SIZE+0xbffb00b>
vPortRaiseBASEPRI():
/jenkins/node-gerritverify/workspace/gerrit_review_verification/.workspace/bsp/arch/riscv/n309/os_portable/freertos/portmacro.h:172
20000cfe:	0ff0000f          	fence
vPortValidateInterruptPriority():
/jenkins/node-gerritverify/workspace/gerrit_review_verification/.workspace/bsp/arch/riscv/n309/os_portable/freertos/port.c:720 (discriminator 2)
20000d02:	a001                	j	20000d02 <vPortValidateInterruptPriority+0x8a>
/jenkins/node-gerritverify/workspace/gerrit_review_verification/.workspace/bsp/arch/riscv/n309/os_portable/freertos/port.c:723
20000d04:	8082                	ret

20000d06 <vApplicationStackOverflowHook>:
vApplicationStackOverflowHook():
/jenkins/node-gerritverify/workspace/gerrit_review_verification/.workspace/bsp/arch/riscv/n309/os_portable/freertos/port.c:745
20000d06:	20005537          	lui	a0,0x20005
20000d0a:	94850513          	addi	a0,a0,-1720 # 20004948 <_global_impure_ptr+0x58>
20000d0e:	3b70206f          	j	200038c4 <iprintf>

20000d12 <vApplicationGetIdleTaskMemory>:
vApplicationGetIdleTaskMemory():
/jenkins/node-gerritverify/workspace/gerrit_review_verification/.workspace/bsp/arch/riscv/n309/os_portable/freertos/port.c:776
20000d12:	900007b7          	lui	a5,0x90000
20000d16:	07878793          	addi	a5,a5,120 # 90000078 <_sp+0xffff0078>
20000d1a:	c11c                	sw	a5,0(a0)
/jenkins/node-gerritverify/workspace/gerrit_review_verification/.workspace/bsp/arch/riscv/n309/os_portable/freertos/port.c:777
20000d1c:	07478793          	addi	a5,a5,116
20000d20:	c19c                	sw	a5,0(a1)
/jenkins/node-gerritverify/workspace/gerrit_review_verification/.workspace/bsp/arch/riscv/n309/os_portable/freertos/port.c:778
20000d22:	10000793          	li	a5,256
20000d26:	c21c                	sw	a5,0(a2)
/jenkins/node-gerritverify/workspace/gerrit_review_verification/.workspace/bsp/arch/riscv/n309/os_portable/freertos/port.c:779
20000d28:	8082                	ret

20000d2a <vApplicationGetTimerTaskMemory>:
vApplicationGetTimerTaskMemory():
/jenkins/node-gerritverify/workspace/gerrit_review_verification/.workspace/bsp/arch/riscv/n309/os_portable/freertos/port.c:791
20000d2a:	900007b7          	lui	a5,0x90000
20000d2e:	07878793          	addi	a5,a5,120 # 90000078 <_sp+0xffff0078>
20000d32:	47478713          	addi	a4,a5,1140
20000d36:	c118                	sw	a4,0(a0)
/jenkins/node-gerritverify/workspace/gerrit_review_verification/.workspace/bsp/arch/riscv/n309/os_portable/freertos/port.c:792
20000d38:	4e878793          	addi	a5,a5,1256
20000d3c:	c19c                	sw	a5,0(a1)
/jenkins/node-gerritverify/workspace/gerrit_review_verification/.workspace/bsp/arch/riscv/n309/os_portable/freertos/port.c:793
20000d3e:	10000793          	li	a5,256
20000d42:	c21c                	sw	a5,0(a2)
/jenkins/node-gerritverify/workspace/gerrit_review_verification/.workspace/bsp/arch/riscv/n309/os_portable/freertos/port.c:794
20000d44:	8082                	ret

20000d46 <soc_init>:
soc_init():
/jenkins/node-gerritverify/workspace/gerrit_review_verification/.workspace/bsp/soc/pegasus/source/qemu/soc_init.c:14
20000d46:	4501                	li	a0,0
20000d48:	8082                	ret

20000d4a <bsp_rtc_clock_get_freq>:
bsp_rtc_clock_get_freq():
/jenkins/node-gerritverify/workspace/gerrit_review_verification/.workspace/bsp/soc/pegasus/source/soc_sysctl.c:39
20000d4a:	1101                	addi	sp,sp,-32
/jenkins/node-gerritverify/workspace/gerrit_review_verification/.workspace/bsp/soc/pegasus/source/soc_sysctl.c:41
20000d4c:	006c                	addi	a1,sp,12
/jenkins/node-gerritverify/workspace/gerrit_review_verification/.workspace/bsp/soc/pegasus/source/soc_sysctl.c:40
20000d4e:	67a1                	lui	a5,0x8
/jenkins/node-gerritverify/workspace/gerrit_review_verification/.workspace/bsp/soc/pegasus/source/soc_sysctl.c:41
20000d50:	02000513          	li	a0,32
/jenkins/node-gerritverify/workspace/gerrit_review_verification/.workspace/bsp/soc/pegasus/source/soc_sysctl.c:39
20000d54:	ce06                	sw	ra,28(sp)
/jenkins/node-gerritverify/workspace/gerrit_review_verification/.workspace/bsp/soc/pegasus/source/soc_sysctl.c:40
20000d56:	c63e                	sw	a5,12(sp)
/jenkins/node-gerritverify/workspace/gerrit_review_verification/.workspace/bsp/soc/pegasus/source/soc_sysctl.c:41
20000d58:	28d9                	jal	20000e2e <clk_get_rate>
/jenkins/node-gerritverify/workspace/gerrit_review_verification/.workspace/bsp/soc/pegasus/source/soc_sysctl.c:43
20000d5a:	40f2                	lw	ra,28(sp)
20000d5c:	4532                	lw	a0,12(sp)
20000d5e:	6105                	addi	sp,sp,32
20000d60:	8082                	ret

20000d62 <bsp_init>:
bsp_init():
/jenkins/node-gerritverify/workspace/gerrit_review_verification/.workspace/bsp/soc/pegasus/source/soc_sysctl.c:341
20000d62:	8082                	ret

20000d64 <system_default_exception_handler>:
system_default_exception_handler():
/jenkins/node-gerritverify/workspace/gerrit_review_verification/.workspace/bsp/soc/pegasus/source/system_pegasus.c:54
20000d64:	85aa                	mv	a1,a0
/jenkins/node-gerritverify/workspace/gerrit_review_verification/.workspace/bsp/soc/pegasus/source/system_pegasus.c:55
20000d66:	20005537          	lui	a0,0x20005
/jenkins/node-gerritverify/workspace/gerrit_review_verification/.workspace/bsp/soc/pegasus/source/system_pegasus.c:54
20000d6a:	1141                	addi	sp,sp,-16
/jenkins/node-gerritverify/workspace/gerrit_review_verification/.workspace/bsp/soc/pegasus/source/system_pegasus.c:55
20000d6c:	96850513          	addi	a0,a0,-1688 # 20004968 <_global_impure_ptr+0x78>
/jenkins/node-gerritverify/workspace/gerrit_review_verification/.workspace/bsp/soc/pegasus/source/system_pegasus.c:54
20000d70:	c606                	sw	ra,12(sp)
/jenkins/node-gerritverify/workspace/gerrit_review_verification/.workspace/bsp/soc/pegasus/source/system_pegasus.c:55
20000d72:	353020ef          	jal	ra,200038c4 <iprintf>
/jenkins/node-gerritverify/workspace/gerrit_review_verification/.workspace/bsp/soc/pegasus/source/system_pegasus.c:56 (discriminator 1)
20000d76:	a001                	j	20000d76 <system_default_exception_handler+0x12>

20000d78 <premain_system_init>:
premain_system_init():
/jenkins/node-gerritverify/workspace/gerrit_review_verification/.workspace/bsp/soc/pegasus/source/system_pegasus.c:27
20000d78:	8082                	ret

20000d7a <core_exception_handler>:
core_exception_handler():
/jenkins/node-gerritverify/workspace/gerrit_review_verification/.workspace/bsp/soc/pegasus/source/system_pegasus.c:96
20000d7a:	6785                	lui	a5,0x1
20000d7c:	17fd                	addi	a5,a5,-1
20000d7e:	00f57733          	and	a4,a0,a5
/jenkins/node-gerritverify/workspace/gerrit_review_verification/.workspace/bsp/soc/pegasus/source/system_pegasus.c:98
20000d82:	46ad                	li	a3,11
20000d84:	02e6e163          	bltu	a3,a4,20000da6 <core_exception_handler+0x2c>
/jenkins/node-gerritverify/workspace/gerrit_review_verification/.workspace/bsp/soc/pegasus/source/system_pegasus.c:99
20000d88:	900087b7          	lui	a5,0x90008
20000d8c:	21078793          	addi	a5,a5,528 # 90008210 <_sp+0xffff8210>
20000d90:	070a                	slli	a4,a4,0x2
20000d92:	973e                	add	a4,a4,a5
20000d94:	431c                	lw	a5,0(a4)
/jenkins/node-gerritverify/workspace/gerrit_review_verification/.workspace/bsp/soc/pegasus/source/system_pegasus.c:105
20000d96:	c78d                	beqz	a5,20000dc0 <core_exception_handler+0x46>
/jenkins/node-gerritverify/workspace/gerrit_review_verification/.workspace/bsp/soc/pegasus/source/system_pegasus.c:95
20000d98:	1141                	addi	sp,sp,-16
20000d9a:	c606                	sw	ra,12(sp)
/jenkins/node-gerritverify/workspace/gerrit_review_verification/.workspace/bsp/soc/pegasus/source/system_pegasus.c:106
20000d9c:	9782                	jalr	a5
/jenkins/node-gerritverify/workspace/gerrit_review_verification/.workspace/bsp/soc/pegasus/source/system_pegasus.c:110
20000d9e:	40b2                	lw	ra,12(sp)
20000da0:	4501                	li	a0,0
20000da2:	0141                	addi	sp,sp,16
20000da4:	8082                	ret
/jenkins/node-gerritverify/workspace/gerrit_review_verification/.workspace/bsp/soc/pegasus/source/system_pegasus.c:100
20000da6:	00f70f63          	beq	a4,a5,20000dc4 <core_exception_handler+0x4a>
/jenkins/node-gerritverify/workspace/gerrit_review_verification/.workspace/bsp/soc/pegasus/source/system_pegasus.c:95
20000daa:	1141                	addi	sp,sp,-16
/jenkins/node-gerritverify/workspace/gerrit_review_verification/.workspace/bsp/soc/pegasus/source/system_pegasus.c:103
20000dac:	200017b7          	lui	a5,0x20001
/jenkins/node-gerritverify/workspace/gerrit_review_verification/.workspace/bsp/soc/pegasus/source/system_pegasus.c:95
20000db0:	c606                	sw	ra,12(sp)
/jenkins/node-gerritverify/workspace/gerrit_review_verification/.workspace/bsp/soc/pegasus/source/system_pegasus.c:103
20000db2:	d6478793          	addi	a5,a5,-668 # 20000d64 <system_default_exception_handler>
/jenkins/node-gerritverify/workspace/gerrit_review_verification/.workspace/bsp/soc/pegasus/source/system_pegasus.c:106
20000db6:	9782                	jalr	a5
/jenkins/node-gerritverify/workspace/gerrit_review_verification/.workspace/bsp/soc/pegasus/source/system_pegasus.c:110
20000db8:	40b2                	lw	ra,12(sp)
20000dba:	4501                	li	a0,0
20000dbc:	0141                	addi	sp,sp,16
20000dbe:	8082                	ret
20000dc0:	4501                	li	a0,0
20000dc2:	8082                	ret
/jenkins/node-gerritverify/workspace/gerrit_review_verification/.workspace/bsp/soc/pegasus/source/system_pegasus.c:101
20000dc4:	900087b7          	lui	a5,0x90008
20000dc8:	2407a783          	lw	a5,576(a5) # 90008240 <_sp+0xffff8240>
/jenkins/node-gerritverify/workspace/gerrit_review_verification/.workspace/bsp/soc/pegasus/source/system_pegasus.c:105
20000dcc:	f7f1                	bnez	a5,20000d98 <core_exception_handler+0x1e>
20000dce:	bfcd                	j	20000dc0 <core_exception_handler+0x46>

20000dd0 <_premain_init>:
EnableICache():
/jenkins/node-gerritverify/workspace/gerrit_review_verification/.workspace/bsp/arch/riscv/n309/include/core_feature_cache.h:178
20000dd0:	7ca0e073          	csrsi	mcache_ctl,1
EnableDCache():
/jenkins/node-gerritverify/workspace/gerrit_review_verification/.workspace/bsp/arch/riscv/n309/include/core_feature_cache.h:642
20000dd4:	67c1                	lui	a5,0x10
20000dd6:	7ca7a073          	csrs	mcache_ctl,a5
_premain_init():
/jenkins/node-gerritverify/workspace/gerrit_review_verification/.workspace/bsp/soc/pegasus/source/system_pegasus.c:145
20000dda:	0ff0000f          	fence
__FENCE_I():
/jenkins/node-gerritverify/workspace/gerrit_review_verification/.workspace/bsp/arch/riscv/n309/include/core_feature_base.h:1346
20000dde:	0000100f          	fence.i
system_exception_init():
/jenkins/node-gerritverify/workspace/gerrit_review_verification/.workspace/bsp/soc/pegasus/source/system_pegasus.c:70
20000de2:	900087b7          	lui	a5,0x90008
20000de6:	21078793          	addi	a5,a5,528 # 90008210 <_sp+0xffff8210>
20000dea:	20001737          	lui	a4,0x20001
20000dee:	03478693          	addi	a3,a5,52
20000df2:	d6470713          	addi	a4,a4,-668 # 20000d64 <system_default_exception_handler>
/jenkins/node-gerritverify/workspace/gerrit_review_verification/.workspace/bsp/soc/pegasus/source/system_pegasus.c:71
20000df6:	c398                	sw	a4,0(a5)
/jenkins/node-gerritverify/workspace/gerrit_review_verification/.workspace/bsp/soc/pegasus/source/system_pegasus.c:70
20000df8:	0791                	addi	a5,a5,4
20000dfa:	fed79ee3          	bne	a5,a3,20000df6 <_premain_init+0x26>
__ECLIC_SetMth():
/jenkins/node-gerritverify/workspace/gerrit_review_verification/.workspace/bsp/arch/riscv/n309/include/core_feature_eclic.h:340
20000dfe:	0c000737          	lui	a4,0xc000
20000e02:	000705a3          	sb	zero,11(a4) # c00000b <__HEAP_SIZE+0xbffb00b>
__ECLIC_GetInfoCtlbits():
/jenkins/node-gerritverify/workspace/gerrit_review_verification/.workspace/bsp/arch/riscv/n309/include/core_feature_eclic.h:311
20000e06:	435c                	lw	a5,4(a4)
__ECLIC_SetCfgNlbits():
/jenkins/node-gerritverify/workspace/gerrit_review_verification/.workspace/bsp/arch/riscv/n309/include/core_feature_eclic.h:262
20000e08:	00074683          	lbu	a3,0(a4)
__ECLIC_GetInfoCtlbits():
/jenkins/node-gerritverify/workspace/gerrit_review_verification/.workspace/bsp/arch/riscv/n309/include/core_feature_eclic.h:311
20000e0c:	83d1                	srli	a5,a5,0x14
__ECLIC_SetCfgNlbits():
/jenkins/node-gerritverify/workspace/gerrit_review_verification/.workspace/bsp/arch/riscv/n309/include/core_feature_eclic.h:262
20000e0e:	0e16f693          	andi	a3,a3,225
20000e12:	00d70023          	sb	a3,0(a4)
/jenkins/node-gerritverify/workspace/gerrit_review_verification/.workspace/bsp/arch/riscv/n309/include/core_feature_eclic.h:263
20000e16:	00074683          	lbu	a3,0(a4)
20000e1a:	8bf9                	andi	a5,a5,30
20000e1c:	0ff6f693          	zext.b	a3,a3
20000e20:	8fd5                	or	a5,a5,a3
20000e22:	00f70023          	sb	a5,0(a4)
_premain_init():
/jenkins/node-gerritverify/workspace/gerrit_review_verification/.workspace/bsp/soc/pegasus/source/system_pegasus.c:152
20000e26:	8082                	ret

20000e28 <_postmain_fini>:
_postmain_fini():
/jenkins/node-gerritverify/workspace/gerrit_review_verification/.workspace/bsp/soc/pegasus/source/system_pegasus.c:166
20000e28:	8082                	ret

20000e2a <_init>:
_init():
20000e2a:	8082                	ret

20000e2c <_fini>:
_fini():
20000e2c:	8082                	ret

20000e2e <clk_get_rate>:
clk_get_rate():
/jenkins/node-gerritverify/workspace/gerrit_review_verification/.workspace/drivers/module/clock.c:152
20000e2e:	900087b7          	lui	a5,0x90008
20000e32:	1697c703          	lbu	a4,361(a5) # 90008169 <_sp+0xffff8169>
/jenkins/node-gerritverify/workspace/gerrit_review_verification/.workspace/drivers/module/clock.c:149
20000e36:	87aa                	mv	a5,a0
/jenkins/node-gerritverify/workspace/gerrit_review_verification/.workspace/drivers/module/clock.c:152
20000e38:	c305                	beqz	a4,20000e58 <clk_get_rate+0x2a>
/jenkins/node-gerritverify/workspace/gerrit_review_verification/.workspace/drivers/module/clock.c:156
20000e3a:	450d                	li	a0,3
/jenkins/node-gerritverify/workspace/gerrit_review_verification/.workspace/drivers/module/clock.c:155
20000e3c:	00e7ff63          	bgeu	a5,a4,20000e5a <clk_get_rate+0x2c>
get_clk():
/jenkins/node-gerritverify/workspace/gerrit_review_verification/.workspace/drivers/module/clock.c:23
20000e40:	90008737          	lui	a4,0x90008
clk_get_rate():
/jenkins/node-gerritverify/workspace/gerrit_review_verification/.workspace/drivers/module/clock.c:159
20000e44:	16c72703          	lw	a4,364(a4) # 9000816c <_sp+0xffff816c>
20000e48:	4561                	li	a0,24
20000e4a:	02a787b3          	mul	a5,a5,a0
20000e4e:	97ba                	add	a5,a5,a4
20000e50:	479c                	lw	a5,8(a5)
/jenkins/node-gerritverify/workspace/gerrit_review_verification/.workspace/drivers/module/clock.c:160
20000e52:	4501                	li	a0,0
/jenkins/node-gerritverify/workspace/gerrit_review_verification/.workspace/drivers/module/clock.c:159
20000e54:	c19c                	sw	a5,0(a1)
/jenkins/node-gerritverify/workspace/gerrit_review_verification/.workspace/drivers/module/clock.c:160
20000e56:	8082                	ret
/jenkins/node-gerritverify/workspace/gerrit_review_verification/.workspace/drivers/module/clock.c:153
20000e58:	4505                	li	a0,1
/jenkins/node-gerritverify/workspace/gerrit_review_verification/.workspace/drivers/module/clock.c:161
20000e5a:	8082                	ret

20000e5c <e203_uart_init>:
e203_uart_init():
/jenkins/node-gerritverify/workspace/gerrit_review_verification/.workspace/drivers/serial/e203_uart.c:13
20000e5c:	87aa                	mv	a5,a0
/jenkins/node-gerritverify/workspace/gerrit_review_verification/.workspace/drivers/serial/e203_uart.c:14
20000e5e:	c105                	beqz	a0,20000e7e <e203_uart_init+0x22>
/jenkins/node-gerritverify/workspace/gerrit_review_verification/.workspace/drivers/serial/e203_uart.c:17
20000e60:	6721                	lui	a4,0x8
20000e62:	02b755b3          	divu	a1,a4,a1
/jenkins/node-gerritverify/workspace/gerrit_review_verification/.workspace/drivers/serial/e203_uart.c:20
20000e66:	4501                	li	a0,0
/jenkins/node-gerritverify/workspace/gerrit_review_verification/.workspace/drivers/serial/e203_uart.c:17
20000e68:	15fd                	addi	a1,a1,-1
20000e6a:	cf8c                	sw	a1,24(a5)
/jenkins/node-gerritverify/workspace/gerrit_review_verification/.workspace/drivers/serial/e203_uart.c:18
20000e6c:	4798                	lw	a4,8(a5)
20000e6e:	00176713          	ori	a4,a4,1
20000e72:	c798                	sw	a4,8(a5)
/jenkins/node-gerritverify/workspace/gerrit_review_verification/.workspace/drivers/serial/e203_uart.c:19
20000e74:	47d8                	lw	a4,12(a5)
20000e76:	00176713          	ori	a4,a4,1
20000e7a:	c7d8                	sw	a4,12(a5)
/jenkins/node-gerritverify/workspace/gerrit_review_verification/.workspace/drivers/serial/e203_uart.c:20
20000e7c:	8082                	ret
/jenkins/node-gerritverify/workspace/gerrit_review_verification/.workspace/drivers/serial/e203_uart.c:15
20000e7e:	557d                	li	a0,-1
/jenkins/node-gerritverify/workspace/gerrit_review_verification/.workspace/drivers/serial/e203_uart.c:21
20000e80:	8082                	ret

20000e82 <uart_write>:
uart_write():
/jenkins/node-gerritverify/workspace/gerrit_review_verification/.workspace/drivers/serial/e203_uart.c:36
20000e82:	c519                	beqz	a0,20000e90 <uart_write+0xe>
/jenkins/node-gerritverify/workspace/gerrit_review_verification/.workspace/drivers/serial/e203_uart.c:39 (discriminator 1)
20000e84:	411c                	lw	a5,0(a0)
20000e86:	fe07cfe3          	bltz	a5,20000e84 <uart_write+0x2>
/jenkins/node-gerritverify/workspace/gerrit_review_verification/.workspace/drivers/serial/e203_uart.c:41
20000e8a:	c10c                	sw	a1,0(a0)
/jenkins/node-gerritverify/workspace/gerrit_review_verification/.workspace/drivers/serial/e203_uart.c:42
20000e8c:	4501                	li	a0,0
20000e8e:	8082                	ret
/jenkins/node-gerritverify/workspace/gerrit_review_verification/.workspace/drivers/serial/e203_uart.c:37
20000e90:	557d                	li	a0,-1
/jenkins/node-gerritverify/workspace/gerrit_review_verification/.workspace/drivers/serial/e203_uart.c:43
20000e92:	8082                	ret

20000e94 <print_inner>:
print_inner():
/jenkins/node-gerritverify/workspace/gerrit_review_verification/.workspace/modules/logging/uart_printf.c:156
20000e94:	715d                	addi	sp,sp,-80
20000e96:	833a                	mv	t1,a4
20000e98:	c4a2                	sw	s0,72(sp)
20000e9a:	c0ca                	sw	s2,64(sp)
20000e9c:	c686                	sw	ra,76(sp)
20000e9e:	c2a6                	sw	s1,68(sp)
20000ea0:	de4e                	sw	s3,60(sp)
20000ea2:	dc52                	sw	s4,56(sp)
20000ea4:	da56                	sw	s5,52(sp)
/jenkins/node-gerritverify/workspace/gerrit_review_verification/.workspace/modules/logging/uart_printf.c:161
20000ea6:	4e09                	li	t3,2
/jenkins/node-gerritverify/workspace/gerrit_review_verification/.workspace/modules/logging/uart_printf.c:156
20000ea8:	843e                	mv	s0,a5
20000eaa:	872e                	mv	a4,a1
20000eac:	87b2                	mv	a5,a2
20000eae:	85c2                	mv	a1,a6
20000eb0:	892a                	mv	s2,a0
20000eb2:	861a                	mv	a2,t1
20000eb4:	8846                	mv	a6,a7
/jenkins/node-gerritverify/workspace/gerrit_review_verification/.workspace/modules/logging/uart_printf.c:161
20000eb6:	03c68263          	beq	a3,t3,20000eda <print_inner+0x46>
/jenkins/node-gerritverify/workspace/gerrit_review_verification/.workspace/modules/logging/uart_printf.c:159
20000eba:	4481                	li	s1,0
/jenkins/node-gerritverify/workspace/gerrit_review_verification/.workspace/modules/logging/uart_printf.c:175
20000ebc:	46c6                	lw	a3,80(sp)
20000ebe:	85a2                	mv	a1,s0
20000ec0:	854a                	mv	a0,s2
20000ec2:	787030ef          	jal	ra,20004e48 <printi>
20000ec6:	9526                	add	a0,a0,s1
/jenkins/node-gerritverify/workspace/gerrit_review_verification/.workspace/modules/logging/uart_printf.c:178
20000ec8:	40b6                	lw	ra,76(sp)
20000eca:	4426                	lw	s0,72(sp)
20000ecc:	4496                	lw	s1,68(sp)
20000ece:	4906                	lw	s2,64(sp)
20000ed0:	59f2                	lw	s3,60(sp)
20000ed2:	5a62                	lw	s4,56(sp)
20000ed4:	5ad2                	lw	s5,52(sp)
20000ed6:	6161                	addi	sp,sp,80
20000ed8:	8082                	ret
/jenkins/node-gerritverify/workspace/gerrit_review_verification/.workspace/modules/logging/uart_printf.c:162
20000eda:	46a9                	li	a3,10
20000edc:	02d30063          	beq	t1,a3,20000efc <print_inner+0x68>
/jenkins/node-gerritverify/workspace/gerrit_review_verification/.workspace/modules/logging/uart_printf.c:172
20000ee0:	dde9                	beqz	a1,20000eba <print_inner+0x26>
/jenkins/node-gerritverify/workspace/gerrit_review_verification/.workspace/modules/logging/uart_printf.c:173
20000ee2:	46c6                	lw	a3,80(sp)
20000ee4:	c43e                	sw	a5,8(sp)
20000ee6:	c23a                	sw	a4,4(sp)
20000ee8:	c646                	sw	a7,12(sp)
20000eea:	c01a                	sw	t1,0(sp)
20000eec:	75d030ef          	jal	ra,20004e48 <printi>
20000ef0:	4832                	lw	a6,12(sp)
20000ef2:	47a2                	lw	a5,8(sp)
20000ef4:	4712                	lw	a4,4(sp)
20000ef6:	4602                	lw	a2,0(sp)
20000ef8:	84aa                	mv	s1,a0
20000efa:	b7c9                	j	20000ebc <print_inner+0x28>
printi_u64_d():
/jenkins/node-gerritverify/workspace/gerrit_review_verification/.workspace/modules/logging/uart_printf.c:121
20000efc:	00b466b3          	or	a3,s0,a1
/jenkins/node-gerritverify/workspace/gerrit_review_verification/.workspace/modules/logging/uart_printf.c:119
20000f00:	84ae                	mv	s1,a1
/jenkins/node-gerritverify/workspace/gerrit_review_verification/.workspace/modules/logging/uart_printf.c:121
20000f02:	c6d9                	beqz	a3,20000f90 <print_inner+0xfc>
/jenkins/node-gerritverify/workspace/gerrit_review_verification/.workspace/modules/logging/uart_printf.c:127
20000f04:	46c6                	lw	a3,80(sp)
20000f06:	ce89                	beqz	a3,20000f20 <print_inner+0x8c>
/jenkins/node-gerritverify/workspace/gerrit_review_verification/.workspace/modules/logging/uart_printf.c:117
20000f08:	c882                	sw	zero,80(sp)
/jenkins/node-gerritverify/workspace/gerrit_review_verification/.workspace/modules/logging/uart_printf.c:127
20000f0a:	0005db63          	bgez	a1,20000f20 <print_inner+0x8c>
/jenkins/node-gerritverify/workspace/gerrit_review_verification/.workspace/modules/logging/uart_printf.c:129
20000f0e:	008035b3          	snez	a1,s0
20000f12:	409004b3          	neg	s1,s1
/jenkins/node-gerritverify/workspace/gerrit_review_verification/.workspace/modules/logging/uart_printf.c:128
20000f16:	4685                	li	a3,1
/jenkins/node-gerritverify/workspace/gerrit_review_verification/.workspace/modules/logging/uart_printf.c:129
20000f18:	8c8d                	sub	s1,s1,a1
20000f1a:	40800433          	neg	s0,s0
/jenkins/node-gerritverify/workspace/gerrit_review_verification/.workspace/modules/logging/uart_printf.c:128
20000f1e:	c8b6                	sw	a3,80(sp)
/jenkins/node-gerritverify/workspace/gerrit_review_verification/.workspace/modules/logging/uart_printf.c:133
20000f20:	020106a3          	sb	zero,45(sp)
/jenkins/node-gerritverify/workspace/gerrit_review_verification/.workspace/modules/logging/uart_printf.c:132
20000f24:	02d10993          	addi	s3,sp,45
/jenkins/node-gerritverify/workspace/gerrit_review_verification/.workspace/modules/logging/uart_printf.c:135
20000f28:	4aa5                	li	s5,9
/jenkins/node-gerritverify/workspace/gerrit_review_verification/.workspace/modules/logging/uart_printf.c:136
20000f2a:	4629                	li	a2,10
20000f2c:	4681                	li	a3,0
20000f2e:	8522                	mv	a0,s0
20000f30:	85a6                	mv	a1,s1
20000f32:	c23e                	sw	a5,4(sp)
20000f34:	c03a                	sw	a4,0(sp)
20000f36:	2b2020ef          	jal	ra,200031e8 <__umoddi3>
/jenkins/node-gerritverify/workspace/gerrit_review_verification/.workspace/modules/logging/uart_printf.c:137
20000f3a:	03050813          	addi	a6,a0,48
/jenkins/node-gerritverify/workspace/gerrit_review_verification/.workspace/modules/logging/uart_printf.c:138
20000f3e:	85a6                	mv	a1,s1
20000f40:	8522                	mv	a0,s0
20000f42:	4629                	li	a2,10
20000f44:	4681                	li	a3,0
/jenkins/node-gerritverify/workspace/gerrit_review_verification/.workspace/modules/logging/uart_printf.c:137
20000f46:	ff098fa3          	sb	a6,-1(s3)
/jenkins/node-gerritverify/workspace/gerrit_review_verification/.workspace/modules/logging/uart_printf.c:138
20000f4a:	73f010ef          	jal	ra,20002e88 <__udivdi3>
20000f4e:	86a6                	mv	a3,s1
20000f50:	8a4e                	mv	s4,s3
20000f52:	8622                	mv	a2,s0
/jenkins/node-gerritverify/workspace/gerrit_review_verification/.workspace/modules/logging/uart_printf.c:135
20000f54:	4702                	lw	a4,0(sp)
20000f56:	4792                	lw	a5,4(sp)
/jenkins/node-gerritverify/workspace/gerrit_review_verification/.workspace/modules/logging/uart_printf.c:137
20000f58:	19fd                	addi	s3,s3,-1
/jenkins/node-gerritverify/workspace/gerrit_review_verification/.workspace/modules/logging/uart_printf.c:138
20000f5a:	842a                	mv	s0,a0
20000f5c:	84ae                	mv	s1,a1
/jenkins/node-gerritverify/workspace/gerrit_review_verification/.workspace/modules/logging/uart_printf.c:135
20000f5e:	f6f1                	bnez	a3,20000f2a <print_inner+0x96>
20000f60:	fccae5e3          	bltu	s5,a2,20000f2a <print_inner+0x96>
/jenkins/node-gerritverify/workspace/gerrit_review_verification/.workspace/modules/logging/uart_printf.c:141
20000f64:	46c6                	lw	a3,80(sp)
20000f66:	ce81                	beqz	a3,20000f7e <print_inner+0xea>
/jenkins/node-gerritverify/workspace/gerrit_review_verification/.workspace/modules/logging/uart_printf.c:142
20000f68:	c701                	beqz	a4,20000f70 <print_inner+0xdc>
20000f6a:	0027f693          	andi	a3,a5,2
20000f6e:	ea9d                	bnez	a3,20000fa4 <print_inner+0x110>
/jenkins/node-gerritverify/workspace/gerrit_review_verification/.workspace/modules/logging/uart_printf.c:147
20000f70:	02d00693          	li	a3,45
20000f74:	fed98fa3          	sb	a3,-1(s3)
/jenkins/node-gerritverify/workspace/gerrit_review_verification/.workspace/modules/logging/uart_printf.c:118
20000f78:	c882                	sw	zero,80(sp)
/jenkins/node-gerritverify/workspace/gerrit_review_verification/.workspace/modules/logging/uart_printf.c:147
20000f7a:	ffea0993          	addi	s3,s4,-2
/jenkins/node-gerritverify/workspace/gerrit_review_verification/.workspace/modules/logging/uart_printf.c:151
20000f7e:	86be                	mv	a3,a5
20000f80:	863a                	mv	a2,a4
20000f82:	85ce                	mv	a1,s3
20000f84:	854a                	mv	a0,s2
20000f86:	59b030ef          	jal	ra,20004d20 <__fsymtab_end>
20000f8a:	47c6                	lw	a5,80(sp)
20000f8c:	953e                	add	a0,a0,a5
print_inner():
/jenkins/node-gerritverify/workspace/gerrit_review_verification/.workspace/modules/logging/uart_printf.c:164
20000f8e:	bf2d                	j	20000ec8 <print_inner+0x34>
printi_u64_d():
/jenkins/node-gerritverify/workspace/gerrit_review_verification/.workspace/modules/logging/uart_printf.c:124
20000f90:	86be                	mv	a3,a5
20000f92:	863a                	mv	a2,a4
/jenkins/node-gerritverify/workspace/gerrit_review_verification/.workspace/modules/logging/uart_printf.c:122
20000f94:	03000793          	li	a5,48
/jenkins/node-gerritverify/workspace/gerrit_review_verification/.workspace/modules/logging/uart_printf.c:124
20000f98:	082c                	addi	a1,sp,24
/jenkins/node-gerritverify/workspace/gerrit_review_verification/.workspace/modules/logging/uart_printf.c:122
20000f9a:	00f11c23          	sh	a5,24(sp)
/jenkins/node-gerritverify/workspace/gerrit_review_verification/.workspace/modules/logging/uart_printf.c:124
20000f9e:	583030ef          	jal	ra,20004d20 <__fsymtab_end>
20000fa2:	b71d                	j	20000ec8 <print_inner+0x34>
printchar():
/jenkins/node-gerritverify/workspace/gerrit_review_verification/.workspace/modules/logging/uart_printf.c:19
20000fa4:	00090f63          	beqz	s2,20000fc2 <print_inner+0x12e>
/jenkins/node-gerritverify/workspace/gerrit_review_verification/.workspace/modules/logging/uart_printf.c:20
20000fa8:	00092683          	lw	a3,0(s2)
20000fac:	02d00613          	li	a2,45
20000fb0:	00c68023          	sb	a2,0(a3)
/jenkins/node-gerritverify/workspace/gerrit_review_verification/.workspace/modules/logging/uart_printf.c:21
20000fb4:	00092683          	lw	a3,0(s2)
printi_u64_d():
/jenkins/node-gerritverify/workspace/gerrit_review_verification/.workspace/modules/logging/uart_printf.c:145
20000fb8:	177d                	addi	a4,a4,-1
printchar():
/jenkins/node-gerritverify/workspace/gerrit_review_verification/.workspace/modules/logging/uart_printf.c:21
20000fba:	0685                	addi	a3,a3,1
20000fbc:	00d92023          	sw	a3,0(s2)
printi_u64_d():
/jenkins/node-gerritverify/workspace/gerrit_review_verification/.workspace/modules/logging/uart_printf.c:145
20000fc0:	bf7d                	j	20000f7e <print_inner+0xea>
printchar():
/jenkins/node-gerritverify/workspace/gerrit_review_verification/.workspace/modules/logging/uart_printf.c:23
20000fc2:	02d00593          	li	a1,45
20000fc6:	4501                	li	a0,0
20000fc8:	c23e                	sw	a5,4(sp)
20000fca:	c03a                	sw	a4,0(sp)
20000fcc:	c44ff0ef          	jal	ra,20000410 <hal_uart_put_char>
20000fd0:	4702                	lw	a4,0(sp)
20000fd2:	4792                	lw	a5,4(sp)
printi_u64_d():
/jenkins/node-gerritverify/workspace/gerrit_review_verification/.workspace/modules/logging/uart_printf.c:145
20000fd4:	177d                	addi	a4,a4,-1
20000fd6:	b765                	j	20000f7e <print_inner+0xea>

20000fd8 <osal_create_task>:
osal_create_task():
/jenkins/node-gerritverify/workspace/gerrit_review_verification/.workspace/osal/osal_task.c:20
20000fd8:	1101                	addi	sp,sp,-32
20000fda:	8836                	mv	a6,a3
/jenkins/node-gerritverify/workspace/gerrit_review_verification/.workspace/osal/osal_task.c:24
20000fdc:	0642                	slli	a2,a2,0x10
/jenkins/node-gerritverify/workspace/gerrit_review_verification/.workspace/osal/osal_task.c:20
20000fde:	86ba                	mv	a3,a4
/jenkins/node-gerritverify/workspace/gerrit_review_verification/.workspace/osal/osal_task.c:24
20000fe0:	007c                	addi	a5,sp,12
20000fe2:	8742                	mv	a4,a6
20000fe4:	8241                	srli	a2,a2,0x10
/jenkins/node-gerritverify/workspace/gerrit_review_verification/.workspace/osal/osal_task.c:20
20000fe6:	cc22                	sw	s0,24(sp)
20000fe8:	ce06                	sw	ra,28(sp)
20000fea:	ca26                	sw	s1,20(sp)
20000fec:	842e                	mv	s0,a1
/jenkins/node-gerritverify/workspace/gerrit_review_verification/.workspace/osal/osal_task.c:24
20000fee:	063000ef          	jal	ra,20001850 <xTaskCreate>
/jenkins/node-gerritverify/workspace/gerrit_review_verification/.workspace/osal/osal_task.c:35
20000ff2:	4785                	li	a5,1
20000ff4:	00f51963          	bne	a0,a5,20001006 <osal_create_task+0x2e>
/jenkins/node-gerritverify/workspace/gerrit_review_verification/.workspace/osal/osal_task.c:40
20000ff8:	44b2                	lw	s1,12(sp)
/jenkins/node-gerritverify/workspace/gerrit_review_verification/.workspace/osal/osal_task.c:41
20000ffa:	40f2                	lw	ra,28(sp)
20000ffc:	4462                	lw	s0,24(sp)
20000ffe:	8526                	mv	a0,s1
20001000:	44d2                	lw	s1,20(sp)
20001002:	6105                	addi	sp,sp,32
20001004:	8082                	ret
/jenkins/node-gerritverify/workspace/gerrit_review_verification/.workspace/osal/osal_task.c:36
20001006:	900007b7          	lui	a5,0x90000
2000100a:	0687a783          	lw	a5,104(a5) # 90000068 <_sp+0xffff0068>
/jenkins/node-gerritverify/workspace/gerrit_review_verification/.workspace/osal/osal_task.c:38
2000100e:	4481                	li	s1,0
/jenkins/node-gerritverify/workspace/gerrit_review_verification/.workspace/osal/osal_task.c:36
20001010:	fef055e3          	blez	a5,20000ffa <osal_create_task+0x22>
/jenkins/node-gerritverify/workspace/gerrit_review_verification/.workspace/osal/osal_task.c:36 (discriminator 1)
20001014:	862a                	mv	a2,a0
20001016:	20005537          	lui	a0,0x20005
2000101a:	85a2                	mv	a1,s0
2000101c:	ac850513          	addi	a0,a0,-1336 # 20004ac8 <CSWTCH.14+0x48>
20001020:	29e040ef          	jal	ra,200052be <uart_printf>
/jenkins/node-gerritverify/workspace/gerrit_review_verification/.workspace/osal/osal_task.c:41 (discriminator 1)
20001024:	40f2                	lw	ra,28(sp)
20001026:	4462                	lw	s0,24(sp)
20001028:	8526                	mv	a0,s1
2000102a:	44d2                	lw	s1,20(sp)
2000102c:	6105                	addi	sp,sp,32
2000102e:	8082                	ret

20001030 <osal_delete_task>:
osal_delete_task():
/jenkins/node-gerritverify/workspace/gerrit_review_verification/.workspace/osal/osal_task.c:44
20001030:	09b0006f          	j	200018ca <vTaskDelete>

20001034 <osal_start_scheduler>:
osal_start_scheduler():
/jenkins/node-gerritverify/workspace/gerrit_review_verification/.workspace/osal/osal_task.c:48
20001034:	1d70006f          	j	20001a0a <vTaskStartScheduler>

20001038 <prvAddNewTaskToReadyList>:
prvAddNewTaskToReadyList():
/jenkins/node-gerritverify/workspace/gerrit_review_verification/.workspace/os/FreeRTOS/Kernel/tasks.c:1069
20001038:	1101                	addi	sp,sp,-32
2000103a:	cc22                	sw	s0,24(sp)
2000103c:	ca26                	sw	s1,20(sp)
2000103e:	ce06                	sw	ra,28(sp)
20001040:	c84a                	sw	s2,16(sp)
20001042:	c64e                	sw	s3,12(sp)
20001044:	c452                	sw	s4,8(sp)
20001046:	842a                	mv	s0,a0
/jenkins/node-gerritverify/workspace/gerrit_review_verification/.workspace/os/FreeRTOS/Kernel/tasks.c:1072
20001048:	f38ff0ef          	jal	ra,20000780 <vPortEnterCritical>
/jenkins/node-gerritverify/workspace/gerrit_review_verification/.workspace/os/FreeRTOS/Kernel/tasks.c:1074
2000104c:	900087b7          	lui	a5,0x90008
20001050:	18878793          	addi	a5,a5,392 # 90008188 <_sp+0xffff8188>
20001054:	4398                	lw	a4,0(a5)
/jenkins/node-gerritverify/workspace/gerrit_review_verification/.workspace/os/FreeRTOS/Kernel/tasks.c:1076
20001056:	900084b7          	lui	s1,0x90008
/jenkins/node-gerritverify/workspace/gerrit_review_verification/.workspace/os/FreeRTOS/Kernel/tasks.c:1074
2000105a:	0705                	addi	a4,a4,1
2000105c:	c398                	sw	a4,0(a5)
/jenkins/node-gerritverify/workspace/gerrit_review_verification/.workspace/os/FreeRTOS/Kernel/tasks.c:1076
2000105e:	17448493          	addi	s1,s1,372 # 90008174 <_sp+0xffff8174>
20001062:	4098                	lw	a4,0(s1)
20001064:	cb51                	beqz	a4,200010f8 <prvAddNewTaskToReadyList+0xc0>
/jenkins/node-gerritverify/workspace/gerrit_review_verification/.workspace/os/FreeRTOS/Kernel/tasks.c:1099
20001066:	90008937          	lui	s2,0x90008
2000106a:	1ac90913          	addi	s2,s2,428 # 900081ac <_sp+0xffff81ac>
2000106e:	00092783          	lw	a5,0(s2)
/jenkins/node-gerritverify/workspace/gerrit_review_verification/.workspace/os/FreeRTOS/Kernel/tasks.c:1101
20001072:	5448                	lw	a0,44(s0)
/jenkins/node-gerritverify/workspace/gerrit_review_verification/.workspace/os/FreeRTOS/Kernel/tasks.c:1099
20001074:	cfa5                	beqz	a5,200010ec <prvAddNewTaskToReadyList+0xb4>
20001076:	900089b7          	lui	s3,0x90008
2000107a:	24498993          	addi	s3,s3,580 # 90008244 <_sp+0xffff8244>
/jenkins/node-gerritverify/workspace/gerrit_review_verification/.workspace/os/FreeRTOS/Kernel/tasks.c:1116
2000107e:	90008737          	lui	a4,0x90008
20001082:	19470713          	addi	a4,a4,404 # 90008194 <_sp+0xffff8194>
20001086:	431c                	lw	a5,0(a4)
/jenkins/node-gerritverify/workspace/gerrit_review_verification/.workspace/os/FreeRTOS/Kernel/tasks.c:1126
20001088:	900086b7          	lui	a3,0x90008
2000108c:	19868693          	addi	a3,a3,408 # 90008198 <_sp+0xffff8198>
/jenkins/node-gerritverify/workspace/gerrit_review_verification/.workspace/os/FreeRTOS/Kernel/tasks.c:1116
20001090:	0785                	addi	a5,a5,1
/jenkins/node-gerritverify/workspace/gerrit_review_verification/.workspace/os/FreeRTOS/Kernel/tasks.c:1126
20001092:	4290                	lw	a2,0(a3)
/jenkins/node-gerritverify/workspace/gerrit_review_verification/.workspace/os/FreeRTOS/Kernel/tasks.c:1116
20001094:	c31c                	sw	a5,0(a4)
/jenkins/node-gerritverify/workspace/gerrit_review_verification/.workspace/os/FreeRTOS/Kernel/tasks.c:1121
20001096:	c07c                	sw	a5,68(s0)
/jenkins/node-gerritverify/workspace/gerrit_review_verification/.workspace/os/FreeRTOS/Kernel/tasks.c:1126
20001098:	00a67363          	bgeu	a2,a0,2000109e <prvAddNewTaskToReadyList+0x66>
/jenkins/node-gerritverify/workspace/gerrit_review_verification/.workspace/os/FreeRTOS/Kernel/tasks.c:1126 (discriminator 1)
2000109c:	c288                	sw	a0,0(a3)
/jenkins/node-gerritverify/workspace/gerrit_review_verification/.workspace/os/FreeRTOS/Kernel/tasks.c:1126 (discriminator 3)
2000109e:	47d1                	li	a5,20
200010a0:	02f50533          	mul	a0,a0,a5
200010a4:	00440593          	addi	a1,s0,4
200010a8:	954e                	add	a0,a0,s3
200010aa:	531000ef          	jal	ra,20001dda <vListInsertEnd>
/jenkins/node-gerritverify/workspace/gerrit_review_verification/.workspace/os/FreeRTOS/Kernel/tasks.c:1130 (discriminator 3)
200010ae:	f1aff0ef          	jal	ra,200007c8 <vPortExitCritical>
/jenkins/node-gerritverify/workspace/gerrit_review_verification/.workspace/os/FreeRTOS/Kernel/tasks.c:1132 (discriminator 3)
200010b2:	00092783          	lw	a5,0(s2)
200010b6:	c39d                	beqz	a5,200010dc <prvAddNewTaskToReadyList+0xa4>
/jenkins/node-gerritverify/workspace/gerrit_review_verification/.workspace/os/FreeRTOS/Kernel/tasks.c:1136
200010b8:	4098                	lw	a4,0(s1)
200010ba:	545c                	lw	a5,44(s0)
200010bc:	5758                	lw	a4,44(a4)
200010be:	00f77f63          	bgeu	a4,a5,200010dc <prvAddNewTaskToReadyList+0xa4>
SysTimer_SetSWIRQ():
/jenkins/node-gerritverify/workspace/gerrit_review_verification/.workspace/bsp/arch/riscv/n309/include/core_feature_timer.h:293
200010c2:	f14027f3          	csrr	a5,mhartid
/jenkins/node-gerritverify/workspace/gerrit_review_verification/.workspace/bsp/arch/riscv/n309/include/core_feature_timer.h:294
200010c6:	eba1                	bnez	a5,20001116 <prvAddNewTaskToReadyList+0xde>
/jenkins/node-gerritverify/workspace/gerrit_review_verification/.workspace/bsp/arch/riscv/n309/include/core_feature_timer.h:295
200010c8:	02001737          	lui	a4,0x2001
200010cc:	ffc72783          	lw	a5,-4(a4) # 2000ffc <__HEAP_SIZE+0x1ffbffc>
200010d0:	0017e793          	ori	a5,a5,1
200010d4:	fef72e23          	sw	a5,-4(a4)
prvAddNewTaskToReadyList():
/jenkins/node-gerritverify/workspace/gerrit_review_verification/.workspace/os/FreeRTOS/Kernel/tasks.c:1138
200010d8:	0ff0000f          	fence
/jenkins/node-gerritverify/workspace/gerrit_review_verification/.workspace/os/FreeRTOS/Kernel/tasks.c:1149
200010dc:	40f2                	lw	ra,28(sp)
200010de:	4462                	lw	s0,24(sp)
200010e0:	44d2                	lw	s1,20(sp)
200010e2:	4942                	lw	s2,16(sp)
200010e4:	49b2                	lw	s3,12(sp)
200010e6:	4a22                	lw	s4,8(sp)
200010e8:	6105                	addi	sp,sp,32
200010ea:	8082                	ret
/jenkins/node-gerritverify/workspace/gerrit_review_verification/.workspace/os/FreeRTOS/Kernel/tasks.c:1101
200010ec:	409c                	lw	a5,0(s1)
200010ee:	57dc                	lw	a5,44(a5)
200010f0:	f8f563e3          	bltu	a0,a5,20001076 <prvAddNewTaskToReadyList+0x3e>
/jenkins/node-gerritverify/workspace/gerrit_review_verification/.workspace/os/FreeRTOS/Kernel/tasks.c:1103
200010f4:	c080                	sw	s0,0(s1)
200010f6:	b741                	j	20001076 <prvAddNewTaskToReadyList+0x3e>
/jenkins/node-gerritverify/workspace/gerrit_review_verification/.workspace/os/FreeRTOS/Kernel/tasks.c:1080
200010f8:	c080                	sw	s0,0(s1)
/jenkins/node-gerritverify/workspace/gerrit_review_verification/.workspace/os/FreeRTOS/Kernel/tasks.c:1082
200010fa:	4398                	lw	a4,0(a5)
200010fc:	4785                	li	a5,1
200010fe:	02f70563          	beq	a4,a5,20001128 <prvAddNewTaskToReadyList+0xf0>
20001102:	900089b7          	lui	s3,0x90008
20001106:	90008937          	lui	s2,0x90008
/jenkins/node-gerritverify/workspace/gerrit_review_verification/.workspace/os/FreeRTOS/Kernel/tasks.c:1126
2000110a:	5448                	lw	a0,44(s0)
2000110c:	24498993          	addi	s3,s3,580 # 90008244 <_sp+0xffff8244>
20001110:	1ac90913          	addi	s2,s2,428 # 900081ac <_sp+0xffff81ac>
20001114:	b7ad                	j	2000107e <prvAddNewTaskToReadyList+0x46>
SysTimer_SetSWIRQ():
/jenkins/node-gerritverify/workspace/gerrit_review_verification/.workspace/bsp/arch/riscv/n309/include/core_feature_timer.h:297
20001116:	02001737          	lui	a4,0x2001
2000111a:	078a                	slli	a5,a5,0x2
2000111c:	97ba                	add	a5,a5,a4
__SW():
/jenkins/node-gerritverify/workspace/gerrit_review_verification/.workspace/bsp/arch/riscv/n309/include/core_feature_base.h:1460
2000111e:	4705                	li	a4,1
20001120:	c398                	sw	a4,0(a5)
prvAddNewTaskToReadyList():
/jenkins/node-gerritverify/workspace/gerrit_review_verification/.workspace/os/FreeRTOS/Kernel/tasks.c:1138
20001122:	0ff0000f          	fence
/jenkins/node-gerritverify/workspace/gerrit_review_verification/.workspace/os/FreeRTOS/Kernel/tasks.c:1147
20001126:	bf5d                	j	200010dc <prvAddNewTaskToReadyList+0xa4>
20001128:	90008937          	lui	s2,0x90008
2000112c:	24490993          	addi	s3,s2,580 # 90008244 <_sp+0xffff8244>
20001130:	0a098a13          	addi	s4,s3,160
20001134:	24490913          	addi	s2,s2,580
prvInitialiseTaskLists():
/jenkins/node-gerritverify/workspace/gerrit_review_verification/.workspace/os/FreeRTOS/Kernel/tasks.c:3654
20001138:	854a                	mv	a0,s2
/jenkins/node-gerritverify/workspace/gerrit_review_verification/.workspace/os/FreeRTOS/Kernel/tasks.c:3652
2000113a:	0951                	addi	s2,s2,20
/jenkins/node-gerritverify/workspace/gerrit_review_verification/.workspace/os/FreeRTOS/Kernel/tasks.c:3654
2000113c:	485000ef          	jal	ra,20001dc0 <vListInitialise>
/jenkins/node-gerritverify/workspace/gerrit_review_verification/.workspace/os/FreeRTOS/Kernel/tasks.c:3652
20001140:	ff2a1ce3          	bne	s4,s2,20001138 <prvAddNewTaskToReadyList+0x100>
/jenkins/node-gerritverify/workspace/gerrit_review_verification/.workspace/os/FreeRTOS/Kernel/tasks.c:3657
20001144:	900087b7          	lui	a5,0x90008
20001148:	2e478513          	addi	a0,a5,740 # 900082e4 <_sp+0xffff82e4>
2000114c:	2e478a13          	addi	s4,a5,740
20001150:	471000ef          	jal	ra,20001dc0 <vListInitialise>
/jenkins/node-gerritverify/workspace/gerrit_review_verification/.workspace/os/FreeRTOS/Kernel/tasks.c:3658
20001154:	900087b7          	lui	a5,0x90008
20001158:	2f878513          	addi	a0,a5,760 # 900082f8 <_sp+0xffff82f8>
2000115c:	2f878913          	addi	s2,a5,760
20001160:	461000ef          	jal	ra,20001dc0 <vListInitialise>
/jenkins/node-gerritverify/workspace/gerrit_review_verification/.workspace/os/FreeRTOS/Kernel/tasks.c:3659
20001164:	90008537          	lui	a0,0x90008
20001168:	30c50513          	addi	a0,a0,780 # 9000830c <_sp+0xffff830c>
2000116c:	455000ef          	jal	ra,20001dc0 <vListInitialise>
/jenkins/node-gerritverify/workspace/gerrit_review_verification/.workspace/os/FreeRTOS/Kernel/tasks.c:3663
20001170:	90008537          	lui	a0,0x90008
20001174:	33450513          	addi	a0,a0,820 # 90008334 <_sp+0xffff8334>
20001178:	449000ef          	jal	ra,20001dc0 <vListInitialise>
/jenkins/node-gerritverify/workspace/gerrit_review_verification/.workspace/os/FreeRTOS/Kernel/tasks.c:3669
2000117c:	90008537          	lui	a0,0x90008
20001180:	32050513          	addi	a0,a0,800 # 90008320 <_sp+0xffff8320>
20001184:	43d000ef          	jal	ra,20001dc0 <vListInitialise>
/jenkins/node-gerritverify/workspace/gerrit_review_verification/.workspace/os/FreeRTOS/Kernel/tasks.c:3675
20001188:	90008737          	lui	a4,0x90008
/jenkins/node-gerritverify/workspace/gerrit_review_verification/.workspace/os/FreeRTOS/Kernel/tasks.c:3676
2000118c:	900087b7          	lui	a5,0x90008
/jenkins/node-gerritverify/workspace/gerrit_review_verification/.workspace/os/FreeRTOS/Kernel/tasks.c:3675
20001190:	17472c23          	sw	s4,376(a4) # 90008178 <_sp+0xffff8178>
/jenkins/node-gerritverify/workspace/gerrit_review_verification/.workspace/os/FreeRTOS/Kernel/tasks.c:3676
20001194:	1727ae23          	sw	s2,380(a5) # 9000817c <_sp+0xffff817c>
20001198:	90008937          	lui	s2,0x90008
prvAddNewTaskToReadyList():
/jenkins/node-gerritverify/workspace/gerrit_review_verification/.workspace/os/FreeRTOS/Kernel/tasks.c:1126
2000119c:	5448                	lw	a0,44(s0)
2000119e:	1ac90913          	addi	s2,s2,428 # 900081ac <_sp+0xffff81ac>
prvInitialiseTaskLists():
/jenkins/node-gerritverify/workspace/gerrit_review_verification/.workspace/os/FreeRTOS/Kernel/tasks.c:3677
200011a2:	bdf1                	j	2000107e <prvAddNewTaskToReadyList+0x46>

200011a4 <prvAddCurrentTaskToDelayedList>:
prvAddCurrentTaskToDelayedList():
/jenkins/node-gerritverify/workspace/gerrit_review_verification/.workspace/os/FreeRTOS/Kernel/tasks.c:5265
200011a4:	1101                	addi	sp,sp,-32
200011a6:	ca26                	sw	s1,20(sp)
/jenkins/node-gerritverify/workspace/gerrit_review_verification/.workspace/os/FreeRTOS/Kernel/tasks.c:5280
200011a8:	900084b7          	lui	s1,0x90008
/jenkins/node-gerritverify/workspace/gerrit_review_verification/.workspace/os/FreeRTOS/Kernel/tasks.c:5267
200011ac:	900087b7          	lui	a5,0x90008
/jenkins/node-gerritverify/workspace/gerrit_review_verification/.workspace/os/FreeRTOS/Kernel/tasks.c:5280
200011b0:	17448493          	addi	s1,s1,372 # 90008174 <_sp+0xffff8174>
/jenkins/node-gerritverify/workspace/gerrit_review_verification/.workspace/os/FreeRTOS/Kernel/tasks.c:5265
200011b4:	c64e                	sw	s3,12(sp)
/jenkins/node-gerritverify/workspace/gerrit_review_verification/.workspace/os/FreeRTOS/Kernel/tasks.c:5267
200011b6:	1b07a983          	lw	s3,432(a5) # 900081b0 <_sp+0xffff81b0>
/jenkins/node-gerritverify/workspace/gerrit_review_verification/.workspace/os/FreeRTOS/Kernel/tasks.c:5280
200011ba:	409c                	lw	a5,0(s1)
/jenkins/node-gerritverify/workspace/gerrit_review_verification/.workspace/os/FreeRTOS/Kernel/tasks.c:5265
200011bc:	cc22                	sw	s0,24(sp)
200011be:	842a                	mv	s0,a0
/jenkins/node-gerritverify/workspace/gerrit_review_verification/.workspace/os/FreeRTOS/Kernel/tasks.c:5280
200011c0:	00478513          	addi	a0,a5,4
/jenkins/node-gerritverify/workspace/gerrit_review_verification/.workspace/os/FreeRTOS/Kernel/tasks.c:5265
200011c4:	c84a                	sw	s2,16(sp)
200011c6:	ce06                	sw	ra,28(sp)
200011c8:	892e                	mv	s2,a1
/jenkins/node-gerritverify/workspace/gerrit_review_verification/.workspace/os/FreeRTOS/Kernel/tasks.c:5280
200011ca:	459000ef          	jal	ra,20001e22 <uxListRemove>
/jenkins/node-gerritverify/workspace/gerrit_review_verification/.workspace/os/FreeRTOS/Kernel/tasks.c:5293
200011ce:	57fd                	li	a5,-1
200011d0:	04f40c63          	beq	s0,a5,20001228 <prvAddCurrentTaskToDelayedList+0x84>
/jenkins/node-gerritverify/workspace/gerrit_review_verification/.workspace/os/FreeRTOS/Kernel/tasks.c:5308
200011d4:	409c                	lw	a5,0(s1)
/jenkins/node-gerritverify/workspace/gerrit_review_verification/.workspace/os/FreeRTOS/Kernel/tasks.c:5305
200011d6:	944e                	add	s0,s0,s3
/jenkins/node-gerritverify/workspace/gerrit_review_verification/.workspace/os/FreeRTOS/Kernel/tasks.c:5308
200011d8:	c3c0                	sw	s0,4(a5)
/jenkins/node-gerritverify/workspace/gerrit_review_verification/.workspace/os/FreeRTOS/Kernel/tasks.c:5310
200011da:	03346963          	bltu	s0,s3,2000120c <prvAddCurrentTaskToDelayedList+0x68>
/jenkins/node-gerritverify/workspace/gerrit_review_verification/.workspace/os/FreeRTOS/Kernel/tasks.c:5320
200011de:	900087b7          	lui	a5,0x90008
200011e2:	1787a503          	lw	a0,376(a5) # 90008178 <_sp+0xffff8178>
200011e6:	408c                	lw	a1,0(s1)
200011e8:	0591                	addi	a1,a1,4
200011ea:	40b000ef          	jal	ra,20001df4 <vListInsert>
/jenkins/node-gerritverify/workspace/gerrit_review_verification/.workspace/os/FreeRTOS/Kernel/tasks.c:5325
200011ee:	900087b7          	lui	a5,0x90008
200011f2:	1a078793          	addi	a5,a5,416 # 900081a0 <_sp+0xffff81a0>
200011f6:	4398                	lw	a4,0(a5)
200011f8:	00e47363          	bgeu	s0,a4,200011fe <prvAddCurrentTaskToDelayedList+0x5a>
/jenkins/node-gerritverify/workspace/gerrit_review_verification/.workspace/os/FreeRTOS/Kernel/tasks.c:5327
200011fc:	c380                	sw	s0,0(a5)
/jenkins/node-gerritverify/workspace/gerrit_review_verification/.workspace/os/FreeRTOS/Kernel/tasks.c:5373
200011fe:	40f2                	lw	ra,28(sp)
20001200:	4462                	lw	s0,24(sp)
20001202:	44d2                	lw	s1,20(sp)
20001204:	4942                	lw	s2,16(sp)
20001206:	49b2                	lw	s3,12(sp)
20001208:	6105                	addi	sp,sp,32
2000120a:	8082                	ret
/jenkins/node-gerritverify/workspace/gerrit_review_verification/.workspace/os/FreeRTOS/Kernel/tasks.c:5314
2000120c:	900087b7          	lui	a5,0x90008
20001210:	17c7a503          	lw	a0,380(a5) # 9000817c <_sp+0xffff817c>
/jenkins/node-gerritverify/workspace/gerrit_review_verification/.workspace/os/FreeRTOS/Kernel/tasks.c:5373
20001214:	4462                	lw	s0,24(sp)
/jenkins/node-gerritverify/workspace/gerrit_review_verification/.workspace/os/FreeRTOS/Kernel/tasks.c:5314
20001216:	408c                	lw	a1,0(s1)
/jenkins/node-gerritverify/workspace/gerrit_review_verification/.workspace/os/FreeRTOS/Kernel/tasks.c:5373
20001218:	40f2                	lw	ra,28(sp)
2000121a:	44d2                	lw	s1,20(sp)
2000121c:	4942                	lw	s2,16(sp)
2000121e:	49b2                	lw	s3,12(sp)
/jenkins/node-gerritverify/workspace/gerrit_review_verification/.workspace/os/FreeRTOS/Kernel/tasks.c:5314
20001220:	0591                	addi	a1,a1,4
/jenkins/node-gerritverify/workspace/gerrit_review_verification/.workspace/os/FreeRTOS/Kernel/tasks.c:5373
20001222:	6105                	addi	sp,sp,32
/jenkins/node-gerritverify/workspace/gerrit_review_verification/.workspace/os/FreeRTOS/Kernel/tasks.c:5314
20001224:	3d10006f          	j	20001df4 <vListInsert>
/jenkins/node-gerritverify/workspace/gerrit_review_verification/.workspace/os/FreeRTOS/Kernel/tasks.c:5293 (discriminator 1)
20001228:	fa0906e3          	beqz	s2,200011d4 <prvAddCurrentTaskToDelayedList+0x30>
/jenkins/node-gerritverify/workspace/gerrit_review_verification/.workspace/os/FreeRTOS/Kernel/tasks.c:5298
2000122c:	408c                	lw	a1,0(s1)
/jenkins/node-gerritverify/workspace/gerrit_review_verification/.workspace/os/FreeRTOS/Kernel/tasks.c:5373
2000122e:	4462                	lw	s0,24(sp)
20001230:	40f2                	lw	ra,28(sp)
20001232:	44d2                	lw	s1,20(sp)
20001234:	4942                	lw	s2,16(sp)
20001236:	49b2                	lw	s3,12(sp)
/jenkins/node-gerritverify/workspace/gerrit_review_verification/.workspace/os/FreeRTOS/Kernel/tasks.c:5298
20001238:	90008537          	lui	a0,0x90008
2000123c:	0591                	addi	a1,a1,4
2000123e:	32050513          	addi	a0,a0,800 # 90008320 <_sp+0xffff8320>
/jenkins/node-gerritverify/workspace/gerrit_review_verification/.workspace/os/FreeRTOS/Kernel/tasks.c:5373
20001242:	6105                	addi	sp,sp,32
/jenkins/node-gerritverify/workspace/gerrit_review_verification/.workspace/os/FreeRTOS/Kernel/tasks.c:5298
20001244:	3970006f          	j	20001dda <vListInsertEnd>

20001248 <vTaskSwitchContext.part.0>:
vTaskSwitchContext():
/jenkins/node-gerritverify/workspace/gerrit_review_verification/.workspace/os/FreeRTOS/Kernel/tasks.c:3020
20001248:	90008737          	lui	a4,0x90008
2000124c:	1a072a23          	sw	zero,436(a4) # 900081b4 <_sp+0xffff81b4>
/jenkins/node-gerritverify/workspace/gerrit_review_verification/.workspace/os/FreeRTOS/Kernel/tasks.c:3026
20001250:	900087b7          	lui	a5,0x90008
20001254:	1b07a703          	lw	a4,432(a5) # 900081b0 <_sp+0xffff81b0>
/jenkins/node-gerritverify/workspace/gerrit_review_verification/.workspace/os/FreeRTOS/Kernel/tasks.c:3010
20001258:	1141                	addi	sp,sp,-16
/jenkins/node-gerritverify/workspace/gerrit_review_verification/.workspace/os/FreeRTOS/Kernel/tasks.c:3026
2000125a:	900087b7          	lui	a5,0x90008
/jenkins/node-gerritverify/workspace/gerrit_review_verification/.workspace/os/FreeRTOS/Kernel/tasks.c:3010
2000125e:	c422                	sw	s0,8(sp)
/jenkins/node-gerritverify/workspace/gerrit_review_verification/.workspace/os/FreeRTOS/Kernel/tasks.c:3026
20001260:	18478793          	addi	a5,a5,388 # 90008184 <_sp+0xffff8184>
/jenkins/node-gerritverify/workspace/gerrit_review_verification/.workspace/os/FreeRTOS/Kernel/tasks.c:3010
20001264:	c606                	sw	ra,12(sp)
/jenkins/node-gerritverify/workspace/gerrit_review_verification/.workspace/os/FreeRTOS/Kernel/tasks.c:3026
20001266:	c398                	sw	a4,0(a5)
/jenkins/node-gerritverify/workspace/gerrit_review_verification/.workspace/os/FreeRTOS/Kernel/tasks.c:3038
20001268:	90008737          	lui	a4,0x90008
2000126c:	18070713          	addi	a4,a4,384 # 90008180 <_sp+0xffff8180>
20001270:	4394                	lw	a3,0(a5)
20001272:	4310                	lw	a2,0(a4)
/jenkins/node-gerritverify/workspace/gerrit_review_verification/.workspace/os/FreeRTOS/Kernel/tasks.c:3040
20001274:	90008437          	lui	s0,0x90008
20001278:	17440413          	addi	s0,s0,372 # 90008174 <_sp+0xffff8174>
/jenkins/node-gerritverify/workspace/gerrit_review_verification/.workspace/os/FreeRTOS/Kernel/tasks.c:3038
2000127c:	00d67863          	bgeu	a2,a3,2000128c <vTaskSwitchContext.part.0+0x44>
/jenkins/node-gerritverify/workspace/gerrit_review_verification/.workspace/os/FreeRTOS/Kernel/tasks.c:3040
20001280:	4388                	lw	a0,0(a5)
20001282:	400c                	lw	a1,0(s0)
20001284:	55b4                	lw	a3,104(a1)
20001286:	8e91                	sub	a3,a3,a2
20001288:	96aa                	add	a3,a3,a0
2000128a:	d5b4                	sw	a3,104(a1)
/jenkins/node-gerritverify/workspace/gerrit_review_verification/.workspace/os/FreeRTOS/Kernel/tasks.c:3047
2000128c:	4390                	lw	a2,0(a5)
/jenkins/node-gerritverify/workspace/gerrit_review_verification/.workspace/os/FreeRTOS/Kernel/tasks.c:3052
2000128e:	4014                	lw	a3,0(s0)
20001290:	401c                	lw	a5,0(s0)
20001292:	4294                	lw	a3,0(a3)
20001294:	5b9c                	lw	a5,48(a5)
/jenkins/node-gerritverify/workspace/gerrit_review_verification/.workspace/os/FreeRTOS/Kernel/tasks.c:3047
20001296:	c310                	sw	a2,0(a4)
/jenkins/node-gerritverify/workspace/gerrit_review_verification/.workspace/os/FreeRTOS/Kernel/tasks.c:3052
20001298:	06d7f963          	bgeu	a5,a3,2000130a <vTaskSwitchContext.part.0+0xc2>
/jenkins/node-gerritverify/workspace/gerrit_review_verification/.workspace/os/FreeRTOS/Kernel/tasks.c:3063
2000129c:	900085b7          	lui	a1,0x90008
200012a0:	19858593          	addi	a1,a1,408 # 90008198 <_sp+0xffff8198>
200012a4:	419c                	lw	a5,0(a1)
200012a6:	900086b7          	lui	a3,0x90008
200012aa:	4751                	li	a4,20
200012ac:	24468693          	addi	a3,a3,580 # 90008244 <_sp+0xffff8244>
200012b0:	02e78733          	mul	a4,a5,a4
200012b4:	9736                	add	a4,a4,a3
200012b6:	4318                	lw	a4,0(a4)
200012b8:	eb19                	bnez	a4,200012ce <vTaskSwitchContext.part.0+0x86>
200012ba:	cf8d                	beqz	a5,200012f4 <vTaskSwitchContext.part.0+0xac>
200012bc:	4651                	li	a2,20
200012be:	a011                	j	200012c2 <vTaskSwitchContext.part.0+0x7a>
200012c0:	cb95                	beqz	a5,200012f4 <vTaskSwitchContext.part.0+0xac>
200012c2:	17fd                	addi	a5,a5,-1
200012c4:	02c78733          	mul	a4,a5,a2
200012c8:	9736                	add	a4,a4,a3
200012ca:	4318                	lw	a4,0(a4)
200012cc:	db75                	beqz	a4,200012c0 <vTaskSwitchContext.part.0+0x78>
200012ce:	4751                	li	a4,20
200012d0:	02e78733          	mul	a4,a5,a4
200012d4:	00e68533          	add	a0,a3,a4
200012d8:	4150                	lw	a2,4(a0)
200012da:	0721                	addi	a4,a4,8
200012dc:	4250                	lw	a2,4(a2)
200012de:	96ba                	add	a3,a3,a4
200012e0:	c150                	sw	a2,4(a0)
200012e2:	02d60a63          	beq	a2,a3,20001316 <vTaskSwitchContext.part.0+0xce>
200012e6:	4658                	lw	a4,12(a2)
/jenkins/node-gerritverify/workspace/gerrit_review_verification/.workspace/os/FreeRTOS/Kernel/tasks.c:3083
200012e8:	40b2                	lw	ra,12(sp)
/jenkins/node-gerritverify/workspace/gerrit_review_verification/.workspace/os/FreeRTOS/Kernel/tasks.c:3063
200012ea:	c018                	sw	a4,0(s0)
/jenkins/node-gerritverify/workspace/gerrit_review_verification/.workspace/os/FreeRTOS/Kernel/tasks.c:3083
200012ec:	4422                	lw	s0,8(sp)
/jenkins/node-gerritverify/workspace/gerrit_review_verification/.workspace/os/FreeRTOS/Kernel/tasks.c:3063
200012ee:	c19c                	sw	a5,0(a1)
/jenkins/node-gerritverify/workspace/gerrit_review_verification/.workspace/os/FreeRTOS/Kernel/tasks.c:3083
200012f0:	0141                	addi	sp,sp,16
200012f2:	8082                	ret
vPortRaiseBASEPRI():
/jenkins/node-gerritverify/workspace/gerrit_review_verification/.workspace/bsp/arch/riscv/n309/os_portable/freertos/portmacro.h:171
200012f4:	900007b7          	lui	a5,0x90000
200012f8:	0647c703          	lbu	a4,100(a5) # 90000064 <_sp+0xffff0064>
__ECLIC_SetMth():
/jenkins/node-gerritverify/workspace/gerrit_review_verification/.workspace/bsp/arch/riscv/n309/include/core_feature_eclic.h:340
200012fc:	0c0007b7          	lui	a5,0xc000
20001300:	00e785a3          	sb	a4,11(a5) # c00000b <__HEAP_SIZE+0xbffb00b>
vPortRaiseBASEPRI():
/jenkins/node-gerritverify/workspace/gerrit_review_verification/.workspace/bsp/arch/riscv/n309/os_portable/freertos/portmacro.h:172
20001304:	0ff0000f          	fence
vTaskSwitchContext():
/jenkins/node-gerritverify/workspace/gerrit_review_verification/.workspace/os/FreeRTOS/Kernel/tasks.c:3063
20001308:	a001                	j	20001308 <vTaskSwitchContext.part.0+0xc0>
/jenkins/node-gerritverify/workspace/gerrit_review_verification/.workspace/os/FreeRTOS/Kernel/tasks.c:3052
2000130a:	4008                	lw	a0,0(s0)
2000130c:	400c                	lw	a1,0(s0)
2000130e:	03458593          	addi	a1,a1,52
20001312:	3ad5                	jal	20000d06 <vApplicationStackOverflowHook>
20001314:	b761                	j	2000129c <vTaskSwitchContext.part.0+0x54>
/jenkins/node-gerritverify/workspace/gerrit_review_verification/.workspace/os/FreeRTOS/Kernel/tasks.c:3063
20001316:	4250                	lw	a2,4(a2)
/jenkins/node-gerritverify/workspace/gerrit_review_verification/.workspace/os/FreeRTOS/Kernel/tasks.c:3083
20001318:	40b2                	lw	ra,12(sp)
/jenkins/node-gerritverify/workspace/gerrit_review_verification/.workspace/os/FreeRTOS/Kernel/tasks.c:3063
2000131a:	4658                	lw	a4,12(a2)
2000131c:	c150                	sw	a2,4(a0)
2000131e:	c018                	sw	a4,0(s0)
/jenkins/node-gerritverify/workspace/gerrit_review_verification/.workspace/os/FreeRTOS/Kernel/tasks.c:3083
20001320:	4422                	lw	s0,8(sp)
/jenkins/node-gerritverify/workspace/gerrit_review_verification/.workspace/os/FreeRTOS/Kernel/tasks.c:3063
20001322:	c19c                	sw	a5,0(a1)
/jenkins/node-gerritverify/workspace/gerrit_review_verification/.workspace/os/FreeRTOS/Kernel/tasks.c:3083
20001324:	0141                	addi	sp,sp,16
20001326:	8082                	ret

20001328 <prvInitialiseNewTask.constprop.0>:
prvInitialiseNewTask():
/jenkins/node-gerritverify/workspace/gerrit_review_verification/.workspace/os/FreeRTOS/Kernel/tasks.c:817
20001328:	1101                	addi	sp,sp,-32
2000132a:	c64e                	sw	s3,12(sp)
2000132c:	c452                	sw	s4,8(sp)
/jenkins/node-gerritverify/workspace/gerrit_review_verification/.workspace/os/FreeRTOS/Kernel/tasks.c:848
2000132e:	00261993          	slli	s3,a2,0x2
/jenkins/node-gerritverify/workspace/gerrit_review_verification/.workspace/os/FreeRTOS/Kernel/tasks.c:817
20001332:	8a2a                	mv	s4,a0
/jenkins/node-gerritverify/workspace/gerrit_review_verification/.workspace/os/FreeRTOS/Kernel/tasks.c:848
20001334:	03082503          	lw	a0,48(a6)
/jenkins/node-gerritverify/workspace/gerrit_review_verification/.workspace/os/FreeRTOS/Kernel/tasks.c:817
20001338:	cc22                	sw	s0,24(sp)
/jenkins/node-gerritverify/workspace/gerrit_review_verification/.workspace/os/FreeRTOS/Kernel/tasks.c:848
2000133a:	864e                	mv	a2,s3
/jenkins/node-gerritverify/workspace/gerrit_review_verification/.workspace/os/FreeRTOS/Kernel/tasks.c:817
2000133c:	842e                	mv	s0,a1
/jenkins/node-gerritverify/workspace/gerrit_review_verification/.workspace/os/FreeRTOS/Kernel/tasks.c:848
2000133e:	0a500593          	li	a1,165
/jenkins/node-gerritverify/workspace/gerrit_review_verification/.workspace/os/FreeRTOS/Kernel/tasks.c:817
20001342:	ca26                	sw	s1,20(sp)
20001344:	c84a                	sw	s2,16(sp)
20001346:	c256                	sw	s5,4(sp)
20001348:	c05a                	sw	s6,0(sp)
2000134a:	84c2                	mv	s1,a6
2000134c:	8b3e                	mv	s6,a5
2000134e:	ce06                	sw	ra,28(sp)
20001350:	8ab6                	mv	s5,a3
20001352:	893a                	mv	s2,a4
/jenkins/node-gerritverify/workspace/gerrit_review_verification/.workspace/os/FreeRTOS/Kernel/tasks.c:848
20001354:	34e020ef          	jal	ra,200036a2 <memset>
/jenkins/node-gerritverify/workspace/gerrit_review_verification/.workspace/os/FreeRTOS/Kernel/tasks.c:858
20001358:	589c                	lw	a5,48(s1)
2000135a:	19f1                	addi	s3,s3,-4
2000135c:	99be                	add	s3,s3,a5
/jenkins/node-gerritverify/workspace/gerrit_review_verification/.workspace/os/FreeRTOS/Kernel/tasks.c:859
2000135e:	ff89f993          	andi	s3,s3,-8
/jenkins/node-gerritverify/workspace/gerrit_review_verification/.workspace/os/FreeRTOS/Kernel/tasks.c:886
20001362:	c045                	beqz	s0,20001402 <prvInitialiseNewTask.constprop.0+0xda>
20001364:	85a2                	mv	a1,s0
20001366:	03448813          	addi	a6,s1,52
2000136a:	01040793          	addi	a5,s0,16
/jenkins/node-gerritverify/workspace/gerrit_review_verification/.workspace/os/FreeRTOS/Kernel/tasks.c:890
2000136e:	0005c883          	lbu	a7,0(a1)
/jenkins/node-gerritverify/workspace/gerrit_review_verification/.workspace/os/FreeRTOS/Kernel/tasks.c:888
20001372:	0585                	addi	a1,a1,1
/jenkins/node-gerritverify/workspace/gerrit_review_verification/.workspace/os/FreeRTOS/Kernel/tasks.c:890
20001374:	01180023          	sb	a7,0(a6)
/jenkins/node-gerritverify/workspace/gerrit_review_verification/.workspace/os/FreeRTOS/Kernel/tasks.c:895
20001378:	00088563          	beqz	a7,20001382 <prvInitialiseNewTask.constprop.0+0x5a>
/jenkins/node-gerritverify/workspace/gerrit_review_verification/.workspace/os/FreeRTOS/Kernel/tasks.c:888
2000137c:	0805                	addi	a6,a6,1
2000137e:	fef598e3          	bne	a1,a5,2000136e <prvInitialiseNewTask.constprop.0+0x46>
/jenkins/node-gerritverify/workspace/gerrit_review_verification/.workspace/os/FreeRTOS/Kernel/tasks.c:907
20001382:	040481a3          	sb	zero,67(s1)
/jenkins/node-gerritverify/workspace/gerrit_review_verification/.workspace/os/FreeRTOS/Kernel/tasks.c:918
20001386:	479d                	li	a5,7
20001388:	0127f363          	bgeu	a5,s2,2000138e <prvInitialiseNewTask.constprop.0+0x66>
2000138c:	491d                	li	s2,7
/jenkins/node-gerritverify/workspace/gerrit_review_verification/.workspace/os/FreeRTOS/Kernel/tasks.c:935
2000138e:	00448513          	addi	a0,s1,4
/jenkins/node-gerritverify/workspace/gerrit_review_verification/.workspace/os/FreeRTOS/Kernel/tasks.c:927
20001392:	0324a623          	sw	s2,44(s1)
/jenkins/node-gerritverify/workspace/gerrit_review_verification/.workspace/os/FreeRTOS/Kernel/tasks.c:930
20001396:	0524a623          	sw	s2,76(s1)
/jenkins/node-gerritverify/workspace/gerrit_review_verification/.workspace/os/FreeRTOS/Kernel/tasks.c:931
2000139a:	0404a823          	sw	zero,80(s1)
/jenkins/node-gerritverify/workspace/gerrit_review_verification/.workspace/os/FreeRTOS/Kernel/tasks.c:935
2000139e:	237000ef          	jal	ra,20001dd4 <vListInitialiseItem>
/jenkins/node-gerritverify/workspace/gerrit_review_verification/.workspace/os/FreeRTOS/Kernel/tasks.c:936
200013a2:	01848513          	addi	a0,s1,24
200013a6:	22f000ef          	jal	ra,20001dd4 <vListInitialiseItem>
/jenkins/node-gerritverify/workspace/gerrit_review_verification/.workspace/os/FreeRTOS/Kernel/tasks.c:943
200013aa:	47a1                	li	a5,8
200013ac:	41278433          	sub	s0,a5,s2
/jenkins/node-gerritverify/workspace/gerrit_review_verification/.workspace/os/FreeRTOS/Kernel/tasks.c:977
200013b0:	4651                	li	a2,20
200013b2:	4581                	li	a1,0
/jenkins/node-gerritverify/workspace/gerrit_review_verification/.workspace/os/FreeRTOS/Kernel/tasks.c:940
200013b4:	c884                	sw	s1,16(s1)
/jenkins/node-gerritverify/workspace/gerrit_review_verification/.workspace/os/FreeRTOS/Kernel/tasks.c:943
200013b6:	cc80                	sw	s0,24(s1)
/jenkins/node-gerritverify/workspace/gerrit_review_verification/.workspace/os/FreeRTOS/Kernel/tasks.c:944
200013b8:	d0c4                	sw	s1,36(s1)
/jenkins/node-gerritverify/workspace/gerrit_review_verification/.workspace/os/FreeRTOS/Kernel/tasks.c:960
200013ba:	0604a423          	sw	zero,104(s1)
/jenkins/node-gerritverify/workspace/gerrit_review_verification/.workspace/os/FreeRTOS/Kernel/tasks.c:977
200013be:	05448513          	addi	a0,s1,84
200013c2:	2e0020ef          	jal	ra,200036a2 <memset>
/jenkins/node-gerritverify/workspace/gerrit_review_verification/.workspace/os/FreeRTOS/Kernel/tasks.c:1049
200013c6:	8656                	mv	a2,s5
/jenkins/node-gerritverify/workspace/gerrit_review_verification/.workspace/os/FreeRTOS/Kernel/tasks.c:983
200013c8:	06048623          	sb	zero,108(s1)
200013cc:	060486a3          	sb	zero,109(s1)
200013d0:	06048723          	sb	zero,110(s1)
200013d4:	060487a3          	sb	zero,111(s1)
/jenkins/node-gerritverify/workspace/gerrit_review_verification/.workspace/os/FreeRTOS/Kernel/tasks.c:984
200013d8:	06048823          	sb	zero,112(s1)
/jenkins/node-gerritverify/workspace/gerrit_review_verification/.workspace/os/FreeRTOS/Kernel/tasks.c:1049
200013dc:	85d2                	mv	a1,s4
200013de:	854e                	mv	a0,s3
200013e0:	b7cff0ef          	jal	ra,2000075c <pxPortInitialiseStack>
200013e4:	c088                	sw	a0,0(s1)
/jenkins/node-gerritverify/workspace/gerrit_review_verification/.workspace/os/FreeRTOS/Kernel/tasks.c:1055
200013e6:	000b0463          	beqz	s6,200013ee <prvInitialiseNewTask.constprop.0+0xc6>
/jenkins/node-gerritverify/workspace/gerrit_review_verification/.workspace/os/FreeRTOS/Kernel/tasks.c:1059
200013ea:	009b2023          	sw	s1,0(s6)
/jenkins/node-gerritverify/workspace/gerrit_review_verification/.workspace/os/FreeRTOS/Kernel/tasks.c:1065
200013ee:	40f2                	lw	ra,28(sp)
200013f0:	4462                	lw	s0,24(sp)
200013f2:	44d2                	lw	s1,20(sp)
200013f4:	4942                	lw	s2,16(sp)
200013f6:	49b2                	lw	s3,12(sp)
200013f8:	4a22                	lw	s4,8(sp)
200013fa:	4a92                	lw	s5,4(sp)
200013fc:	4b02                	lw	s6,0(sp)
200013fe:	6105                	addi	sp,sp,32
20001400:	8082                	ret
/jenkins/node-gerritverify/workspace/gerrit_review_verification/.workspace/os/FreeRTOS/Kernel/tasks.c:913
20001402:	02048a23          	sb	zero,52(s1)
20001406:	b741                	j	20001386 <prvInitialiseNewTask.constprop.0+0x5e>

20001408 <prvIdleTask>:
prvIdleTask():
/jenkins/node-gerritverify/workspace/gerrit_review_verification/.workspace/os/FreeRTOS/Kernel/tasks.c:3424
20001408:	7179                	addi	sp,sp,-48
2000140a:	d422                	sw	s0,40(sp)
2000140c:	d226                	sw	s1,36(sp)
2000140e:	d04a                	sw	s2,32(sp)
20001410:	cc52                	sw	s4,24(sp)
20001412:	90008437          	lui	s0,0x90008
20001416:	90008937          	lui	s2,0x90008
2000141a:	900084b7          	lui	s1,0x90008
2000141e:	90008a37          	lui	s4,0x90008
20001422:	ce4e                	sw	s3,28(sp)
20001424:	ca56                	sw	s5,20(sp)
20001426:	c85a                	sw	s6,16(sp)
20001428:	c65e                	sw	s7,12(sp)
2000142a:	d606                	sw	ra,44(sp)
2000142c:	c462                	sw	s8,8(sp)
2000142e:	18c40413          	addi	s0,s0,396 # 9000818c <_sp+0xffff818c>
20001432:	33490913          	addi	s2,s2,820 # 90008334 <_sp+0xffff8334>
20001436:	18848493          	addi	s1,s1,392 # 90008188 <_sp+0xffff8188>
2000143a:	244a0a13          	addi	s4,s4,580 # 90008244 <_sp+0xffff8244>
prvDeleteTCB():
/jenkins/node-gerritverify/workspace/gerrit_review_verification/.workspace/os/FreeRTOS/Kernel/tasks.c:3968
2000143e:	4985                	li	s3,1
/jenkins/node-gerritverify/workspace/gerrit_review_verification/.workspace/os/FreeRTOS/Kernel/tasks.c:3978
20001440:	4a89                	li	s5,2
/jenkins/node-gerritverify/workspace/gerrit_review_verification/.workspace/os/FreeRTOS/Kernel/tasks.c:3968
20001442:	4b85                	li	s7,1
SysTimer_SetSWIRQ():
/jenkins/node-gerritverify/workspace/gerrit_review_verification/.workspace/bsp/arch/riscv/n309/include/core_feature_timer.h:297
20001444:	02001b37          	lui	s6,0x2001
prvCheckTasksWaitingTermination():
/jenkins/node-gerritverify/workspace/gerrit_review_verification/.workspace/os/FreeRTOS/Kernel/tasks.c:3690
20001448:	401c                	lw	a5,0(s0)
2000144a:	cfb1                	beqz	a5,200014a6 <prvIdleTask+0x9e>
/jenkins/node-gerritverify/workspace/gerrit_review_verification/.workspace/os/FreeRTOS/Kernel/tasks.c:3692
2000144c:	b34ff0ef          	jal	ra,20000780 <vPortEnterCritical>
/jenkins/node-gerritverify/workspace/gerrit_review_verification/.workspace/os/FreeRTOS/Kernel/tasks.c:3694
20001450:	00c92783          	lw	a5,12(s2)
20001454:	00c7ac03          	lw	s8,12(a5)
/jenkins/node-gerritverify/workspace/gerrit_review_verification/.workspace/os/FreeRTOS/Kernel/tasks.c:3695
20001458:	004c0513          	addi	a0,s8,4
2000145c:	1c7000ef          	jal	ra,20001e22 <uxListRemove>
/jenkins/node-gerritverify/workspace/gerrit_review_verification/.workspace/os/FreeRTOS/Kernel/tasks.c:3696
20001460:	409c                	lw	a5,0(s1)
20001462:	17fd                	addi	a5,a5,-1
20001464:	c09c                	sw	a5,0(s1)
/jenkins/node-gerritverify/workspace/gerrit_review_verification/.workspace/os/FreeRTOS/Kernel/tasks.c:3697
20001466:	401c                	lw	a5,0(s0)
20001468:	17fd                	addi	a5,a5,-1
2000146a:	c01c                	sw	a5,0(s0)
/jenkins/node-gerritverify/workspace/gerrit_review_verification/.workspace/os/FreeRTOS/Kernel/tasks.c:3699
2000146c:	b5cff0ef          	jal	ra,200007c8 <vPortExitCritical>
prvDeleteTCB():
/jenkins/node-gerritverify/workspace/gerrit_review_verification/.workspace/os/FreeRTOS/Kernel/tasks.c:3961
20001470:	071c4783          	lbu	a5,113(s8)
20001474:	c385                	beqz	a5,20001494 <prvIdleTask+0x8c>
/jenkins/node-gerritverify/workspace/gerrit_review_verification/.workspace/os/FreeRTOS/Kernel/tasks.c:3968
20001476:	05378863          	beq	a5,s3,200014c6 <prvIdleTask+0xbe>
/jenkins/node-gerritverify/workspace/gerrit_review_verification/.workspace/os/FreeRTOS/Kernel/tasks.c:3978
2000147a:	fd5787e3          	beq	a5,s5,20001448 <prvIdleTask+0x40>
vPortRaiseBASEPRI():
/jenkins/node-gerritverify/workspace/gerrit_review_verification/.workspace/bsp/arch/riscv/n309/os_portable/freertos/portmacro.h:171
2000147e:	900007b7          	lui	a5,0x90000
20001482:	0647c703          	lbu	a4,100(a5) # 90000064 <_sp+0xffff0064>
__ECLIC_SetMth():
/jenkins/node-gerritverify/workspace/gerrit_review_verification/.workspace/bsp/arch/riscv/n309/include/core_feature_eclic.h:340
20001486:	0c0007b7          	lui	a5,0xc000
2000148a:	00e785a3          	sb	a4,11(a5) # c00000b <__HEAP_SIZE+0xbffb00b>
vPortRaiseBASEPRI():
/jenkins/node-gerritverify/workspace/gerrit_review_verification/.workspace/bsp/arch/riscv/n309/os_portable/freertos/portmacro.h:172
2000148e:	0ff0000f          	fence
prvDeleteTCB():
/jenkins/node-gerritverify/workspace/gerrit_review_verification/.workspace/os/FreeRTOS/Kernel/tasks.c:3978
20001492:	a001                	j	20001492 <prvIdleTask+0x8a>
/jenkins/node-gerritverify/workspace/gerrit_review_verification/.workspace/os/FreeRTOS/Kernel/tasks.c:3965
20001494:	030c2503          	lw	a0,48(s8)
20001498:	042010ef          	jal	ra,200024da <vPortFree>
/jenkins/node-gerritverify/workspace/gerrit_review_verification/.workspace/os/FreeRTOS/Kernel/tasks.c:3966
2000149c:	8562                	mv	a0,s8
2000149e:	03c010ef          	jal	ra,200024da <vPortFree>
prvCheckTasksWaitingTermination():
/jenkins/node-gerritverify/workspace/gerrit_review_verification/.workspace/os/FreeRTOS/Kernel/tasks.c:3690
200014a2:	401c                	lw	a5,0(s0)
200014a4:	f7c5                	bnez	a5,2000144c <prvIdleTask+0x44>
prvIdleTask():
/jenkins/node-gerritverify/workspace/gerrit_review_verification/.workspace/os/FreeRTOS/Kernel/tasks.c:3463
200014a6:	000a2783          	lw	a5,0(s4)
200014aa:	f8f9ffe3          	bgeu	s3,a5,20001448 <prvIdleTask+0x40>
SysTimer_SetSWIRQ():
/jenkins/node-gerritverify/workspace/gerrit_review_verification/.workspace/bsp/arch/riscv/n309/include/core_feature_timer.h:293
200014ae:	f14027f3          	csrr	a5,mhartid
/jenkins/node-gerritverify/workspace/gerrit_review_verification/.workspace/bsp/arch/riscv/n309/include/core_feature_timer.h:294
200014b2:	ef91                	bnez	a5,200014ce <prvIdleTask+0xc6>
/jenkins/node-gerritverify/workspace/gerrit_review_verification/.workspace/bsp/arch/riscv/n309/include/core_feature_timer.h:295
200014b4:	ffcb2783          	lw	a5,-4(s6) # 2000ffc <__HEAP_SIZE+0x1ffbffc>
200014b8:	0017e793          	ori	a5,a5,1
200014bc:	fefb2e23          	sw	a5,-4(s6)
prvIdleTask():
/jenkins/node-gerritverify/workspace/gerrit_review_verification/.workspace/os/FreeRTOS/Kernel/tasks.c:3465
200014c0:	0ff0000f          	fence
200014c4:	b751                	j	20001448 <prvIdleTask+0x40>
prvDeleteTCB():
/jenkins/node-gerritverify/workspace/gerrit_review_verification/.workspace/os/FreeRTOS/Kernel/tasks.c:3972
200014c6:	8562                	mv	a0,s8
200014c8:	012010ef          	jal	ra,200024da <vPortFree>
200014cc:	bfb5                	j	20001448 <prvIdleTask+0x40>
SysTimer_SetSWIRQ():
/jenkins/node-gerritverify/workspace/gerrit_review_verification/.workspace/bsp/arch/riscv/n309/include/core_feature_timer.h:297
200014ce:	078a                	slli	a5,a5,0x2
200014d0:	97da                	add	a5,a5,s6
__SW():
/jenkins/node-gerritverify/workspace/gerrit_review_verification/.workspace/bsp/arch/riscv/n309/include/core_feature_base.h:1460
200014d2:	0177a023          	sw	s7,0(a5)
prvIdleTask():
/jenkins/node-gerritverify/workspace/gerrit_review_verification/.workspace/os/FreeRTOS/Kernel/tasks.c:3465
200014d6:	0ff0000f          	fence
200014da:	b7bd                	j	20001448 <prvIdleTask+0x40>

200014dc <xTaskIncrementTick.part.0>:
xTaskIncrementTick():
/jenkins/node-gerritverify/workspace/gerrit_review_verification/.workspace/os/FreeRTOS/Kernel/tasks.c:2740
200014dc:	900087b7          	lui	a5,0x90008
/jenkins/node-gerritverify/workspace/gerrit_review_verification/.workspace/os/FreeRTOS/Kernel/tasks.c:2725
200014e0:	7179                	addi	sp,sp,-48
/jenkins/node-gerritverify/workspace/gerrit_review_verification/.workspace/os/FreeRTOS/Kernel/tasks.c:2740
200014e2:	1b078793          	addi	a5,a5,432 # 900081b0 <_sp+0xffff81b0>
/jenkins/node-gerritverify/workspace/gerrit_review_verification/.workspace/os/FreeRTOS/Kernel/tasks.c:2725
200014e6:	d04a                	sw	s2,32(sp)
/jenkins/node-gerritverify/workspace/gerrit_review_verification/.workspace/os/FreeRTOS/Kernel/tasks.c:2740
200014e8:	0007a903          	lw	s2,0(a5)
/jenkins/node-gerritverify/workspace/gerrit_review_verification/.workspace/os/FreeRTOS/Kernel/tasks.c:2725
200014ec:	d606                	sw	ra,44(sp)
200014ee:	d422                	sw	s0,40(sp)
200014f0:	d226                	sw	s1,36(sp)
200014f2:	ce4e                	sw	s3,28(sp)
200014f4:	cc52                	sw	s4,24(sp)
200014f6:	ca56                	sw	s5,20(sp)
200014f8:	c85a                	sw	s6,16(sp)
200014fa:	c65e                	sw	s7,12(sp)
200014fc:	c462                	sw	s8,8(sp)
200014fe:	c266                	sw	s9,4(sp)
/jenkins/node-gerritverify/workspace/gerrit_review_verification/.workspace/os/FreeRTOS/Kernel/tasks.c:2740
20001500:	0905                	addi	s2,s2,1
/jenkins/node-gerritverify/workspace/gerrit_review_verification/.workspace/os/FreeRTOS/Kernel/tasks.c:2744
20001502:	0127a023          	sw	s2,0(a5)
/jenkins/node-gerritverify/workspace/gerrit_review_verification/.workspace/os/FreeRTOS/Kernel/tasks.c:2746
20001506:	0e090663          	beqz	s2,200015f2 <xTaskIncrementTick.part.0+0x116>
2000150a:	90008cb7          	lui	s9,0x90008
2000150e:	1a0c8c93          	addi	s9,s9,416 # 900081a0 <_sp+0xffff81a0>
/jenkins/node-gerritverify/workspace/gerrit_review_verification/.workspace/os/FreeRTOS/Kernel/tasks.c:2759
20001512:	000ca783          	lw	a5,0(s9)
20001516:	08f96463          	bltu	s2,a5,2000159e <xTaskIncrementTick.part.0+0xc2>
/jenkins/node-gerritverify/workspace/gerrit_review_verification/.workspace/os/FreeRTOS/Kernel/tasks.c:2763
2000151a:	900089b7          	lui	s3,0x90008
2000151e:	17898993          	addi	s3,s3,376 # 90008178 <_sp+0xffff8178>
20001522:	0009a783          	lw	a5,0(s3)
20001526:	90008a37          	lui	s4,0x90008
2000152a:	439c                	lw	a5,0(a5)
2000152c:	90008ab7          	lui	s5,0x90008
/jenkins/node-gerritverify/workspace/gerrit_review_verification/.workspace/os/FreeRTOS/Kernel/tasks.c:2729
20001530:	4b01                	li	s6,0
20001532:	244a0a13          	addi	s4,s4,580 # 90008244 <_sp+0xffff8244>
20001536:	174a8a93          	addi	s5,s5,372 # 90008174 <_sp+0xffff8174>
/jenkins/node-gerritverify/workspace/gerrit_review_verification/.workspace/os/FreeRTOS/Kernel/tasks.c:2763
2000153a:	cff1                	beqz	a5,20001616 <xTaskIncrementTick.part.0+0x13a>
/jenkins/node-gerritverify/workspace/gerrit_review_verification/.workspace/os/FreeRTOS/Kernel/tasks.c:2813
2000153c:	90008c37          	lui	s8,0x90008
20001540:	4bd1                	li	s7,20
20001542:	a089                	j	20001584 <xTaskIncrementTick.part.0+0xa8>
/jenkins/node-gerritverify/workspace/gerrit_review_verification/.workspace/os/FreeRTOS/Kernel/tasks.c:2798
20001544:	0df000ef          	jal	ra,20001e22 <uxListRemove>
/jenkins/node-gerritverify/workspace/gerrit_review_verification/.workspace/os/FreeRTOS/Kernel/tasks.c:2802
20001548:	541c                	lw	a5,40(s0)
/jenkins/node-gerritverify/workspace/gerrit_review_verification/.workspace/os/FreeRTOS/Kernel/tasks.c:2804
2000154a:	01840513          	addi	a0,s0,24
/jenkins/node-gerritverify/workspace/gerrit_review_verification/.workspace/os/FreeRTOS/Kernel/tasks.c:2802
2000154e:	c399                	beqz	a5,20001554 <xTaskIncrementTick.part.0+0x78>
/jenkins/node-gerritverify/workspace/gerrit_review_verification/.workspace/os/FreeRTOS/Kernel/tasks.c:2804
20001550:	0d3000ef          	jal	ra,20001e22 <uxListRemove>
/jenkins/node-gerritverify/workspace/gerrit_review_verification/.workspace/os/FreeRTOS/Kernel/tasks.c:2813
20001554:	545c                	lw	a5,44(s0)
20001556:	198c0713          	addi	a4,s8,408 # 90008198 <_sp+0xffff8198>
2000155a:	4314                	lw	a3,0(a4)
2000155c:	03778533          	mul	a0,a5,s7
20001560:	85a6                	mv	a1,s1
20001562:	9552                	add	a0,a0,s4
20001564:	00f6f363          	bgeu	a3,a5,2000156a <xTaskIncrementTick.part.0+0x8e>
20001568:	c31c                	sw	a5,0(a4)
2000156a:	071000ef          	jal	ra,20001dda <vListInsertEnd>
/jenkins/node-gerritverify/workspace/gerrit_review_verification/.workspace/os/FreeRTOS/Kernel/tasks.c:2823
2000156e:	000aa783          	lw	a5,0(s5)
20001572:	5458                	lw	a4,44(s0)
20001574:	57dc                	lw	a5,44(a5)
20001576:	00f76363          	bltu	a4,a5,2000157c <xTaskIncrementTick.part.0+0xa0>
/jenkins/node-gerritverify/workspace/gerrit_review_verification/.workspace/os/FreeRTOS/Kernel/tasks.c:2825
2000157a:	4b05                	li	s6,1
/jenkins/node-gerritverify/workspace/gerrit_review_verification/.workspace/os/FreeRTOS/Kernel/tasks.c:2763
2000157c:	0009a783          	lw	a5,0(s3)
20001580:	439c                	lw	a5,0(a5)
20001582:	cbd1                	beqz	a5,20001616 <xTaskIncrementTick.part.0+0x13a>
/jenkins/node-gerritverify/workspace/gerrit_review_verification/.workspace/os/FreeRTOS/Kernel/tasks.c:2779
20001584:	0009a783          	lw	a5,0(s3)
20001588:	47dc                	lw	a5,12(a5)
2000158a:	47c0                	lw	s0,12(a5)
/jenkins/node-gerritverify/workspace/gerrit_review_verification/.workspace/os/FreeRTOS/Kernel/tasks.c:2780
2000158c:	405c                	lw	a5,4(s0)
/jenkins/node-gerritverify/workspace/gerrit_review_verification/.workspace/os/FreeRTOS/Kernel/tasks.c:2798
2000158e:	00440493          	addi	s1,s0,4
20001592:	8526                	mv	a0,s1
/jenkins/node-gerritverify/workspace/gerrit_review_verification/.workspace/os/FreeRTOS/Kernel/tasks.c:2782
20001594:	faf978e3          	bgeu	s2,a5,20001544 <xTaskIncrementTick.part.0+0x68>
/jenkins/node-gerritverify/workspace/gerrit_review_verification/.workspace/os/FreeRTOS/Kernel/tasks.c:2789
20001598:	00fca023          	sw	a5,0(s9)
/jenkins/node-gerritverify/workspace/gerrit_review_verification/.workspace/os/FreeRTOS/Kernel/tasks.c:2790
2000159c:	a811                	j	200015b0 <xTaskIncrementTick.part.0+0xd4>
2000159e:	90008a37          	lui	s4,0x90008
200015a2:	90008ab7          	lui	s5,0x90008
/jenkins/node-gerritverify/workspace/gerrit_review_verification/.workspace/os/FreeRTOS/Kernel/tasks.c:2729
200015a6:	4b01                	li	s6,0
200015a8:	244a0a13          	addi	s4,s4,580 # 90008244 <_sp+0xffff8244>
200015ac:	174a8a93          	addi	s5,s5,372 # 90008174 <_sp+0xffff8174>
/jenkins/node-gerritverify/workspace/gerrit_review_verification/.workspace/os/FreeRTOS/Kernel/tasks.c:2842
200015b0:	000aa783          	lw	a5,0(s5)
200015b4:	46d1                	li	a3,20
200015b6:	57dc                	lw	a5,44(a5)
200015b8:	4705                	li	a4,1
200015ba:	02d787b3          	mul	a5,a5,a3
200015be:	9a3e                	add	s4,s4,a5
200015c0:	000a2783          	lw	a5,0(s4)
200015c4:	00f77363          	bgeu	a4,a5,200015ca <xTaskIncrementTick.part.0+0xee>
/jenkins/node-gerritverify/workspace/gerrit_review_verification/.workspace/os/FreeRTOS/Kernel/tasks.c:2844
200015c8:	4b05                	li	s6,1
/jenkins/node-gerritverify/workspace/gerrit_review_verification/.workspace/os/FreeRTOS/Kernel/tasks.c:2870
200015ca:	900087b7          	lui	a5,0x90008
200015ce:	1b47a783          	lw	a5,436(a5) # 900081b4 <_sp+0xffff81b4>
200015d2:	c391                	beqz	a5,200015d6 <xTaskIncrementTick.part.0+0xfa>
/jenkins/node-gerritverify/workspace/gerrit_review_verification/.workspace/os/FreeRTOS/Kernel/tasks.c:2872
200015d4:	4b05                	li	s6,1
/jenkins/node-gerritverify/workspace/gerrit_review_verification/.workspace/os/FreeRTOS/Kernel/tasks.c:2895
200015d6:	50b2                	lw	ra,44(sp)
200015d8:	5422                	lw	s0,40(sp)
200015da:	5492                	lw	s1,36(sp)
200015dc:	5902                	lw	s2,32(sp)
200015de:	49f2                	lw	s3,28(sp)
200015e0:	4a62                	lw	s4,24(sp)
200015e2:	4ad2                	lw	s5,20(sp)
200015e4:	4bb2                	lw	s7,12(sp)
200015e6:	4c22                	lw	s8,8(sp)
200015e8:	4c92                	lw	s9,4(sp)
200015ea:	855a                	mv	a0,s6
200015ec:	4b42                	lw	s6,16(sp)
200015ee:	6145                	addi	sp,sp,48
200015f0:	8082                	ret
/jenkins/node-gerritverify/workspace/gerrit_review_verification/.workspace/os/FreeRTOS/Kernel/tasks.c:2748
200015f2:	900087b7          	lui	a5,0x90008
200015f6:	17878793          	addi	a5,a5,376 # 90008178 <_sp+0xffff8178>
200015fa:	4398                	lw	a4,0(a5)
200015fc:	4318                	lw	a4,0(a4)
200015fe:	c305                	beqz	a4,2000161e <xTaskIncrementTick.part.0+0x142>
vPortRaiseBASEPRI():
/jenkins/node-gerritverify/workspace/gerrit_review_verification/.workspace/bsp/arch/riscv/n309/os_portable/freertos/portmacro.h:171
20001600:	900007b7          	lui	a5,0x90000
20001604:	0647c703          	lbu	a4,100(a5) # 90000064 <_sp+0xffff0064>
__ECLIC_SetMth():
/jenkins/node-gerritverify/workspace/gerrit_review_verification/.workspace/bsp/arch/riscv/n309/include/core_feature_eclic.h:340
20001608:	0c0007b7          	lui	a5,0xc000
2000160c:	00e785a3          	sb	a4,11(a5) # c00000b <__HEAP_SIZE+0xbffb00b>
vPortRaiseBASEPRI():
/jenkins/node-gerritverify/workspace/gerrit_review_verification/.workspace/bsp/arch/riscv/n309/os_portable/freertos/portmacro.h:172
20001610:	0ff0000f          	fence
xTaskIncrementTick():
/jenkins/node-gerritverify/workspace/gerrit_review_verification/.workspace/os/FreeRTOS/Kernel/tasks.c:2748
20001614:	a001                	j	20001614 <xTaskIncrementTick.part.0+0x138>
/jenkins/node-gerritverify/workspace/gerrit_review_verification/.workspace/os/FreeRTOS/Kernel/tasks.c:2770
20001616:	57fd                	li	a5,-1
20001618:	00fca023          	sw	a5,0(s9)
/jenkins/node-gerritverify/workspace/gerrit_review_verification/.workspace/os/FreeRTOS/Kernel/tasks.c:2771
2000161c:	bf51                	j	200015b0 <xTaskIncrementTick.part.0+0xd4>
/jenkins/node-gerritverify/workspace/gerrit_review_verification/.workspace/os/FreeRTOS/Kernel/tasks.c:2748
2000161e:	90008737          	lui	a4,0x90008
20001622:	17c70713          	addi	a4,a4,380 # 9000817c <_sp+0xffff817c>
20001626:	4394                	lw	a3,0(a5)
20001628:	4310                	lw	a2,0(a4)
2000162a:	c390                	sw	a2,0(a5)
2000162c:	c314                	sw	a3,0(a4)
2000162e:	90008737          	lui	a4,0x90008
20001632:	1a470713          	addi	a4,a4,420 # 900081a4 <_sp+0xffff81a4>
20001636:	4314                	lw	a3,0(a4)
20001638:	0685                	addi	a3,a3,1
2000163a:	c314                	sw	a3,0(a4)
prvResetNextTaskUnblockTime():
/jenkins/node-gerritverify/workspace/gerrit_review_verification/.workspace/os/FreeRTOS/Kernel/tasks.c:3990
2000163c:	4398                	lw	a4,0(a5)
2000163e:	4318                	lw	a4,0(a4)
20001640:	eb09                	bnez	a4,20001652 <xTaskIncrementTick.part.0+0x176>
/jenkins/node-gerritverify/workspace/gerrit_review_verification/.workspace/os/FreeRTOS/Kernel/tasks.c:3996
20001642:	90008cb7          	lui	s9,0x90008
20001646:	1a0c8c93          	addi	s9,s9,416 # 900081a0 <_sp+0xffff81a0>
2000164a:	57fd                	li	a5,-1
2000164c:	00fca023          	sw	a5,0(s9)
20001650:	b5c9                	j	20001512 <xTaskIncrementTick.part.0+0x36>
/jenkins/node-gerritverify/workspace/gerrit_review_verification/.workspace/os/FreeRTOS/Kernel/tasks.c:4004
20001652:	439c                	lw	a5,0(a5)
20001654:	90008cb7          	lui	s9,0x90008
20001658:	47dc                	lw	a5,12(a5)
2000165a:	1a0c8c93          	addi	s9,s9,416 # 900081a0 <_sp+0xffff81a0>
2000165e:	439c                	lw	a5,0(a5)
20001660:	00fca023          	sw	a5,0(s9)
/jenkins/node-gerritverify/workspace/gerrit_review_verification/.workspace/os/FreeRTOS/Kernel/tasks.c:4006
20001664:	b57d                	j	20001512 <xTaskIncrementTick.part.0+0x36>

20001666 <xTaskResumeAll.part.0>:
xTaskResumeAll():
/jenkins/node-gerritverify/workspace/gerrit_review_verification/.workspace/os/FreeRTOS/Kernel/tasks.c:2210
20001666:	7179                	addi	sp,sp,-48
20001668:	d226                	sw	s1,36(sp)
/jenkins/node-gerritverify/workspace/gerrit_review_verification/.workspace/os/FreeRTOS/Kernel/tasks.c:2226
2000166a:	900084b7          	lui	s1,0x90008
2000166e:	19048493          	addi	s1,s1,400 # 90008190 <_sp+0xffff8190>
/jenkins/node-gerritverify/workspace/gerrit_review_verification/.workspace/os/FreeRTOS/Kernel/tasks.c:2210
20001672:	d606                	sw	ra,44(sp)
20001674:	d422                	sw	s0,40(sp)
20001676:	d04a                	sw	s2,32(sp)
20001678:	ce4e                	sw	s3,28(sp)
2000167a:	cc52                	sw	s4,24(sp)
2000167c:	ca56                	sw	s5,20(sp)
2000167e:	c85a                	sw	s6,16(sp)
20001680:	c65e                	sw	s7,12(sp)
20001682:	c462                	sw	s8,8(sp)
20001684:	c266                	sw	s9,4(sp)
/jenkins/node-gerritverify/workspace/gerrit_review_verification/.workspace/os/FreeRTOS/Kernel/tasks.c:2224
20001686:	8faff0ef          	jal	ra,20000780 <vPortEnterCritical>
/jenkins/node-gerritverify/workspace/gerrit_review_verification/.workspace/os/FreeRTOS/Kernel/tasks.c:2226
2000168a:	409c                	lw	a5,0(s1)
2000168c:	17fd                	addi	a5,a5,-1
2000168e:	c09c                	sw	a5,0(s1)
/jenkins/node-gerritverify/workspace/gerrit_review_verification/.workspace/os/FreeRTOS/Kernel/tasks.c:2228
20001690:	409c                	lw	a5,0(s1)
20001692:	0e079f63          	bnez	a5,20001790 <xTaskResumeAll.part.0+0x12a>
/jenkins/node-gerritverify/workspace/gerrit_review_verification/.workspace/os/FreeRTOS/Kernel/tasks.c:2230
20001696:	900087b7          	lui	a5,0x90008
2000169a:	1887a783          	lw	a5,392(a5) # 90008188 <_sp+0xffff8188>
2000169e:	0e078963          	beqz	a5,20001790 <xTaskResumeAll.part.0+0x12a>
/jenkins/node-gerritverify/workspace/gerrit_review_verification/.workspace/os/FreeRTOS/Kernel/tasks.c:2234
200016a2:	900089b7          	lui	s3,0x90008
200016a6:	30c98993          	addi	s3,s3,780 # 9000830c <_sp+0xffff830c>
200016aa:	0009a783          	lw	a5,0(s3)
200016ae:	90008bb7          	lui	s7,0x90008
200016b2:	10078d63          	beqz	a5,200017cc <xTaskResumeAll.part.0+0x166>
200016b6:	90008a37          	lui	s4,0x90008
200016ba:	90008b37          	lui	s6,0x90008
200016be:	90008ab7          	lui	s5,0x90008
200016c2:	198a0a13          	addi	s4,s4,408 # 90008198 <_sp+0xffff8198>
200016c6:	244b0b13          	addi	s6,s6,580 # 90008244 <_sp+0xffff8244>
200016ca:	174a8a93          	addi	s5,s5,372 # 90008174 <_sp+0xffff8174>
200016ce:	1b4b8b93          	addi	s7,s7,436 # 900081b4 <_sp+0xffff81b4>
/jenkins/node-gerritverify/workspace/gerrit_review_verification/.workspace/os/FreeRTOS/Kernel/tasks.c:2239
200016d2:	4c51                	li	s8,20
/jenkins/node-gerritverify/workspace/gerrit_review_verification/.workspace/os/FreeRTOS/Kernel/tasks.c:2245
200016d4:	4c85                	li	s9,1
/jenkins/node-gerritverify/workspace/gerrit_review_verification/.workspace/os/FreeRTOS/Kernel/tasks.c:2236
200016d6:	00c9a783          	lw	a5,12(s3)
200016da:	47c0                	lw	s0,12(a5)
/jenkins/node-gerritverify/workspace/gerrit_review_verification/.workspace/os/FreeRTOS/Kernel/tasks.c:2237
200016dc:	01840513          	addi	a0,s0,24
200016e0:	742000ef          	jal	ra,20001e22 <uxListRemove>
/jenkins/node-gerritverify/workspace/gerrit_review_verification/.workspace/os/FreeRTOS/Kernel/tasks.c:2238
200016e4:	00440913          	addi	s2,s0,4
200016e8:	854a                	mv	a0,s2
200016ea:	738000ef          	jal	ra,20001e22 <uxListRemove>
/jenkins/node-gerritverify/workspace/gerrit_review_verification/.workspace/os/FreeRTOS/Kernel/tasks.c:2239
200016ee:	545c                	lw	a5,44(s0)
200016f0:	000a2703          	lw	a4,0(s4)
200016f4:	03878533          	mul	a0,a5,s8
200016f8:	85ca                	mv	a1,s2
200016fa:	955a                	add	a0,a0,s6
200016fc:	00f77463          	bgeu	a4,a5,20001704 <xTaskResumeAll.part.0+0x9e>
20001700:	00fa2023          	sw	a5,0(s4)
20001704:	2dd9                	jal	20001dda <vListInsertEnd>
/jenkins/node-gerritverify/workspace/gerrit_review_verification/.workspace/os/FreeRTOS/Kernel/tasks.c:2243
20001706:	000aa783          	lw	a5,0(s5)
2000170a:	5458                	lw	a4,44(s0)
2000170c:	57dc                	lw	a5,44(a5)
2000170e:	00f76463          	bltu	a4,a5,20001716 <xTaskResumeAll.part.0+0xb0>
/jenkins/node-gerritverify/workspace/gerrit_review_verification/.workspace/os/FreeRTOS/Kernel/tasks.c:2245
20001712:	019ba023          	sw	s9,0(s7)
/jenkins/node-gerritverify/workspace/gerrit_review_verification/.workspace/os/FreeRTOS/Kernel/tasks.c:2234
20001716:	0009a783          	lw	a5,0(s3)
2000171a:	ffd5                	bnez	a5,200016d6 <xTaskResumeAll.part.0+0x70>
prvResetNextTaskUnblockTime():
/jenkins/node-gerritverify/workspace/gerrit_review_verification/.workspace/os/FreeRTOS/Kernel/tasks.c:3990
2000171c:	900087b7          	lui	a5,0x90008
20001720:	17878793          	addi	a5,a5,376 # 90008178 <_sp+0xffff8178>
20001724:	4398                	lw	a4,0(a5)
20001726:	4318                	lw	a4,0(a4)
20001728:	c749                	beqz	a4,200017b2 <xTaskResumeAll.part.0+0x14c>
/jenkins/node-gerritverify/workspace/gerrit_review_verification/.workspace/os/FreeRTOS/Kernel/tasks.c:4004
2000172a:	4398                	lw	a4,0(a5)
2000172c:	900087b7          	lui	a5,0x90008
20001730:	4758                	lw	a4,12(a4)
20001732:	4318                	lw	a4,0(a4)
20001734:	1ae7a023          	sw	a4,416(a5) # 900081a0 <_sp+0xffff81a0>
xTaskResumeAll():
/jenkins/node-gerritverify/workspace/gerrit_review_verification/.workspace/os/FreeRTOS/Kernel/tasks.c:2269
20001738:	90008937          	lui	s2,0x90008
2000173c:	1a890913          	addi	s2,s2,424 # 900081a8 <_sp+0xffff81a8>
20001740:	00092403          	lw	s0,0(s2)
/jenkins/node-gerritverify/workspace/gerrit_review_verification/.workspace/os/FreeRTOS/Kernel/tasks.c:2271
20001744:	c405                	beqz	s0,2000176c <xTaskResumeAll.part.0+0x106>
/jenkins/node-gerritverify/workspace/gerrit_review_verification/.workspace/os/FreeRTOS/Kernel/tasks.c:2277
20001746:	4985                	li	s3,1
20001748:	a039                	j	20001756 <xTaskResumeAll.part.0+0xf0>
xTaskIncrementTick():
/jenkins/node-gerritverify/workspace/gerrit_review_verification/.workspace/os/FreeRTOS/Kernel/tasks.c:2277
2000174a:	3b49                	jal	200014dc <xTaskIncrementTick.part.0>
xTaskResumeAll():
/jenkins/node-gerritverify/workspace/gerrit_review_verification/.workspace/os/FreeRTOS/Kernel/tasks.c:2275
2000174c:	c119                	beqz	a0,20001752 <xTaskResumeAll.part.0+0xec>
/jenkins/node-gerritverify/workspace/gerrit_review_verification/.workspace/os/FreeRTOS/Kernel/tasks.c:2277
2000174e:	013ba023          	sw	s3,0(s7)
/jenkins/node-gerritverify/workspace/gerrit_review_verification/.workspace/os/FreeRTOS/Kernel/tasks.c:2284
20001752:	147d                	addi	s0,s0,-1
/jenkins/node-gerritverify/workspace/gerrit_review_verification/.workspace/os/FreeRTOS/Kernel/tasks.c:2285
20001754:	c811                	beqz	s0,20001768 <xTaskResumeAll.part.0+0x102>
xTaskIncrementTick():
/jenkins/node-gerritverify/workspace/gerrit_review_verification/.workspace/os/FreeRTOS/Kernel/tasks.c:2736
20001756:	409c                	lw	a5,0(s1)
20001758:	dbed                	beqz	a5,2000174a <xTaskResumeAll.part.0+0xe4>
/jenkins/node-gerritverify/workspace/gerrit_review_verification/.workspace/os/FreeRTOS/Kernel/tasks.c:2883
2000175a:	00092783          	lw	a5,0(s2)
xTaskResumeAll():
/jenkins/node-gerritverify/workspace/gerrit_review_verification/.workspace/os/FreeRTOS/Kernel/tasks.c:2284
2000175e:	147d                	addi	s0,s0,-1
xTaskIncrementTick():
/jenkins/node-gerritverify/workspace/gerrit_review_verification/.workspace/os/FreeRTOS/Kernel/tasks.c:2883
20001760:	0785                	addi	a5,a5,1
20001762:	00f92023          	sw	a5,0(s2)
xTaskResumeAll():
/jenkins/node-gerritverify/workspace/gerrit_review_verification/.workspace/os/FreeRTOS/Kernel/tasks.c:2285
20001766:	f865                	bnez	s0,20001756 <xTaskResumeAll.part.0+0xf0>
/jenkins/node-gerritverify/workspace/gerrit_review_verification/.workspace/os/FreeRTOS/Kernel/tasks.c:2287
20001768:	00092023          	sw	zero,0(s2)
/jenkins/node-gerritverify/workspace/gerrit_review_verification/.workspace/os/FreeRTOS/Kernel/tasks.c:2295
2000176c:	000ba783          	lw	a5,0(s7)
20001770:	c385                	beqz	a5,20001790 <xTaskResumeAll.part.0+0x12a>
SysTimer_SetSWIRQ():
/jenkins/node-gerritverify/workspace/gerrit_review_verification/.workspace/bsp/arch/riscv/n309/include/core_feature_timer.h:293
20001772:	f14027f3          	csrr	a5,mhartid
/jenkins/node-gerritverify/workspace/gerrit_review_verification/.workspace/bsp/arch/riscv/n309/include/core_feature_timer.h:294
20001776:	e7a1                	bnez	a5,200017be <xTaskResumeAll.part.0+0x158>
/jenkins/node-gerritverify/workspace/gerrit_review_verification/.workspace/bsp/arch/riscv/n309/include/core_feature_timer.h:295
20001778:	02001737          	lui	a4,0x2001
2000177c:	ffc72783          	lw	a5,-4(a4) # 2000ffc <__HEAP_SIZE+0x1ffbffc>
20001780:	0017e793          	ori	a5,a5,1
20001784:	fef72e23          	sw	a5,-4(a4)
xTaskResumeAll():
/jenkins/node-gerritverify/workspace/gerrit_review_verification/.workspace/os/FreeRTOS/Kernel/tasks.c:2302
20001788:	0ff0000f          	fence
/jenkins/node-gerritverify/workspace/gerrit_review_verification/.workspace/os/FreeRTOS/Kernel/tasks.c:2299
2000178c:	4405                	li	s0,1
2000178e:	a011                	j	20001792 <xTaskResumeAll.part.0+0x12c>
/jenkins/node-gerritverify/workspace/gerrit_review_verification/.workspace/os/FreeRTOS/Kernel/tasks.c:2213
20001790:	4401                	li	s0,0
/jenkins/node-gerritverify/workspace/gerrit_review_verification/.workspace/os/FreeRTOS/Kernel/tasks.c:2315
20001792:	836ff0ef          	jal	ra,200007c8 <vPortExitCritical>
/jenkins/node-gerritverify/workspace/gerrit_review_verification/.workspace/os/FreeRTOS/Kernel/tasks.c:2318
20001796:	50b2                	lw	ra,44(sp)
20001798:	8522                	mv	a0,s0
2000179a:	5422                	lw	s0,40(sp)
2000179c:	5492                	lw	s1,36(sp)
2000179e:	5902                	lw	s2,32(sp)
200017a0:	49f2                	lw	s3,28(sp)
200017a2:	4a62                	lw	s4,24(sp)
200017a4:	4ad2                	lw	s5,20(sp)
200017a6:	4b42                	lw	s6,16(sp)
200017a8:	4bb2                	lw	s7,12(sp)
200017aa:	4c22                	lw	s8,8(sp)
200017ac:	4c92                	lw	s9,4(sp)
200017ae:	6145                	addi	sp,sp,48
200017b0:	8082                	ret
prvResetNextTaskUnblockTime():
/jenkins/node-gerritverify/workspace/gerrit_review_verification/.workspace/os/FreeRTOS/Kernel/tasks.c:3996
200017b2:	900087b7          	lui	a5,0x90008
200017b6:	577d                	li	a4,-1
200017b8:	1ae7a023          	sw	a4,416(a5) # 900081a0 <_sp+0xffff81a0>
200017bc:	bfb5                	j	20001738 <xTaskResumeAll.part.0+0xd2>
SysTimer_SetSWIRQ():
/jenkins/node-gerritverify/workspace/gerrit_review_verification/.workspace/bsp/arch/riscv/n309/include/core_feature_timer.h:297
200017be:	02001737          	lui	a4,0x2001
200017c2:	078a                	slli	a5,a5,0x2
200017c4:	97ba                	add	a5,a5,a4
__SW():
/jenkins/node-gerritverify/workspace/gerrit_review_verification/.workspace/bsp/arch/riscv/n309/include/core_feature_base.h:1460
200017c6:	4705                	li	a4,1
200017c8:	c398                	sw	a4,0(a5)
/jenkins/node-gerritverify/workspace/gerrit_review_verification/.workspace/bsp/arch/riscv/n309/include/core_feature_base.h:1461
200017ca:	bf7d                	j	20001788 <xTaskResumeAll.part.0+0x122>
200017cc:	1b4b8b93          	addi	s7,s7,436
200017d0:	b7a5                	j	20001738 <xTaskResumeAll.part.0+0xd2>

200017d2 <xTaskCreateStatic>:
xTaskCreateStatic():
/jenkins/node-gerritverify/workspace/gerrit_review_verification/.workspace/os/FreeRTOS/Kernel/tasks.c:584
200017d2:	c7a1                	beqz	a5,2000181a <xTaskCreateStatic+0x48>
/jenkins/node-gerritverify/workspace/gerrit_review_verification/.workspace/os/FreeRTOS/Kernel/tasks.c:580 (discriminator 2)
200017d4:	1101                	addi	sp,sp,-32
200017d6:	cc22                	sw	s0,24(sp)
200017d8:	ce06                	sw	ra,28(sp)
200017da:	8442                	mv	s0,a6
/jenkins/node-gerritverify/workspace/gerrit_review_verification/.workspace/os/FreeRTOS/Kernel/tasks.c:585 (discriminator 2)
200017dc:	02080463          	beqz	a6,20001804 <xTaskCreateStatic+0x32>
200017e0:	88be                	mv	a7,a5
/jenkins/node-gerritverify/workspace/gerrit_review_verification/.workspace/os/FreeRTOS/Kernel/tasks.c:592
200017e2:	07400793          	li	a5,116
200017e6:	c63e                	sw	a5,12(sp)
/jenkins/node-gerritverify/workspace/gerrit_review_verification/.workspace/os/FreeRTOS/Kernel/tasks.c:593
200017e8:	4332                	lw	t1,12(sp)
200017ea:	04f30363          	beq	t1,a5,20001830 <xTaskCreateStatic+0x5e>
vPortRaiseBASEPRI():
/jenkins/node-gerritverify/workspace/gerrit_review_verification/.workspace/bsp/arch/riscv/n309/os_portable/freertos/portmacro.h:171
200017ee:	900007b7          	lui	a5,0x90000
200017f2:	0647c703          	lbu	a4,100(a5) # 90000064 <_sp+0xffff0064>
__ECLIC_SetMth():
/jenkins/node-gerritverify/workspace/gerrit_review_verification/.workspace/bsp/arch/riscv/n309/include/core_feature_eclic.h:340
200017f6:	0c0007b7          	lui	a5,0xc000
200017fa:	00e785a3          	sb	a4,11(a5) # c00000b <__HEAP_SIZE+0xbffb00b>
vPortRaiseBASEPRI():
/jenkins/node-gerritverify/workspace/gerrit_review_verification/.workspace/bsp/arch/riscv/n309/os_portable/freertos/portmacro.h:172
200017fe:	0ff0000f          	fence
xTaskCreateStatic():
/jenkins/node-gerritverify/workspace/gerrit_review_verification/.workspace/os/FreeRTOS/Kernel/tasks.c:593
20001802:	a001                	j	20001802 <xTaskCreateStatic+0x30>
vPortRaiseBASEPRI():
/jenkins/node-gerritverify/workspace/gerrit_review_verification/.workspace/bsp/arch/riscv/n309/os_portable/freertos/portmacro.h:171
20001804:	900007b7          	lui	a5,0x90000
20001808:	0647c703          	lbu	a4,100(a5) # 90000064 <_sp+0xffff0064>
__ECLIC_SetMth():
/jenkins/node-gerritverify/workspace/gerrit_review_verification/.workspace/bsp/arch/riscv/n309/include/core_feature_eclic.h:340
2000180c:	0c0007b7          	lui	a5,0xc000
20001810:	00e785a3          	sb	a4,11(a5) # c00000b <__HEAP_SIZE+0xbffb00b>
vPortRaiseBASEPRI():
/jenkins/node-gerritverify/workspace/gerrit_review_verification/.workspace/bsp/arch/riscv/n309/os_portable/freertos/portmacro.h:172
20001814:	0ff0000f          	fence
xTaskCreateStatic():
/jenkins/node-gerritverify/workspace/gerrit_review_verification/.workspace/os/FreeRTOS/Kernel/tasks.c:585 (discriminator 2)
20001818:	a001                	j	20001818 <xTaskCreateStatic+0x46>
vPortRaiseBASEPRI():
/jenkins/node-gerritverify/workspace/gerrit_review_verification/.workspace/bsp/arch/riscv/n309/os_portable/freertos/portmacro.h:171
2000181a:	900007b7          	lui	a5,0x90000
2000181e:	0647c703          	lbu	a4,100(a5) # 90000064 <_sp+0xffff0064>
__ECLIC_SetMth():
/jenkins/node-gerritverify/workspace/gerrit_review_verification/.workspace/bsp/arch/riscv/n309/include/core_feature_eclic.h:340
20001822:	0c0007b7          	lui	a5,0xc000
20001826:	00e785a3          	sb	a4,11(a5) # c00000b <__HEAP_SIZE+0xbffb00b>
vPortRaiseBASEPRI():
/jenkins/node-gerritverify/workspace/gerrit_review_verification/.workspace/bsp/arch/riscv/n309/os_portable/freertos/portmacro.h:172
2000182a:	0ff0000f          	fence
xTaskCreateStatic():
/jenkins/node-gerritverify/workspace/gerrit_review_verification/.workspace/os/FreeRTOS/Kernel/tasks.c:584 (discriminator 1)
2000182e:	a001                	j	2000182e <xTaskCreateStatic+0x5c>
/jenkins/node-gerritverify/workspace/gerrit_review_verification/.workspace/os/FreeRTOS/Kernel/tasks.c:603
20001830:	03182823          	sw	a7,48(a6)
/jenkins/node-gerritverify/workspace/gerrit_review_verification/.workspace/os/FreeRTOS/Kernel/tasks.c:609
20001834:	4889                	li	a7,2
/jenkins/node-gerritverify/workspace/gerrit_review_verification/.workspace/os/FreeRTOS/Kernel/tasks.c:613
20001836:	003c                	addi	a5,sp,8
/jenkins/node-gerritverify/workspace/gerrit_review_verification/.workspace/os/FreeRTOS/Kernel/tasks.c:609
20001838:	071808a3          	sb	a7,113(a6)
/jenkins/node-gerritverify/workspace/gerrit_review_verification/.workspace/os/FreeRTOS/Kernel/tasks.c:594
2000183c:	48b2                	lw	a7,12(sp)
/jenkins/node-gerritverify/workspace/gerrit_review_verification/.workspace/os/FreeRTOS/Kernel/tasks.c:613
2000183e:	34ed                	jal	20001328 <prvInitialiseNewTask.constprop.0>
/jenkins/node-gerritverify/workspace/gerrit_review_verification/.workspace/os/FreeRTOS/Kernel/tasks.c:614
20001840:	8522                	mv	a0,s0
20001842:	ff6ff0ef          	jal	ra,20001038 <prvAddNewTaskToReadyList>
/jenkins/node-gerritverify/workspace/gerrit_review_verification/.workspace/os/FreeRTOS/Kernel/tasks.c:622
20001846:	40f2                	lw	ra,28(sp)
20001848:	4462                	lw	s0,24(sp)
2000184a:	4522                	lw	a0,8(sp)
2000184c:	6105                	addi	sp,sp,32
2000184e:	8082                	ret

20001850 <xTaskCreate>:
xTaskCreate():
/jenkins/node-gerritverify/workspace/gerrit_review_verification/.workspace/os/FreeRTOS/Kernel/tasks.c:732
20001850:	7179                	addi	sp,sp,-48
20001852:	ce4e                	sw	s3,28(sp)
20001854:	89aa                	mv	s3,a0
/jenkins/node-gerritverify/workspace/gerrit_review_verification/.workspace/os/FreeRTOS/Kernel/tasks.c:766
20001856:	00261513          	slli	a0,a2,0x2
/jenkins/node-gerritverify/workspace/gerrit_review_verification/.workspace/os/FreeRTOS/Kernel/tasks.c:732
2000185a:	d226                	sw	s1,36(sp)
2000185c:	cc52                	sw	s4,24(sp)
2000185e:	ca56                	sw	s5,20(sp)
20001860:	c85a                	sw	s6,16(sp)
20001862:	c65e                	sw	s7,12(sp)
20001864:	d606                	sw	ra,44(sp)
20001866:	d422                	sw	s0,40(sp)
20001868:	d04a                	sw	s2,32(sp)
2000186a:	84b2                	mv	s1,a2
2000186c:	8a2e                	mv	s4,a1
2000186e:	8ab6                	mv	s5,a3
20001870:	8b3a                	mv	s6,a4
20001872:	8bbe                	mv	s7,a5
/jenkins/node-gerritverify/workspace/gerrit_review_verification/.workspace/os/FreeRTOS/Kernel/tasks.c:766
20001874:	2c3000ef          	jal	ra,20002336 <pvPortMalloc>
/jenkins/node-gerritverify/workspace/gerrit_review_verification/.workspace/os/FreeRTOS/Kernel/tasks.c:768
20001878:	c131                	beqz	a0,200018bc <xTaskCreate+0x6c>
2000187a:	842a                	mv	s0,a0
/jenkins/node-gerritverify/workspace/gerrit_review_verification/.workspace/os/FreeRTOS/Kernel/tasks.c:771
2000187c:	07400513          	li	a0,116
20001880:	2b7000ef          	jal	ra,20002336 <pvPortMalloc>
20001884:	892a                	mv	s2,a0
/jenkins/node-gerritverify/workspace/gerrit_review_verification/.workspace/os/FreeRTOS/Kernel/tasks.c:773
20001886:	cd0d                	beqz	a0,200018c0 <xTaskCreate+0x70>
/jenkins/node-gerritverify/workspace/gerrit_review_verification/.workspace/os/FreeRTOS/Kernel/tasks.c:802
20001888:	882a                	mv	a6,a0
2000188a:	87de                	mv	a5,s7
2000188c:	875a                	mv	a4,s6
2000188e:	86d6                	mv	a3,s5
20001890:	8626                	mv	a2,s1
20001892:	85d2                	mv	a1,s4
/jenkins/node-gerritverify/workspace/gerrit_review_verification/.workspace/os/FreeRTOS/Kernel/tasks.c:776
20001894:	d900                	sw	s0,48(a0)
/jenkins/node-gerritverify/workspace/gerrit_review_verification/.workspace/os/FreeRTOS/Kernel/tasks.c:798
20001896:	060508a3          	sb	zero,113(a0)
/jenkins/node-gerritverify/workspace/gerrit_review_verification/.workspace/os/FreeRTOS/Kernel/tasks.c:802
2000189a:	854e                	mv	a0,s3
2000189c:	3471                	jal	20001328 <prvInitialiseNewTask.constprop.0>
/jenkins/node-gerritverify/workspace/gerrit_review_verification/.workspace/os/FreeRTOS/Kernel/tasks.c:803
2000189e:	854a                	mv	a0,s2
200018a0:	f98ff0ef          	jal	ra,20001038 <prvAddNewTaskToReadyList>
/jenkins/node-gerritverify/workspace/gerrit_review_verification/.workspace/os/FreeRTOS/Kernel/tasks.c:804
200018a4:	4505                	li	a0,1
/jenkins/node-gerritverify/workspace/gerrit_review_verification/.workspace/os/FreeRTOS/Kernel/tasks.c:812
200018a6:	50b2                	lw	ra,44(sp)
200018a8:	5422                	lw	s0,40(sp)
200018aa:	5492                	lw	s1,36(sp)
200018ac:	5902                	lw	s2,32(sp)
200018ae:	49f2                	lw	s3,28(sp)
200018b0:	4a62                	lw	s4,24(sp)
200018b2:	4ad2                	lw	s5,20(sp)
200018b4:	4b42                	lw	s6,16(sp)
200018b6:	4bb2                	lw	s7,12(sp)
200018b8:	6145                	addi	sp,sp,48
200018ba:	8082                	ret
/jenkins/node-gerritverify/workspace/gerrit_review_verification/.workspace/os/FreeRTOS/Kernel/tasks.c:808
200018bc:	557d                	li	a0,-1
/jenkins/node-gerritverify/workspace/gerrit_review_verification/.workspace/os/FreeRTOS/Kernel/tasks.c:811
200018be:	b7e5                	j	200018a6 <xTaskCreate+0x56>
/jenkins/node-gerritverify/workspace/gerrit_review_verification/.workspace/os/FreeRTOS/Kernel/tasks.c:782
200018c0:	8522                	mv	a0,s0
200018c2:	419000ef          	jal	ra,200024da <vPortFree>
/jenkins/node-gerritverify/workspace/gerrit_review_verification/.workspace/os/FreeRTOS/Kernel/tasks.c:808
200018c6:	557d                	li	a0,-1
200018c8:	bff9                	j	200018a6 <xTaskCreate+0x56>

200018ca <vTaskDelete>:
vTaskDelete():
/jenkins/node-gerritverify/workspace/gerrit_review_verification/.workspace/os/FreeRTOS/Kernel/tasks.c:1155
200018ca:	1141                	addi	sp,sp,-16
200018cc:	c422                	sw	s0,8(sp)
200018ce:	c226                	sw	s1,4(sp)
200018d0:	842a                	mv	s0,a0
/jenkins/node-gerritverify/workspace/gerrit_review_verification/.workspace/os/FreeRTOS/Kernel/tasks.c:1162
200018d2:	900084b7          	lui	s1,0x90008
/jenkins/node-gerritverify/workspace/gerrit_review_verification/.workspace/os/FreeRTOS/Kernel/tasks.c:1155
200018d6:	c606                	sw	ra,12(sp)
200018d8:	c04a                	sw	s2,0(sp)
/jenkins/node-gerritverify/workspace/gerrit_review_verification/.workspace/os/FreeRTOS/Kernel/tasks.c:1162
200018da:	17448493          	addi	s1,s1,372 # 90008174 <_sp+0xffff8174>
/jenkins/node-gerritverify/workspace/gerrit_review_verification/.workspace/os/FreeRTOS/Kernel/tasks.c:1158
200018de:	ea3fe0ef          	jal	ra,20000780 <vPortEnterCritical>
/jenkins/node-gerritverify/workspace/gerrit_review_verification/.workspace/os/FreeRTOS/Kernel/tasks.c:1162
200018e2:	cc5d                	beqz	s0,200019a0 <vTaskDelete+0xd6>
/jenkins/node-gerritverify/workspace/gerrit_review_verification/.workspace/os/FreeRTOS/Kernel/tasks.c:1165 (discriminator 4)
200018e4:	00440913          	addi	s2,s0,4
200018e8:	854a                	mv	a0,s2
200018ea:	2b25                	jal	20001e22 <uxListRemove>
/jenkins/node-gerritverify/workspace/gerrit_review_verification/.workspace/os/FreeRTOS/Kernel/tasks.c:1175 (discriminator 4)
200018ec:	541c                	lw	a5,40(s0)
200018ee:	c781                	beqz	a5,200018f6 <vTaskDelete+0x2c>
/jenkins/node-gerritverify/workspace/gerrit_review_verification/.workspace/os/FreeRTOS/Kernel/tasks.c:1177
200018f0:	01840513          	addi	a0,s0,24
200018f4:	233d                	jal	20001e22 <uxListRemove>
/jenkins/node-gerritverify/workspace/gerrit_review_verification/.workspace/os/FreeRTOS/Kernel/tasks.c:1188
200018f6:	900087b7          	lui	a5,0x90008
200018fa:	19478793          	addi	a5,a5,404 # 90008194 <_sp+0xffff8194>
200018fe:	4398                	lw	a4,0(a5)
/jenkins/node-gerritverify/workspace/gerrit_review_verification/.workspace/os/FreeRTOS/Kernel/tasks.c:1190
20001900:	4094                	lw	a3,0(s1)
/jenkins/node-gerritverify/workspace/gerrit_review_verification/.workspace/os/FreeRTOS/Kernel/tasks.c:1188
20001902:	0705                	addi	a4,a4,1
20001904:	c398                	sw	a4,0(a5)
/jenkins/node-gerritverify/workspace/gerrit_review_verification/.workspace/os/FreeRTOS/Kernel/tasks.c:1190
20001906:	06868f63          	beq	a3,s0,20001984 <vTaskDelete+0xba>
/jenkins/node-gerritverify/workspace/gerrit_review_verification/.workspace/os/FreeRTOS/Kernel/tasks.c:1217
2000190a:	900087b7          	lui	a5,0x90008
2000190e:	18878793          	addi	a5,a5,392 # 90008188 <_sp+0xffff8188>
20001912:	4398                	lw	a4,0(a5)
prvDeleteTCB():
/jenkins/node-gerritverify/workspace/gerrit_review_verification/.workspace/os/FreeRTOS/Kernel/tasks.c:3961
20001914:	07144683          	lbu	a3,113(s0)
vTaskDelete():
/jenkins/node-gerritverify/workspace/gerrit_review_verification/.workspace/os/FreeRTOS/Kernel/tasks.c:1217
20001918:	177d                	addi	a4,a4,-1
2000191a:	c398                	sw	a4,0(a5)
prvDeleteTCB():
/jenkins/node-gerritverify/workspace/gerrit_review_verification/.workspace/os/FreeRTOS/Kernel/tasks.c:3961
2000191c:	c295                	beqz	a3,20001940 <vTaskDelete+0x76>
/jenkins/node-gerritverify/workspace/gerrit_review_verification/.workspace/os/FreeRTOS/Kernel/tasks.c:3968
2000191e:	4785                	li	a5,1
20001920:	0af68a63          	beq	a3,a5,200019d4 <vTaskDelete+0x10a>
/jenkins/node-gerritverify/workspace/gerrit_review_verification/.workspace/os/FreeRTOS/Kernel/tasks.c:3978
20001924:	4789                	li	a5,2
20001926:	02f68363          	beq	a3,a5,2000194c <vTaskDelete+0x82>
vPortRaiseBASEPRI():
/jenkins/node-gerritverify/workspace/gerrit_review_verification/.workspace/bsp/arch/riscv/n309/os_portable/freertos/portmacro.h:171
2000192a:	900007b7          	lui	a5,0x90000
2000192e:	0647c703          	lbu	a4,100(a5) # 90000064 <_sp+0xffff0064>
__ECLIC_SetMth():
/jenkins/node-gerritverify/workspace/gerrit_review_verification/.workspace/bsp/arch/riscv/n309/include/core_feature_eclic.h:340
20001932:	0c0007b7          	lui	a5,0xc000
20001936:	00e785a3          	sb	a4,11(a5) # c00000b <__HEAP_SIZE+0xbffb00b>
vPortRaiseBASEPRI():
/jenkins/node-gerritverify/workspace/gerrit_review_verification/.workspace/bsp/arch/riscv/n309/os_portable/freertos/portmacro.h:172
2000193a:	0ff0000f          	fence
prvDeleteTCB():
/jenkins/node-gerritverify/workspace/gerrit_review_verification/.workspace/os/FreeRTOS/Kernel/tasks.c:3978
2000193e:	a001                	j	2000193e <vTaskDelete+0x74>
/jenkins/node-gerritverify/workspace/gerrit_review_verification/.workspace/os/FreeRTOS/Kernel/tasks.c:3965
20001940:	5808                	lw	a0,48(s0)
20001942:	399000ef          	jal	ra,200024da <vPortFree>
/jenkins/node-gerritverify/workspace/gerrit_review_verification/.workspace/os/FreeRTOS/Kernel/tasks.c:3966
20001946:	8522                	mv	a0,s0
20001948:	393000ef          	jal	ra,200024da <vPortFree>
prvResetNextTaskUnblockTime():
/jenkins/node-gerritverify/workspace/gerrit_review_verification/.workspace/os/FreeRTOS/Kernel/tasks.c:3990
2000194c:	900087b7          	lui	a5,0x90008
20001950:	17878793          	addi	a5,a5,376 # 90008178 <_sp+0xffff8178>
20001954:	4398                	lw	a4,0(a5)
20001956:	4318                	lw	a4,0(a4)
20001958:	e731                	bnez	a4,200019a4 <vTaskDelete+0xda>
/jenkins/node-gerritverify/workspace/gerrit_review_verification/.workspace/os/FreeRTOS/Kernel/tasks.c:3996
2000195a:	900087b7          	lui	a5,0x90008
2000195e:	577d                	li	a4,-1
20001960:	1ae7a023          	sw	a4,416(a5) # 900081a0 <_sp+0xffff81a0>
vTaskDelete():
/jenkins/node-gerritverify/workspace/gerrit_review_verification/.workspace/os/FreeRTOS/Kernel/tasks.c:1226
20001964:	e65fe0ef          	jal	ra,200007c8 <vPortExitCritical>
/jenkins/node-gerritverify/workspace/gerrit_review_verification/.workspace/os/FreeRTOS/Kernel/tasks.c:1230
20001968:	900087b7          	lui	a5,0x90008
2000196c:	1ac7a783          	lw	a5,428(a5) # 900081ac <_sp+0xffff81ac>
20001970:	c781                	beqz	a5,20001978 <vTaskDelete+0xae>
/jenkins/node-gerritverify/workspace/gerrit_review_verification/.workspace/os/FreeRTOS/Kernel/tasks.c:1232
20001972:	409c                	lw	a5,0(s1)
20001974:	04878063          	beq	a5,s0,200019b4 <vTaskDelete+0xea>
/jenkins/node-gerritverify/workspace/gerrit_review_verification/.workspace/os/FreeRTOS/Kernel/tasks.c:1242
20001978:	40b2                	lw	ra,12(sp)
2000197a:	4422                	lw	s0,8(sp)
2000197c:	4492                	lw	s1,4(sp)
2000197e:	4902                	lw	s2,0(sp)
20001980:	0141                	addi	sp,sp,16
20001982:	8082                	ret
/jenkins/node-gerritverify/workspace/gerrit_review_verification/.workspace/os/FreeRTOS/Kernel/tasks.c:1197
20001984:	90008537          	lui	a0,0x90008
20001988:	85ca                	mv	a1,s2
2000198a:	33450513          	addi	a0,a0,820 # 90008334 <_sp+0xffff8334>
2000198e:	21b1                	jal	20001dda <vListInsertEnd>
/jenkins/node-gerritverify/workspace/gerrit_review_verification/.workspace/os/FreeRTOS/Kernel/tasks.c:1202
20001990:	900087b7          	lui	a5,0x90008
20001994:	18c78793          	addi	a5,a5,396 # 9000818c <_sp+0xffff818c>
20001998:	4398                	lw	a4,0(a5)
2000199a:	0705                	addi	a4,a4,1
2000199c:	c398                	sw	a4,0(a5)
/jenkins/node-gerritverify/workspace/gerrit_review_verification/.workspace/os/FreeRTOS/Kernel/tasks.c:1213
2000199e:	b7d9                	j	20001964 <vTaskDelete+0x9a>
/jenkins/node-gerritverify/workspace/gerrit_review_verification/.workspace/os/FreeRTOS/Kernel/tasks.c:1162 (discriminator 1)
200019a0:	4080                	lw	s0,0(s1)
200019a2:	b789                	j	200018e4 <vTaskDelete+0x1a>
prvResetNextTaskUnblockTime():
/jenkins/node-gerritverify/workspace/gerrit_review_verification/.workspace/os/FreeRTOS/Kernel/tasks.c:4004
200019a4:	4398                	lw	a4,0(a5)
200019a6:	900087b7          	lui	a5,0x90008
200019aa:	4758                	lw	a4,12(a4)
200019ac:	4318                	lw	a4,0(a4)
200019ae:	1ae7a023          	sw	a4,416(a5) # 900081a0 <_sp+0xffff81a0>
/jenkins/node-gerritverify/workspace/gerrit_review_verification/.workspace/os/FreeRTOS/Kernel/tasks.c:4006
200019b2:	bf4d                	j	20001964 <vTaskDelete+0x9a>
vTaskDelete():
/jenkins/node-gerritverify/workspace/gerrit_review_verification/.workspace/os/FreeRTOS/Kernel/tasks.c:1234
200019b4:	900087b7          	lui	a5,0x90008
200019b8:	1907a783          	lw	a5,400(a5) # 90008190 <_sp+0xffff8190>
200019bc:	c385                	beqz	a5,200019dc <vTaskDelete+0x112>
vPortRaiseBASEPRI():
/jenkins/node-gerritverify/workspace/gerrit_review_verification/.workspace/bsp/arch/riscv/n309/os_portable/freertos/portmacro.h:171
200019be:	900007b7          	lui	a5,0x90000
200019c2:	0647c703          	lbu	a4,100(a5) # 90000064 <_sp+0xffff0064>
__ECLIC_SetMth():
/jenkins/node-gerritverify/workspace/gerrit_review_verification/.workspace/bsp/arch/riscv/n309/include/core_feature_eclic.h:340
200019c6:	0c0007b7          	lui	a5,0xc000
200019ca:	00e785a3          	sb	a4,11(a5) # c00000b <__HEAP_SIZE+0xbffb00b>
vPortRaiseBASEPRI():
/jenkins/node-gerritverify/workspace/gerrit_review_verification/.workspace/bsp/arch/riscv/n309/os_portable/freertos/portmacro.h:172
200019ce:	0ff0000f          	fence
vTaskDelete():
/jenkins/node-gerritverify/workspace/gerrit_review_verification/.workspace/os/FreeRTOS/Kernel/tasks.c:1234 (discriminator 1)
200019d2:	a001                	j	200019d2 <vTaskDelete+0x108>
prvDeleteTCB():
/jenkins/node-gerritverify/workspace/gerrit_review_verification/.workspace/os/FreeRTOS/Kernel/tasks.c:3972
200019d4:	8522                	mv	a0,s0
200019d6:	305000ef          	jal	ra,200024da <vPortFree>
200019da:	bf8d                	j	2000194c <vTaskDelete+0x82>
SysTimer_SetSWIRQ():
/jenkins/node-gerritverify/workspace/gerrit_review_verification/.workspace/bsp/arch/riscv/n309/include/core_feature_timer.h:293
200019dc:	f14027f3          	csrr	a5,mhartid
/jenkins/node-gerritverify/workspace/gerrit_review_verification/.workspace/bsp/arch/riscv/n309/include/core_feature_timer.h:294
200019e0:	ef81                	bnez	a5,200019f8 <vTaskDelete+0x12e>
/jenkins/node-gerritverify/workspace/gerrit_review_verification/.workspace/bsp/arch/riscv/n309/include/core_feature_timer.h:295
200019e2:	02001737          	lui	a4,0x2001
200019e6:	ffc72783          	lw	a5,-4(a4) # 2000ffc <__HEAP_SIZE+0x1ffbffc>
200019ea:	0017e793          	ori	a5,a5,1
200019ee:	fef72e23          	sw	a5,-4(a4)
vTaskDelete():
/jenkins/node-gerritverify/workspace/gerrit_review_verification/.workspace/os/FreeRTOS/Kernel/tasks.c:1235
200019f2:	0ff0000f          	fence
/jenkins/node-gerritverify/workspace/gerrit_review_verification/.workspace/os/FreeRTOS/Kernel/tasks.c:1242
200019f6:	b749                	j	20001978 <vTaskDelete+0xae>
SysTimer_SetSWIRQ():
/jenkins/node-gerritverify/workspace/gerrit_review_verification/.workspace/bsp/arch/riscv/n309/include/core_feature_timer.h:297
200019f8:	02001737          	lui	a4,0x2001
200019fc:	078a                	slli	a5,a5,0x2
200019fe:	97ba                	add	a5,a5,a4
__SW():
/jenkins/node-gerritverify/workspace/gerrit_review_verification/.workspace/bsp/arch/riscv/n309/include/core_feature_base.h:1460
20001a00:	4705                	li	a4,1
20001a02:	c398                	sw	a4,0(a5)
vTaskDelete():
/jenkins/node-gerritverify/workspace/gerrit_review_verification/.workspace/os/FreeRTOS/Kernel/tasks.c:1235
20001a04:	0ff0000f          	fence
/jenkins/node-gerritverify/workspace/gerrit_review_verification/.workspace/os/FreeRTOS/Kernel/tasks.c:1239
20001a08:	bf85                	j	20001978 <vTaskDelete+0xae>

20001a0a <vTaskStartScheduler>:
vTaskStartScheduler():
/jenkins/node-gerritverify/workspace/gerrit_review_verification/.workspace/os/FreeRTOS/Kernel/tasks.c:1988
20001a0a:	1101                	addi	sp,sp,-32
/jenkins/node-gerritverify/workspace/gerrit_review_verification/.workspace/os/FreeRTOS/Kernel/tasks.c:2000
20001a0c:	0070                	addi	a2,sp,12
20001a0e:	002c                	addi	a1,sp,8
20001a10:	0048                	addi	a0,sp,4
/jenkins/node-gerritverify/workspace/gerrit_review_verification/.workspace/os/FreeRTOS/Kernel/tasks.c:1988
20001a12:	ce06                	sw	ra,28(sp)
/jenkins/node-gerritverify/workspace/gerrit_review_verification/.workspace/os/FreeRTOS/Kernel/tasks.c:1994
20001a14:	c202                	sw	zero,4(sp)
/jenkins/node-gerritverify/workspace/gerrit_review_verification/.workspace/os/FreeRTOS/Kernel/tasks.c:1995
20001a16:	c402                	sw	zero,8(sp)
/jenkins/node-gerritverify/workspace/gerrit_review_verification/.workspace/os/FreeRTOS/Kernel/tasks.c:2000
20001a18:	afaff0ef          	jal	ra,20000d12 <vApplicationGetIdleTaskMemory>
/jenkins/node-gerritverify/workspace/gerrit_review_verification/.workspace/os/FreeRTOS/Kernel/tasks.c:2001
20001a1c:	47a2                	lw	a5,8(sp)
20001a1e:	4812                	lw	a6,4(sp)
20001a20:	4632                	lw	a2,12(sp)
20001a22:	200055b7          	lui	a1,0x20005
20001a26:	20001537          	lui	a0,0x20001
20001a2a:	4701                	li	a4,0
20001a2c:	4681                	li	a3,0
20001a2e:	aec58593          	addi	a1,a1,-1300 # 20004aec <CSWTCH.14+0x6c>
20001a32:	40850513          	addi	a0,a0,1032 # 20001408 <prvIdleTask>
20001a36:	3b71                	jal	200017d2 <xTaskCreateStatic>
20001a38:	900087b7          	lui	a5,0x90008
20001a3c:	18a7ae23          	sw	a0,412(a5) # 9000819c <_sp+0xffff819c>
/jenkins/node-gerritverify/workspace/gerrit_review_verification/.workspace/os/FreeRTOS/Kernel/tasks.c:2009
20001a40:	cd15                	beqz	a0,20001a7c <vTaskStartScheduler+0x72>
/jenkins/node-gerritverify/workspace/gerrit_review_verification/.workspace/os/FreeRTOS/Kernel/tasks.c:2034
20001a42:	2171                	jal	20001ece <xTimerCreateTimerTask>
/jenkins/node-gerritverify/workspace/gerrit_review_verification/.workspace/os/FreeRTOS/Kernel/tasks.c:2043
20001a44:	4785                	li	a5,1
20001a46:	04f51063          	bne	a0,a5,20001a86 <vTaskStartScheduler+0x7c>
vPortRaiseBASEPRI():
/jenkins/node-gerritverify/workspace/gerrit_review_verification/.workspace/bsp/arch/riscv/n309/os_portable/freertos/portmacro.h:171
20001a4a:	900007b7          	lui	a5,0x90000
20001a4e:	0647c703          	lbu	a4,100(a5) # 90000064 <_sp+0xffff0064>
__ECLIC_SetMth():
/jenkins/node-gerritverify/workspace/gerrit_review_verification/.workspace/bsp/arch/riscv/n309/include/core_feature_eclic.h:340
20001a52:	0c0007b7          	lui	a5,0xc000
20001a56:	00e785a3          	sb	a4,11(a5) # c00000b <__HEAP_SIZE+0xbffb00b>
vPortRaiseBASEPRI():
/jenkins/node-gerritverify/workspace/gerrit_review_verification/.workspace/bsp/arch/riscv/n309/os_portable/freertos/portmacro.h:172
20001a5a:	0ff0000f          	fence
vTaskStartScheduler():
/jenkins/node-gerritverify/workspace/gerrit_review_verification/.workspace/os/FreeRTOS/Kernel/tasks.c:2071
20001a5e:	900087b7          	lui	a5,0x90008
20001a62:	56fd                	li	a3,-1
20001a64:	1ad7a023          	sw	a3,416(a5) # 900081a0 <_sp+0xffff81a0>
/jenkins/node-gerritverify/workspace/gerrit_review_verification/.workspace/os/FreeRTOS/Kernel/tasks.c:2072
20001a68:	90008737          	lui	a4,0x90008
/jenkins/node-gerritverify/workspace/gerrit_review_verification/.workspace/os/FreeRTOS/Kernel/tasks.c:2073
20001a6c:	900087b7          	lui	a5,0x90008
/jenkins/node-gerritverify/workspace/gerrit_review_verification/.workspace/os/FreeRTOS/Kernel/tasks.c:2072
20001a70:	1aa72623          	sw	a0,428(a4) # 900081ac <_sp+0xffff81ac>
/jenkins/node-gerritverify/workspace/gerrit_review_verification/.workspace/os/FreeRTOS/Kernel/tasks.c:2073
20001a74:	1a07a823          	sw	zero,432(a5) # 900081b0 <_sp+0xffff81b0>
/jenkins/node-gerritverify/workspace/gerrit_review_verification/.workspace/os/FreeRTOS/Kernel/tasks.c:2087
20001a78:	8feff0ef          	jal	ra,20000b76 <xPortStartScheduler>
/jenkins/node-gerritverify/workspace/gerrit_review_verification/.workspace/os/FreeRTOS/Kernel/tasks.c:2112 (discriminator 2)
20001a7c:	40f2                	lw	ra,28(sp)
/jenkins/node-gerritverify/workspace/gerrit_review_verification/.workspace/os/FreeRTOS/Kernel/tasks.c:2111 (discriminator 2)
20001a7e:	80c1a783          	lw	a5,-2036(gp) # 9000006c <uxTopUsedPriority>
/jenkins/node-gerritverify/workspace/gerrit_review_verification/.workspace/os/FreeRTOS/Kernel/tasks.c:2112 (discriminator 2)
20001a82:	6105                	addi	sp,sp,32
20001a84:	8082                	ret
/jenkins/node-gerritverify/workspace/gerrit_review_verification/.workspace/os/FreeRTOS/Kernel/tasks.c:2102
20001a86:	57fd                	li	a5,-1
20001a88:	fef51ae3          	bne	a0,a5,20001a7c <vTaskStartScheduler+0x72>
vPortRaiseBASEPRI():
/jenkins/node-gerritverify/workspace/gerrit_review_verification/.workspace/bsp/arch/riscv/n309/os_portable/freertos/portmacro.h:171
20001a8c:	900007b7          	lui	a5,0x90000
20001a90:	0647c703          	lbu	a4,100(a5) # 90000064 <_sp+0xffff0064>
__ECLIC_SetMth():
/jenkins/node-gerritverify/workspace/gerrit_review_verification/.workspace/bsp/arch/riscv/n309/include/core_feature_eclic.h:340
20001a94:	0c0007b7          	lui	a5,0xc000
20001a98:	00e785a3          	sb	a4,11(a5) # c00000b <__HEAP_SIZE+0xbffb00b>
vPortRaiseBASEPRI():
/jenkins/node-gerritverify/workspace/gerrit_review_verification/.workspace/bsp/arch/riscv/n309/os_portable/freertos/portmacro.h:172
20001a9c:	0ff0000f          	fence
vTaskStartScheduler():
/jenkins/node-gerritverify/workspace/gerrit_review_verification/.workspace/os/FreeRTOS/Kernel/tasks.c:2102 (discriminator 2)
20001aa0:	a001                	j	20001aa0 <vTaskStartScheduler+0x96>

20001aa2 <vTaskSuspendAll>:
vTaskSuspendAll():
/jenkins/node-gerritverify/workspace/gerrit_review_verification/.workspace/os/FreeRTOS/Kernel/tasks.c:2139
20001aa2:	900087b7          	lui	a5,0x90008
20001aa6:	19078793          	addi	a5,a5,400 # 90008190 <_sp+0xffff8190>
20001aaa:	4398                	lw	a4,0(a5)
20001aac:	0705                	addi	a4,a4,1
20001aae:	c398                	sw	a4,0(a5)
/jenkins/node-gerritverify/workspace/gerrit_review_verification/.workspace/os/FreeRTOS/Kernel/tasks.c:2144
20001ab0:	8082                	ret

20001ab2 <xTaskResumeAll>:
xTaskResumeAll():
/jenkins/node-gerritverify/workspace/gerrit_review_verification/.workspace/os/FreeRTOS/Kernel/tasks.c:2217
20001ab2:	900087b7          	lui	a5,0x90008
20001ab6:	1907a783          	lw	a5,400(a5) # 90008190 <_sp+0xffff8190>
20001aba:	ef81                	bnez	a5,20001ad2 <xTaskResumeAll+0x20>
vPortRaiseBASEPRI():
/jenkins/node-gerritverify/workspace/gerrit_review_verification/.workspace/bsp/arch/riscv/n309/os_portable/freertos/portmacro.h:171
20001abc:	900007b7          	lui	a5,0x90000
20001ac0:	0647c703          	lbu	a4,100(a5) # 90000064 <_sp+0xffff0064>
__ECLIC_SetMth():
/jenkins/node-gerritverify/workspace/gerrit_review_verification/.workspace/bsp/arch/riscv/n309/include/core_feature_eclic.h:340
20001ac4:	0c0007b7          	lui	a5,0xc000
20001ac8:	00e785a3          	sb	a4,11(a5) # c00000b <__HEAP_SIZE+0xbffb00b>
vPortRaiseBASEPRI():
/jenkins/node-gerritverify/workspace/gerrit_review_verification/.workspace/bsp/arch/riscv/n309/os_portable/freertos/portmacro.h:172
20001acc:	0ff0000f          	fence
xTaskResumeAll():
/jenkins/node-gerritverify/workspace/gerrit_review_verification/.workspace/os/FreeRTOS/Kernel/tasks.c:2217 (discriminator 1)
20001ad0:	a001                	j	20001ad0 <xTaskResumeAll+0x1e>
20001ad2:	be51                	j	20001666 <xTaskResumeAll.part.0>

20001ad4 <xTaskGetTickCount>:
xTaskGetTickCount():
/jenkins/node-gerritverify/workspace/gerrit_review_verification/.workspace/os/FreeRTOS/Kernel/tasks.c:2322
20001ad4:	1141                	addi	sp,sp,-16
20001ad6:	c606                	sw	ra,12(sp)
20001ad8:	c422                	sw	s0,8(sp)
/jenkins/node-gerritverify/workspace/gerrit_review_verification/.workspace/os/FreeRTOS/Kernel/tasks.c:2326
20001ada:	ca7fe0ef          	jal	ra,20000780 <vPortEnterCritical>
/jenkins/node-gerritverify/workspace/gerrit_review_verification/.workspace/os/FreeRTOS/Kernel/tasks.c:2328
20001ade:	900087b7          	lui	a5,0x90008
20001ae2:	1b07a403          	lw	s0,432(a5) # 900081b0 <_sp+0xffff81b0>
/jenkins/node-gerritverify/workspace/gerrit_review_verification/.workspace/os/FreeRTOS/Kernel/tasks.c:2330
20001ae6:	ce3fe0ef          	jal	ra,200007c8 <vPortExitCritical>
/jenkins/node-gerritverify/workspace/gerrit_review_verification/.workspace/os/FreeRTOS/Kernel/tasks.c:2333
20001aea:	40b2                	lw	ra,12(sp)
20001aec:	8522                	mv	a0,s0
20001aee:	4422                	lw	s0,8(sp)
20001af0:	0141                	addi	sp,sp,16
20001af2:	8082                	ret

20001af4 <xTaskIncrementTick>:
xTaskIncrementTick():
/jenkins/node-gerritverify/workspace/gerrit_review_verification/.workspace/os/FreeRTOS/Kernel/tasks.c:2736
20001af4:	900087b7          	lui	a5,0x90008
20001af8:	1907a783          	lw	a5,400(a5) # 90008190 <_sp+0xffff8190>
20001afc:	e391                	bnez	a5,20001b00 <xTaskIncrementTick+0xc>
20001afe:	baf9                	j	200014dc <xTaskIncrementTick.part.0>
/jenkins/node-gerritverify/workspace/gerrit_review_verification/.workspace/os/FreeRTOS/Kernel/tasks.c:2883
20001b00:	900087b7          	lui	a5,0x90008
20001b04:	1a878793          	addi	a5,a5,424 # 900081a8 <_sp+0xffff81a8>
20001b08:	4398                	lw	a4,0(a5)
/jenkins/node-gerritverify/workspace/gerrit_review_verification/.workspace/os/FreeRTOS/Kernel/tasks.c:2895
20001b0a:	4501                	li	a0,0
/jenkins/node-gerritverify/workspace/gerrit_review_verification/.workspace/os/FreeRTOS/Kernel/tasks.c:2883
20001b0c:	0705                	addi	a4,a4,1
20001b0e:	c398                	sw	a4,0(a5)
/jenkins/node-gerritverify/workspace/gerrit_review_verification/.workspace/os/FreeRTOS/Kernel/tasks.c:2895
20001b10:	8082                	ret

20001b12 <vTaskSwitchContext>:
vTaskSwitchContext():
/jenkins/node-gerritverify/workspace/gerrit_review_verification/.workspace/os/FreeRTOS/Kernel/tasks.c:3012
20001b12:	900087b7          	lui	a5,0x90008
20001b16:	1907a783          	lw	a5,400(a5) # 90008190 <_sp+0xffff8190>
20001b1a:	c799                	beqz	a5,20001b28 <vTaskSwitchContext+0x16>
/jenkins/node-gerritverify/workspace/gerrit_review_verification/.workspace/os/FreeRTOS/Kernel/tasks.c:3016
20001b1c:	900087b7          	lui	a5,0x90008
20001b20:	4705                	li	a4,1
20001b22:	1ae7aa23          	sw	a4,436(a5) # 900081b4 <_sp+0xffff81b4>
/jenkins/node-gerritverify/workspace/gerrit_review_verification/.workspace/os/FreeRTOS/Kernel/tasks.c:3083
20001b26:	8082                	ret
20001b28:	f20ff06f          	j	20001248 <vTaskSwitchContext.part.0>

20001b2c <vTaskPlaceOnEventList>:
vTaskPlaceOnEventList():
/jenkins/node-gerritverify/workspace/gerrit_review_verification/.workspace/os/FreeRTOS/Kernel/tasks.c:3089
20001b2c:	c115                	beqz	a0,20001b50 <vTaskPlaceOnEventList+0x24>
/jenkins/node-gerritverify/workspace/gerrit_review_verification/.workspace/os/FreeRTOS/Kernel/tasks.c:3088 (discriminator 2)
20001b2e:	1141                	addi	sp,sp,-16
/jenkins/node-gerritverify/workspace/gerrit_review_verification/.workspace/os/FreeRTOS/Kernel/tasks.c:3098 (discriminator 2)
20001b30:	900087b7          	lui	a5,0x90008
/jenkins/node-gerritverify/workspace/gerrit_review_verification/.workspace/os/FreeRTOS/Kernel/tasks.c:3088 (discriminator 2)
20001b34:	c422                	sw	s0,8(sp)
20001b36:	842e                	mv	s0,a1
/jenkins/node-gerritverify/workspace/gerrit_review_verification/.workspace/os/FreeRTOS/Kernel/tasks.c:3098 (discriminator 2)
20001b38:	1747a583          	lw	a1,372(a5) # 90008174 <_sp+0xffff8174>
/jenkins/node-gerritverify/workspace/gerrit_review_verification/.workspace/os/FreeRTOS/Kernel/tasks.c:3088 (discriminator 2)
20001b3c:	c606                	sw	ra,12(sp)
/jenkins/node-gerritverify/workspace/gerrit_review_verification/.workspace/os/FreeRTOS/Kernel/tasks.c:3098 (discriminator 2)
20001b3e:	05e1                	addi	a1,a1,24
20001b40:	2c55                	jal	20001df4 <vListInsert>
/jenkins/node-gerritverify/workspace/gerrit_review_verification/.workspace/os/FreeRTOS/Kernel/tasks.c:3100 (discriminator 2)
20001b42:	8522                	mv	a0,s0
/jenkins/node-gerritverify/workspace/gerrit_review_verification/.workspace/os/FreeRTOS/Kernel/tasks.c:3101 (discriminator 2)
20001b44:	4422                	lw	s0,8(sp)
20001b46:	40b2                	lw	ra,12(sp)
/jenkins/node-gerritverify/workspace/gerrit_review_verification/.workspace/os/FreeRTOS/Kernel/tasks.c:3100 (discriminator 2)
20001b48:	4585                	li	a1,1
/jenkins/node-gerritverify/workspace/gerrit_review_verification/.workspace/os/FreeRTOS/Kernel/tasks.c:3101 (discriminator 2)
20001b4a:	0141                	addi	sp,sp,16
/jenkins/node-gerritverify/workspace/gerrit_review_verification/.workspace/os/FreeRTOS/Kernel/tasks.c:3100 (discriminator 2)
20001b4c:	e58ff06f          	j	200011a4 <prvAddCurrentTaskToDelayedList>
vPortRaiseBASEPRI():
/jenkins/node-gerritverify/workspace/gerrit_review_verification/.workspace/bsp/arch/riscv/n309/os_portable/freertos/portmacro.h:171
20001b50:	900007b7          	lui	a5,0x90000
20001b54:	0647c703          	lbu	a4,100(a5) # 90000064 <_sp+0xffff0064>
__ECLIC_SetMth():
/jenkins/node-gerritverify/workspace/gerrit_review_verification/.workspace/bsp/arch/riscv/n309/include/core_feature_eclic.h:340
20001b58:	0c0007b7          	lui	a5,0xc000
20001b5c:	00e785a3          	sb	a4,11(a5) # c00000b <__HEAP_SIZE+0xbffb00b>
vPortRaiseBASEPRI():
/jenkins/node-gerritverify/workspace/gerrit_review_verification/.workspace/bsp/arch/riscv/n309/os_portable/freertos/portmacro.h:172
20001b60:	0ff0000f          	fence
vTaskPlaceOnEventList():
/jenkins/node-gerritverify/workspace/gerrit_review_verification/.workspace/os/FreeRTOS/Kernel/tasks.c:3089 (discriminator 1)
20001b64:	a001                	j	20001b64 <vTaskPlaceOnEventList+0x38>

20001b66 <vTaskPlaceOnEventListRestricted>:
vTaskPlaceOnEventListRestricted():
/jenkins/node-gerritverify/workspace/gerrit_review_verification/.workspace/os/FreeRTOS/Kernel/tasks.c:3136
20001b66:	c51d                	beqz	a0,20001b94 <vTaskPlaceOnEventListRestricted+0x2e>
/jenkins/node-gerritverify/workspace/gerrit_review_verification/.workspace/os/FreeRTOS/Kernel/tasks.c:3135 (discriminator 2)
20001b68:	1141                	addi	sp,sp,-16
/jenkins/node-gerritverify/workspace/gerrit_review_verification/.workspace/os/FreeRTOS/Kernel/tasks.c:3148 (discriminator 2)
20001b6a:	900087b7          	lui	a5,0x90008
/jenkins/node-gerritverify/workspace/gerrit_review_verification/.workspace/os/FreeRTOS/Kernel/tasks.c:3135 (discriminator 2)
20001b6e:	c226                	sw	s1,4(sp)
20001b70:	84ae                	mv	s1,a1
/jenkins/node-gerritverify/workspace/gerrit_review_verification/.workspace/os/FreeRTOS/Kernel/tasks.c:3148 (discriminator 2)
20001b72:	1747a583          	lw	a1,372(a5) # 90008174 <_sp+0xffff8174>
/jenkins/node-gerritverify/workspace/gerrit_review_verification/.workspace/os/FreeRTOS/Kernel/tasks.c:3135 (discriminator 2)
20001b76:	c422                	sw	s0,8(sp)
/jenkins/node-gerritverify/workspace/gerrit_review_verification/.workspace/os/FreeRTOS/Kernel/tasks.c:3148 (discriminator 2)
20001b78:	05e1                	addi	a1,a1,24
20001b7a:	8432                	mv	s0,a2
/jenkins/node-gerritverify/workspace/gerrit_review_verification/.workspace/os/FreeRTOS/Kernel/tasks.c:3135 (discriminator 2)
20001b7c:	c606                	sw	ra,12(sp)
/jenkins/node-gerritverify/workspace/gerrit_review_verification/.workspace/os/FreeRTOS/Kernel/tasks.c:3148 (discriminator 2)
20001b7e:	2cb1                	jal	20001dda <vListInsertEnd>
/jenkins/node-gerritverify/workspace/gerrit_review_verification/.workspace/os/FreeRTOS/Kernel/tasks.c:3153 (discriminator 2)
20001b80:	c011                	beqz	s0,20001b84 <vTaskPlaceOnEventListRestricted+0x1e>
/jenkins/node-gerritverify/workspace/gerrit_review_verification/.workspace/os/FreeRTOS/Kernel/tasks.c:3155
20001b82:	54fd                	li	s1,-1
/jenkins/node-gerritverify/workspace/gerrit_review_verification/.workspace/os/FreeRTOS/Kernel/tasks.c:3159
20001b84:	85a2                	mv	a1,s0
/jenkins/node-gerritverify/workspace/gerrit_review_verification/.workspace/os/FreeRTOS/Kernel/tasks.c:3160
20001b86:	4422                	lw	s0,8(sp)
20001b88:	40b2                	lw	ra,12(sp)
/jenkins/node-gerritverify/workspace/gerrit_review_verification/.workspace/os/FreeRTOS/Kernel/tasks.c:3159
20001b8a:	8526                	mv	a0,s1
/jenkins/node-gerritverify/workspace/gerrit_review_verification/.workspace/os/FreeRTOS/Kernel/tasks.c:3160
20001b8c:	4492                	lw	s1,4(sp)
20001b8e:	0141                	addi	sp,sp,16
/jenkins/node-gerritverify/workspace/gerrit_review_verification/.workspace/os/FreeRTOS/Kernel/tasks.c:3159
20001b90:	e14ff06f          	j	200011a4 <prvAddCurrentTaskToDelayedList>
vPortRaiseBASEPRI():
/jenkins/node-gerritverify/workspace/gerrit_review_verification/.workspace/bsp/arch/riscv/n309/os_portable/freertos/portmacro.h:171
20001b94:	900007b7          	lui	a5,0x90000
20001b98:	0647c703          	lbu	a4,100(a5) # 90000064 <_sp+0xffff0064>
__ECLIC_SetMth():
/jenkins/node-gerritverify/workspace/gerrit_review_verification/.workspace/bsp/arch/riscv/n309/include/core_feature_eclic.h:340
20001b9c:	0c0007b7          	lui	a5,0xc000
20001ba0:	00e785a3          	sb	a4,11(a5) # c00000b <__HEAP_SIZE+0xbffb00b>
vPortRaiseBASEPRI():
/jenkins/node-gerritverify/workspace/gerrit_review_verification/.workspace/bsp/arch/riscv/n309/os_portable/freertos/portmacro.h:172
20001ba4:	0ff0000f          	fence
vTaskPlaceOnEventListRestricted():
/jenkins/node-gerritverify/workspace/gerrit_review_verification/.workspace/os/FreeRTOS/Kernel/tasks.c:3136 (discriminator 1)
20001ba8:	a001                	j	20001ba8 <vTaskPlaceOnEventListRestricted+0x42>

20001baa <xTaskRemoveFromEventList>:
xTaskRemoveFromEventList():
/jenkins/node-gerritverify/workspace/gerrit_review_verification/.workspace/os/FreeRTOS/Kernel/tasks.c:3183
20001baa:	455c                	lw	a5,12(a0)
/jenkins/node-gerritverify/workspace/gerrit_review_verification/.workspace/os/FreeRTOS/Kernel/tasks.c:3166
20001bac:	1141                	addi	sp,sp,-16
20001bae:	c422                	sw	s0,8(sp)
/jenkins/node-gerritverify/workspace/gerrit_review_verification/.workspace/os/FreeRTOS/Kernel/tasks.c:3183
20001bb0:	47c0                	lw	s0,12(a5)
/jenkins/node-gerritverify/workspace/gerrit_review_verification/.workspace/os/FreeRTOS/Kernel/tasks.c:3166
20001bb2:	c606                	sw	ra,12(sp)
20001bb4:	c226                	sw	s1,4(sp)
/jenkins/node-gerritverify/workspace/gerrit_review_verification/.workspace/os/FreeRTOS/Kernel/tasks.c:3184
20001bb6:	cc25                	beqz	s0,20001c2e <xTaskRemoveFromEventList+0x84>
/jenkins/node-gerritverify/workspace/gerrit_review_verification/.workspace/os/FreeRTOS/Kernel/tasks.c:3185 (discriminator 2)
20001bb8:	01840493          	addi	s1,s0,24
20001bbc:	8526                	mv	a0,s1
20001bbe:	2495                	jal	20001e22 <uxListRemove>
/jenkins/node-gerritverify/workspace/gerrit_review_verification/.workspace/os/FreeRTOS/Kernel/tasks.c:3187 (discriminator 2)
20001bc0:	900087b7          	lui	a5,0x90008
20001bc4:	1907a783          	lw	a5,400(a5) # 90008190 <_sp+0xffff8190>
20001bc8:	cb9d                	beqz	a5,20001bfe <xTaskRemoveFromEventList+0x54>
/jenkins/node-gerritverify/workspace/gerrit_review_verification/.workspace/os/FreeRTOS/Kernel/tasks.c:3210
20001bca:	90008537          	lui	a0,0x90008
20001bce:	85a6                	mv	a1,s1
20001bd0:	30c50513          	addi	a0,a0,780 # 9000830c <_sp+0xffff830c>
20001bd4:	2419                	jal	20001dda <vListInsertEnd>
/jenkins/node-gerritverify/workspace/gerrit_review_verification/.workspace/os/FreeRTOS/Kernel/tasks.c:3213
20001bd6:	900087b7          	lui	a5,0x90008
20001bda:	1747a783          	lw	a5,372(a5) # 90008174 <_sp+0xffff8174>
20001bde:	5458                	lw	a4,44(s0)
20001be0:	57dc                	lw	a5,44(a5)
/jenkins/node-gerritverify/workspace/gerrit_review_verification/.workspace/os/FreeRTOS/Kernel/tasks.c:3226
20001be2:	4501                	li	a0,0
/jenkins/node-gerritverify/workspace/gerrit_review_verification/.workspace/os/FreeRTOS/Kernel/tasks.c:3213
20001be4:	00e7f863          	bgeu	a5,a4,20001bf4 <xTaskRemoveFromEventList+0x4a>
/jenkins/node-gerritverify/workspace/gerrit_review_verification/.workspace/os/FreeRTOS/Kernel/tasks.c:3222
20001be8:	900087b7          	lui	a5,0x90008
20001bec:	4705                	li	a4,1
20001bee:	1ae7aa23          	sw	a4,436(a5) # 900081b4 <_sp+0xffff81b4>
/jenkins/node-gerritverify/workspace/gerrit_review_verification/.workspace/os/FreeRTOS/Kernel/tasks.c:3218
20001bf2:	4505                	li	a0,1
/jenkins/node-gerritverify/workspace/gerrit_review_verification/.workspace/os/FreeRTOS/Kernel/tasks.c:3230
20001bf4:	40b2                	lw	ra,12(sp)
20001bf6:	4422                	lw	s0,8(sp)
20001bf8:	4492                	lw	s1,4(sp)
20001bfa:	0141                	addi	sp,sp,16
20001bfc:	8082                	ret
/jenkins/node-gerritverify/workspace/gerrit_review_verification/.workspace/os/FreeRTOS/Kernel/tasks.c:3189
20001bfe:	00440493          	addi	s1,s0,4
20001c02:	8526                	mv	a0,s1
20001c04:	2c39                	jal	20001e22 <uxListRemove>
/jenkins/node-gerritverify/workspace/gerrit_review_verification/.workspace/os/FreeRTOS/Kernel/tasks.c:3190
20001c06:	90008737          	lui	a4,0x90008
20001c0a:	19870713          	addi	a4,a4,408 # 90008198 <_sp+0xffff8198>
20001c0e:	545c                	lw	a5,44(s0)
20001c10:	4314                	lw	a3,0(a4)
20001c12:	00f6f363          	bgeu	a3,a5,20001c18 <xTaskRemoveFromEventList+0x6e>
/jenkins/node-gerritverify/workspace/gerrit_review_verification/.workspace/os/FreeRTOS/Kernel/tasks.c:3190 (discriminator 1)
20001c16:	c31c                	sw	a5,0(a4)
/jenkins/node-gerritverify/workspace/gerrit_review_verification/.workspace/os/FreeRTOS/Kernel/tasks.c:3190 (discriminator 3)
20001c18:	4751                	li	a4,20
20001c1a:	90008537          	lui	a0,0x90008
20001c1e:	02e787b3          	mul	a5,a5,a4
20001c22:	24450513          	addi	a0,a0,580 # 90008244 <_sp+0xffff8244>
20001c26:	85a6                	mv	a1,s1
20001c28:	953e                	add	a0,a0,a5
20001c2a:	2a45                	jal	20001dda <vListInsertEnd>
20001c2c:	b76d                	j	20001bd6 <xTaskRemoveFromEventList+0x2c>
vPortRaiseBASEPRI():
/jenkins/node-gerritverify/workspace/gerrit_review_verification/.workspace/bsp/arch/riscv/n309/os_portable/freertos/portmacro.h:171
20001c2e:	900007b7          	lui	a5,0x90000
20001c32:	0647c703          	lbu	a4,100(a5) # 90000064 <_sp+0xffff0064>
__ECLIC_SetMth():
/jenkins/node-gerritverify/workspace/gerrit_review_verification/.workspace/bsp/arch/riscv/n309/include/core_feature_eclic.h:340
20001c36:	0c0007b7          	lui	a5,0xc000
20001c3a:	00e785a3          	sb	a4,11(a5) # c00000b <__HEAP_SIZE+0xbffb00b>
vPortRaiseBASEPRI():
/jenkins/node-gerritverify/workspace/gerrit_review_verification/.workspace/bsp/arch/riscv/n309/os_portable/freertos/portmacro.h:172
20001c3e:	0ff0000f          	fence
xTaskRemoveFromEventList():
/jenkins/node-gerritverify/workspace/gerrit_review_verification/.workspace/os/FreeRTOS/Kernel/tasks.c:3184 (discriminator 1)
20001c42:	a001                	j	20001c42 <xTaskRemoveFromEventList+0x98>

20001c44 <vTaskInternalSetTimeOutState>:
vTaskInternalSetTimeOutState():
/jenkins/node-gerritverify/workspace/gerrit_review_verification/.workspace/os/FreeRTOS/Kernel/tasks.c:3297
20001c44:	90008737          	lui	a4,0x90008
/jenkins/node-gerritverify/workspace/gerrit_review_verification/.workspace/os/FreeRTOS/Kernel/tasks.c:3298
20001c48:	900087b7          	lui	a5,0x90008
/jenkins/node-gerritverify/workspace/gerrit_review_verification/.workspace/os/FreeRTOS/Kernel/tasks.c:3297
20001c4c:	1a472703          	lw	a4,420(a4) # 900081a4 <_sp+0xffff81a4>
/jenkins/node-gerritverify/workspace/gerrit_review_verification/.workspace/os/FreeRTOS/Kernel/tasks.c:3298
20001c50:	1b07a783          	lw	a5,432(a5) # 900081b0 <_sp+0xffff81b0>
/jenkins/node-gerritverify/workspace/gerrit_review_verification/.workspace/os/FreeRTOS/Kernel/tasks.c:3297
20001c54:	c118                	sw	a4,0(a0)
/jenkins/node-gerritverify/workspace/gerrit_review_verification/.workspace/os/FreeRTOS/Kernel/tasks.c:3298
20001c56:	c15c                	sw	a5,4(a0)
/jenkins/node-gerritverify/workspace/gerrit_review_verification/.workspace/os/FreeRTOS/Kernel/tasks.c:3299
20001c58:	8082                	ret

20001c5a <xTaskCheckForTimeOut>:
xTaskCheckForTimeOut():
/jenkins/node-gerritverify/workspace/gerrit_review_verification/.workspace/os/FreeRTOS/Kernel/tasks.c:3307
20001c5a:	c925                	beqz	a0,20001cca <xTaskCheckForTimeOut+0x70>
/jenkins/node-gerritverify/workspace/gerrit_review_verification/.workspace/os/FreeRTOS/Kernel/tasks.c:3304 (discriminator 2)
20001c5c:	1141                	addi	sp,sp,-16
20001c5e:	c226                	sw	s1,4(sp)
20001c60:	c606                	sw	ra,12(sp)
20001c62:	c422                	sw	s0,8(sp)
20001c64:	c04a                	sw	s2,0(sp)
20001c66:	84ae                	mv	s1,a1
/jenkins/node-gerritverify/workspace/gerrit_review_verification/.workspace/os/FreeRTOS/Kernel/tasks.c:3308 (discriminator 2)
20001c68:	c5b1                	beqz	a1,20001cb4 <xTaskCheckForTimeOut+0x5a>
20001c6a:	842a                	mv	s0,a0
/jenkins/node-gerritverify/workspace/gerrit_review_verification/.workspace/os/FreeRTOS/Kernel/tasks.c:3310 (discriminator 2)
20001c6c:	b15fe0ef          	jal	ra,20000780 <vPortEnterCritical>
/jenkins/node-gerritverify/workspace/gerrit_review_verification/.workspace/os/FreeRTOS/Kernel/tasks.c:3313 (discriminator 2)
20001c70:	900087b7          	lui	a5,0x90008
20001c74:	1b078793          	addi	a5,a5,432 # 900081b0 <_sp+0xffff81b0>
/jenkins/node-gerritverify/workspace/gerrit_review_verification/.workspace/os/FreeRTOS/Kernel/tasks.c:3328 (discriminator 2)
20001c78:	4098                	lw	a4,0(s1)
/jenkins/node-gerritverify/workspace/gerrit_review_verification/.workspace/os/FreeRTOS/Kernel/tasks.c:3313 (discriminator 2)
20001c7a:	4390                	lw	a2,0(a5)
/jenkins/node-gerritverify/workspace/gerrit_review_verification/.workspace/os/FreeRTOS/Kernel/tasks.c:3328 (discriminator 2)
20001c7c:	56fd                	li	a3,-1
/jenkins/node-gerritverify/workspace/gerrit_review_verification/.workspace/os/FreeRTOS/Kernel/tasks.c:3333 (discriminator 2)
20001c7e:	4901                	li	s2,0
/jenkins/node-gerritverify/workspace/gerrit_review_verification/.workspace/os/FreeRTOS/Kernel/tasks.c:3328 (discriminator 2)
20001c80:	02d70163          	beq	a4,a3,20001ca2 <xTaskCheckForTimeOut+0x48>
/jenkins/node-gerritverify/workspace/gerrit_review_verification/.workspace/os/FreeRTOS/Kernel/tasks.c:3338
20001c84:	900086b7          	lui	a3,0x90008
20001c88:	1a468693          	addi	a3,a3,420 # 900081a4 <_sp+0xffff81a4>
20001c8c:	4288                	lw	a0,0(a3)
20001c8e:	00042803          	lw	a6,0(s0)
/jenkins/node-gerritverify/workspace/gerrit_review_verification/.workspace/os/FreeRTOS/Kernel/tasks.c:3314
20001c92:	404c                	lw	a1,4(s0)
/jenkins/node-gerritverify/workspace/gerrit_review_verification/.workspace/os/FreeRTOS/Kernel/tasks.c:3338
20001c94:	04a80663          	beq	a6,a0,20001ce0 <xTaskCheckForTimeOut+0x86>
/jenkins/node-gerritverify/workspace/gerrit_review_verification/.workspace/os/FreeRTOS/Kernel/tasks.c:3338 (discriminator 1)
20001c98:	04b66463          	bltu	a2,a1,20001ce0 <xTaskCheckForTimeOut+0x86>
/jenkins/node-gerritverify/workspace/gerrit_review_verification/.workspace/os/FreeRTOS/Kernel/tasks.c:3346
20001c9c:	0004a023          	sw	zero,0(s1)
/jenkins/node-gerritverify/workspace/gerrit_review_verification/.workspace/os/FreeRTOS/Kernel/tasks.c:3345
20001ca0:	4905                	li	s2,1
/jenkins/node-gerritverify/workspace/gerrit_review_verification/.workspace/os/FreeRTOS/Kernel/tasks.c:3361
20001ca2:	b27fe0ef          	jal	ra,200007c8 <vPortExitCritical>
/jenkins/node-gerritverify/workspace/gerrit_review_verification/.workspace/os/FreeRTOS/Kernel/tasks.c:3364
20001ca6:	40b2                	lw	ra,12(sp)
20001ca8:	4422                	lw	s0,8(sp)
20001caa:	4492                	lw	s1,4(sp)
20001cac:	854a                	mv	a0,s2
20001cae:	4902                	lw	s2,0(sp)
20001cb0:	0141                	addi	sp,sp,16
20001cb2:	8082                	ret
vPortRaiseBASEPRI():
/jenkins/node-gerritverify/workspace/gerrit_review_verification/.workspace/bsp/arch/riscv/n309/os_portable/freertos/portmacro.h:171
20001cb4:	900007b7          	lui	a5,0x90000
20001cb8:	0647c703          	lbu	a4,100(a5) # 90000064 <_sp+0xffff0064>
__ECLIC_SetMth():
/jenkins/node-gerritverify/workspace/gerrit_review_verification/.workspace/bsp/arch/riscv/n309/include/core_feature_eclic.h:340
20001cbc:	0c0007b7          	lui	a5,0xc000
20001cc0:	00e785a3          	sb	a4,11(a5) # c00000b <__HEAP_SIZE+0xbffb00b>
vPortRaiseBASEPRI():
/jenkins/node-gerritverify/workspace/gerrit_review_verification/.workspace/bsp/arch/riscv/n309/os_portable/freertos/portmacro.h:172
20001cc4:	0ff0000f          	fence
xTaskCheckForTimeOut():
/jenkins/node-gerritverify/workspace/gerrit_review_verification/.workspace/os/FreeRTOS/Kernel/tasks.c:3308 (discriminator 2)
20001cc8:	a001                	j	20001cc8 <xTaskCheckForTimeOut+0x6e>
vPortRaiseBASEPRI():
/jenkins/node-gerritverify/workspace/gerrit_review_verification/.workspace/bsp/arch/riscv/n309/os_portable/freertos/portmacro.h:171
20001cca:	900007b7          	lui	a5,0x90000
20001cce:	0647c703          	lbu	a4,100(a5) # 90000064 <_sp+0xffff0064>
__ECLIC_SetMth():
/jenkins/node-gerritverify/workspace/gerrit_review_verification/.workspace/bsp/arch/riscv/n309/include/core_feature_eclic.h:340
20001cd2:	0c0007b7          	lui	a5,0xc000
20001cd6:	00e785a3          	sb	a4,11(a5) # c00000b <__HEAP_SIZE+0xbffb00b>
vPortRaiseBASEPRI():
/jenkins/node-gerritverify/workspace/gerrit_review_verification/.workspace/bsp/arch/riscv/n309/os_portable/freertos/portmacro.h:172
20001cda:	0ff0000f          	fence
xTaskCheckForTimeOut():
/jenkins/node-gerritverify/workspace/gerrit_review_verification/.workspace/os/FreeRTOS/Kernel/tasks.c:3307 (discriminator 1)
20001cde:	a001                	j	20001cde <xTaskCheckForTimeOut+0x84>
/jenkins/node-gerritverify/workspace/gerrit_review_verification/.workspace/os/FreeRTOS/Kernel/tasks.c:3314
20001ce0:	40b60533          	sub	a0,a2,a1
/jenkins/node-gerritverify/workspace/gerrit_review_verification/.workspace/os/FreeRTOS/Kernel/tasks.c:3348
20001ce4:	fae57ce3          	bgeu	a0,a4,20001c9c <xTaskCheckForTimeOut+0x42>
/jenkins/node-gerritverify/workspace/gerrit_review_verification/.workspace/os/FreeRTOS/Kernel/tasks.c:3351
20001ce8:	8f11                	sub	a4,a4,a2
vTaskInternalSetTimeOutState():
/jenkins/node-gerritverify/workspace/gerrit_review_verification/.workspace/os/FreeRTOS/Kernel/tasks.c:3297
20001cea:	4294                	lw	a3,0(a3)
xTaskCheckForTimeOut():
/jenkins/node-gerritverify/workspace/gerrit_review_verification/.workspace/os/FreeRTOS/Kernel/tasks.c:3351
20001cec:	972e                	add	a4,a4,a1
vTaskInternalSetTimeOutState():
/jenkins/node-gerritverify/workspace/gerrit_review_verification/.workspace/os/FreeRTOS/Kernel/tasks.c:3298
20001cee:	439c                	lw	a5,0(a5)
xTaskCheckForTimeOut():
/jenkins/node-gerritverify/workspace/gerrit_review_verification/.workspace/os/FreeRTOS/Kernel/tasks.c:3351
20001cf0:	c098                	sw	a4,0(s1)
vTaskInternalSetTimeOutState():
/jenkins/node-gerritverify/workspace/gerrit_review_verification/.workspace/os/FreeRTOS/Kernel/tasks.c:3297
20001cf2:	c014                	sw	a3,0(s0)
/jenkins/node-gerritverify/workspace/gerrit_review_verification/.workspace/os/FreeRTOS/Kernel/tasks.c:3298
20001cf4:	c05c                	sw	a5,4(s0)
xTaskCheckForTimeOut():
/jenkins/node-gerritverify/workspace/gerrit_review_verification/.workspace/os/FreeRTOS/Kernel/tasks.c:3353
20001cf6:	4901                	li	s2,0
20001cf8:	b76d                	j	20001ca2 <xTaskCheckForTimeOut+0x48>

20001cfa <vTaskMissedYield>:
vTaskMissedYield():
/jenkins/node-gerritverify/workspace/gerrit_review_verification/.workspace/os/FreeRTOS/Kernel/tasks.c:3369
20001cfa:	900087b7          	lui	a5,0x90008
20001cfe:	4705                	li	a4,1
20001d00:	1ae7aa23          	sw	a4,436(a5) # 900081b4 <_sp+0xffff81b4>
/jenkins/node-gerritverify/workspace/gerrit_review_verification/.workspace/os/FreeRTOS/Kernel/tasks.c:3370
20001d04:	8082                	ret

20001d06 <xTaskGetSchedulerState>:
xTaskGetSchedulerState():
/jenkins/node-gerritverify/workspace/gerrit_review_verification/.workspace/os/FreeRTOS/Kernel/tasks.c:4032
20001d06:	900087b7          	lui	a5,0x90008
20001d0a:	1ac7a783          	lw	a5,428(a5) # 900081ac <_sp+0xffff81ac>
/jenkins/node-gerritverify/workspace/gerrit_review_verification/.workspace/os/FreeRTOS/Kernel/tasks.c:4034
20001d0e:	4505                	li	a0,1
/jenkins/node-gerritverify/workspace/gerrit_review_verification/.workspace/os/FreeRTOS/Kernel/tasks.c:4032
20001d10:	cb81                	beqz	a5,20001d20 <xTaskGetSchedulerState+0x1a>
/jenkins/node-gerritverify/workspace/gerrit_review_verification/.workspace/os/FreeRTOS/Kernel/tasks.c:4038
20001d12:	900087b7          	lui	a5,0x90008
20001d16:	1907a503          	lw	a0,400(a5) # 90008190 <_sp+0xffff8190>
/jenkins/node-gerritverify/workspace/gerrit_review_verification/.workspace/os/FreeRTOS/Kernel/tasks.c:4044
20001d1a:	00153513          	seqz	a0,a0
20001d1e:	0506                	slli	a0,a0,0x1
/jenkins/node-gerritverify/workspace/gerrit_review_verification/.workspace/os/FreeRTOS/Kernel/tasks.c:4049
20001d20:	8082                	ret

20001d22 <xTaskPriorityDisinherit>:
xTaskPriorityDisinherit():
/jenkins/node-gerritverify/workspace/gerrit_review_verification/.workspace/os/FreeRTOS/Kernel/tasks.c:4151
20001d22:	c125                	beqz	a0,20001d82 <xTaskPriorityDisinherit+0x60>
/jenkins/node-gerritverify/workspace/gerrit_review_verification/.workspace/os/FreeRTOS/Kernel/tasks.c:4147
20001d24:	1141                	addi	sp,sp,-16
/jenkins/node-gerritverify/workspace/gerrit_review_verification/.workspace/os/FreeRTOS/Kernel/tasks.c:4157
20001d26:	900087b7          	lui	a5,0x90008
/jenkins/node-gerritverify/workspace/gerrit_review_verification/.workspace/os/FreeRTOS/Kernel/tasks.c:4147
20001d2a:	c422                	sw	s0,8(sp)
/jenkins/node-gerritverify/workspace/gerrit_review_verification/.workspace/os/FreeRTOS/Kernel/tasks.c:4157
20001d2c:	1747a403          	lw	s0,372(a5) # 90008174 <_sp+0xffff8174>
/jenkins/node-gerritverify/workspace/gerrit_review_verification/.workspace/os/FreeRTOS/Kernel/tasks.c:4147
20001d30:	c606                	sw	ra,12(sp)
20001d32:	c226                	sw	s1,4(sp)
/jenkins/node-gerritverify/workspace/gerrit_review_verification/.workspace/os/FreeRTOS/Kernel/tasks.c:4157
20001d34:	00a40d63          	beq	s0,a0,20001d4e <xTaskPriorityDisinherit+0x2c>
vPortRaiseBASEPRI():
/jenkins/node-gerritverify/workspace/gerrit_review_verification/.workspace/bsp/arch/riscv/n309/os_portable/freertos/portmacro.h:171
20001d38:	900007b7          	lui	a5,0x90000
20001d3c:	0647c703          	lbu	a4,100(a5) # 90000064 <_sp+0xffff0064>
__ECLIC_SetMth():
/jenkins/node-gerritverify/workspace/gerrit_review_verification/.workspace/bsp/arch/riscv/n309/include/core_feature_eclic.h:340
20001d40:	0c0007b7          	lui	a5,0xc000
20001d44:	00e785a3          	sb	a4,11(a5) # c00000b <__HEAP_SIZE+0xbffb00b>
vPortRaiseBASEPRI():
/jenkins/node-gerritverify/workspace/gerrit_review_verification/.workspace/bsp/arch/riscv/n309/os_portable/freertos/portmacro.h:172
20001d48:	0ff0000f          	fence
xTaskPriorityDisinherit():
/jenkins/node-gerritverify/workspace/gerrit_review_verification/.workspace/os/FreeRTOS/Kernel/tasks.c:4157 (discriminator 1)
20001d4c:	a001                	j	20001d4c <xTaskPriorityDisinherit+0x2a>
/jenkins/node-gerritverify/workspace/gerrit_review_verification/.workspace/os/FreeRTOS/Kernel/tasks.c:4158 (discriminator 2)
20001d4e:	483c                	lw	a5,80(s0)
20001d50:	cf91                	beqz	a5,20001d6c <xTaskPriorityDisinherit+0x4a>
/jenkins/node-gerritverify/workspace/gerrit_review_verification/.workspace/os/FreeRTOS/Kernel/tasks.c:4159 (discriminator 2)
20001d52:	17fd                	addi	a5,a5,-1
/jenkins/node-gerritverify/workspace/gerrit_review_verification/.workspace/os/FreeRTOS/Kernel/tasks.c:4163 (discriminator 2)
20001d54:	5454                	lw	a3,44(s0)
20001d56:	4478                	lw	a4,76(s0)
/jenkins/node-gerritverify/workspace/gerrit_review_verification/.workspace/os/FreeRTOS/Kernel/tasks.c:4159 (discriminator 2)
20001d58:	c83c                	sw	a5,80(s0)
/jenkins/node-gerritverify/workspace/gerrit_review_verification/.workspace/os/FreeRTOS/Kernel/tasks.c:4163 (discriminator 2)
20001d5a:	00e68363          	beq	a3,a4,20001d60 <xTaskPriorityDisinherit+0x3e>
/jenkins/node-gerritverify/workspace/gerrit_review_verification/.workspace/os/FreeRTOS/Kernel/tasks.c:4166
20001d5e:	c785                	beqz	a5,20001d86 <xTaskPriorityDisinherit+0x64>
/jenkins/node-gerritverify/workspace/gerrit_review_verification/.workspace/os/FreeRTOS/Kernel/tasks.c:4149
20001d60:	4501                	li	a0,0
/jenkins/node-gerritverify/workspace/gerrit_review_verification/.workspace/os/FreeRTOS/Kernel/tasks.c:4219
20001d62:	40b2                	lw	ra,12(sp)
20001d64:	4422                	lw	s0,8(sp)
20001d66:	4492                	lw	s1,4(sp)
20001d68:	0141                	addi	sp,sp,16
20001d6a:	8082                	ret
vPortRaiseBASEPRI():
/jenkins/node-gerritverify/workspace/gerrit_review_verification/.workspace/bsp/arch/riscv/n309/os_portable/freertos/portmacro.h:171
20001d6c:	900007b7          	lui	a5,0x90000
20001d70:	0647c703          	lbu	a4,100(a5) # 90000064 <_sp+0xffff0064>
__ECLIC_SetMth():
/jenkins/node-gerritverify/workspace/gerrit_review_verification/.workspace/bsp/arch/riscv/n309/include/core_feature_eclic.h:340
20001d74:	0c0007b7          	lui	a5,0xc000
20001d78:	00e785a3          	sb	a4,11(a5) # c00000b <__HEAP_SIZE+0xbffb00b>
vPortRaiseBASEPRI():
/jenkins/node-gerritverify/workspace/gerrit_review_verification/.workspace/bsp/arch/riscv/n309/os_portable/freertos/portmacro.h:172
20001d7c:	0ff0000f          	fence
xTaskPriorityDisinherit():
/jenkins/node-gerritverify/workspace/gerrit_review_verification/.workspace/os/FreeRTOS/Kernel/tasks.c:4158 (discriminator 2)
20001d80:	a001                	j	20001d80 <xTaskPriorityDisinherit+0x5e>
/jenkins/node-gerritverify/workspace/gerrit_review_verification/.workspace/os/FreeRTOS/Kernel/tasks.c:4149
20001d82:	4501                	li	a0,0
/jenkins/node-gerritverify/workspace/gerrit_review_verification/.workspace/os/FreeRTOS/Kernel/tasks.c:4219
20001d84:	8082                	ret
/jenkins/node-gerritverify/workspace/gerrit_review_verification/.workspace/os/FreeRTOS/Kernel/tasks.c:4173
20001d86:	00440493          	addi	s1,s0,4
20001d8a:	8526                	mv	a0,s1
20001d8c:	2859                	jal	20001e22 <uxListRemove>
/jenkins/node-gerritverify/workspace/gerrit_review_verification/.workspace/os/FreeRTOS/Kernel/tasks.c:4185
20001d8e:	447c                	lw	a5,76(s0)
/jenkins/node-gerritverify/workspace/gerrit_review_verification/.workspace/os/FreeRTOS/Kernel/tasks.c:4191
20001d90:	90008737          	lui	a4,0x90008
20001d94:	19870713          	addi	a4,a4,408 # 90008198 <_sp+0xffff8198>
/jenkins/node-gerritverify/workspace/gerrit_review_verification/.workspace/os/FreeRTOS/Kernel/tasks.c:4190
20001d98:	46a1                	li	a3,8
20001d9a:	8e9d                	sub	a3,a3,a5
/jenkins/node-gerritverify/workspace/gerrit_review_verification/.workspace/os/FreeRTOS/Kernel/tasks.c:4191
20001d9c:	4310                	lw	a2,0(a4)
/jenkins/node-gerritverify/workspace/gerrit_review_verification/.workspace/os/FreeRTOS/Kernel/tasks.c:4185
20001d9e:	d45c                	sw	a5,44(s0)
/jenkins/node-gerritverify/workspace/gerrit_review_verification/.workspace/os/FreeRTOS/Kernel/tasks.c:4190
20001da0:	cc14                	sw	a3,24(s0)
/jenkins/node-gerritverify/workspace/gerrit_review_verification/.workspace/os/FreeRTOS/Kernel/tasks.c:4191
20001da2:	00f67363          	bgeu	a2,a5,20001da8 <xTaskPriorityDisinherit+0x86>
/jenkins/node-gerritverify/workspace/gerrit_review_verification/.workspace/os/FreeRTOS/Kernel/tasks.c:4191 (discriminator 1)
20001da6:	c31c                	sw	a5,0(a4)
/jenkins/node-gerritverify/workspace/gerrit_review_verification/.workspace/os/FreeRTOS/Kernel/tasks.c:4191 (discriminator 3)
20001da8:	4751                	li	a4,20
20001daa:	90008537          	lui	a0,0x90008
20001dae:	02e787b3          	mul	a5,a5,a4
20001db2:	24450513          	addi	a0,a0,580 # 90008244 <_sp+0xffff8244>
20001db6:	953e                	add	a0,a0,a5
20001db8:	85a6                	mv	a1,s1
20001dba:	2005                	jal	20001dda <vListInsertEnd>
/jenkins/node-gerritverify/workspace/gerrit_review_verification/.workspace/os/FreeRTOS/Kernel/tasks.c:4201 (discriminator 3)
20001dbc:	4505                	li	a0,1
/jenkins/node-gerritverify/workspace/gerrit_review_verification/.workspace/os/FreeRTOS/Kernel/tasks.c:4218 (discriminator 3)
20001dbe:	b755                	j	20001d62 <xTaskPriorityDisinherit+0x40>

20001dc0 <vListInitialise>:
vListInitialise():
/jenkins/node-gerritverify/workspace/gerrit_review_verification/.workspace/os/FreeRTOS/Kernel/list.c:53
20001dc0:	00850793          	addi	a5,a0,8
/jenkins/node-gerritverify/workspace/gerrit_review_verification/.workspace/os/FreeRTOS/Kernel/list.c:57
20001dc4:	577d                	li	a4,-1
/jenkins/node-gerritverify/workspace/gerrit_review_verification/.workspace/os/FreeRTOS/Kernel/list.c:53
20001dc6:	c15c                	sw	a5,4(a0)
/jenkins/node-gerritverify/workspace/gerrit_review_verification/.workspace/os/FreeRTOS/Kernel/list.c:57
20001dc8:	c518                	sw	a4,8(a0)
/jenkins/node-gerritverify/workspace/gerrit_review_verification/.workspace/os/FreeRTOS/Kernel/list.c:61
20001dca:	c55c                	sw	a5,12(a0)
/jenkins/node-gerritverify/workspace/gerrit_review_verification/.workspace/os/FreeRTOS/Kernel/list.c:62
20001dcc:	c91c                	sw	a5,16(a0)
/jenkins/node-gerritverify/workspace/gerrit_review_verification/.workspace/os/FreeRTOS/Kernel/list.c:64
20001dce:	00052023          	sw	zero,0(a0)
/jenkins/node-gerritverify/workspace/gerrit_review_verification/.workspace/os/FreeRTOS/Kernel/list.c:70
20001dd2:	8082                	ret

20001dd4 <vListInitialiseItem>:
vListInitialiseItem():
/jenkins/node-gerritverify/workspace/gerrit_review_verification/.workspace/os/FreeRTOS/Kernel/list.c:76
20001dd4:	00052823          	sw	zero,16(a0)
/jenkins/node-gerritverify/workspace/gerrit_review_verification/.workspace/os/FreeRTOS/Kernel/list.c:82
20001dd8:	8082                	ret

20001dda <vListInsertEnd>:
vListInsertEnd():
/jenkins/node-gerritverify/workspace/gerrit_review_verification/.workspace/os/FreeRTOS/Kernel/list.c:88
20001dda:	415c                	lw	a5,4(a0)
/jenkins/node-gerritverify/workspace/gerrit_review_verification/.workspace/os/FreeRTOS/Kernel/list.c:100
20001ddc:	4798                	lw	a4,8(a5)
20001dde:	c598                	sw	a4,8(a1)
/jenkins/node-gerritverify/workspace/gerrit_review_verification/.workspace/os/FreeRTOS/Kernel/list.c:105
20001de0:	4798                	lw	a4,8(a5)
/jenkins/node-gerritverify/workspace/gerrit_review_verification/.workspace/os/FreeRTOS/Kernel/list.c:99
20001de2:	c1dc                	sw	a5,4(a1)
/jenkins/node-gerritverify/workspace/gerrit_review_verification/.workspace/os/FreeRTOS/Kernel/list.c:105
20001de4:	c34c                	sw	a1,4(a4)
/jenkins/node-gerritverify/workspace/gerrit_review_verification/.workspace/os/FreeRTOS/Kernel/list.c:111
20001de6:	4118                	lw	a4,0(a0)
/jenkins/node-gerritverify/workspace/gerrit_review_verification/.workspace/os/FreeRTOS/Kernel/list.c:106
20001de8:	c78c                	sw	a1,8(a5)
/jenkins/node-gerritverify/workspace/gerrit_review_verification/.workspace/os/FreeRTOS/Kernel/list.c:109
20001dea:	c988                	sw	a0,16(a1)
/jenkins/node-gerritverify/workspace/gerrit_review_verification/.workspace/os/FreeRTOS/Kernel/list.c:111
20001dec:	00170793          	addi	a5,a4,1
20001df0:	c11c                	sw	a5,0(a0)
/jenkins/node-gerritverify/workspace/gerrit_review_verification/.workspace/os/FreeRTOS/Kernel/list.c:112
20001df2:	8082                	ret

20001df4 <vListInsert>:
vListInsert():
/jenkins/node-gerritverify/workspace/gerrit_review_verification/.workspace/os/FreeRTOS/Kernel/list.c:119
20001df4:	4190                	lw	a2,0(a1)
/jenkins/node-gerritverify/workspace/gerrit_review_verification/.workspace/os/FreeRTOS/Kernel/list.c:135
20001df6:	577d                	li	a4,-1
/jenkins/node-gerritverify/workspace/gerrit_review_verification/.workspace/os/FreeRTOS/Kernel/list.c:163
20001df8:	00850793          	addi	a5,a0,8
/jenkins/node-gerritverify/workspace/gerrit_review_verification/.workspace/os/FreeRTOS/Kernel/list.c:135
20001dfc:	02e60063          	beq	a2,a4,20001e1c <vListInsert+0x28>
/jenkins/node-gerritverify/workspace/gerrit_review_verification/.workspace/os/FreeRTOS/Kernel/list.c:163 (discriminator 1)
20001e00:	86be                	mv	a3,a5
20001e02:	43dc                	lw	a5,4(a5)
20001e04:	4398                	lw	a4,0(a5)
20001e06:	fee67de3          	bgeu	a2,a4,20001e00 <vListInsert+0xc>
/jenkins/node-gerritverify/workspace/gerrit_review_verification/.workspace/os/FreeRTOS/Kernel/list.c:170
20001e0a:	c1dc                	sw	a5,4(a1)
/jenkins/node-gerritverify/workspace/gerrit_review_verification/.workspace/os/FreeRTOS/Kernel/list.c:171
20001e0c:	c78c                	sw	a1,8(a5)
/jenkins/node-gerritverify/workspace/gerrit_review_verification/.workspace/os/FreeRTOS/Kernel/list.c:179
20001e0e:	411c                	lw	a5,0(a0)
/jenkins/node-gerritverify/workspace/gerrit_review_verification/.workspace/os/FreeRTOS/Kernel/list.c:172
20001e10:	c594                	sw	a3,8(a1)
/jenkins/node-gerritverify/workspace/gerrit_review_verification/.workspace/os/FreeRTOS/Kernel/list.c:173
20001e12:	c2cc                	sw	a1,4(a3)
/jenkins/node-gerritverify/workspace/gerrit_review_verification/.workspace/os/FreeRTOS/Kernel/list.c:177
20001e14:	c988                	sw	a0,16(a1)
/jenkins/node-gerritverify/workspace/gerrit_review_verification/.workspace/os/FreeRTOS/Kernel/list.c:179
20001e16:	0785                	addi	a5,a5,1
20001e18:	c11c                	sw	a5,0(a0)
/jenkins/node-gerritverify/workspace/gerrit_review_verification/.workspace/os/FreeRTOS/Kernel/list.c:180
20001e1a:	8082                	ret
/jenkins/node-gerritverify/workspace/gerrit_review_verification/.workspace/os/FreeRTOS/Kernel/list.c:137
20001e1c:	4914                	lw	a3,16(a0)
/jenkins/node-gerritverify/workspace/gerrit_review_verification/.workspace/os/FreeRTOS/Kernel/list.c:170
20001e1e:	42dc                	lw	a5,4(a3)
20001e20:	b7ed                	j	20001e0a <vListInsert+0x16>

20001e22 <uxListRemove>:
uxListRemove():
/jenkins/node-gerritverify/workspace/gerrit_review_verification/.workspace/os/FreeRTOS/Kernel/list.c:187
20001e22:	491c                	lw	a5,16(a0)
/jenkins/node-gerritverify/workspace/gerrit_review_verification/.workspace/os/FreeRTOS/Kernel/list.c:189
20001e24:	4154                	lw	a3,4(a0)
20001e26:	4518                	lw	a4,8(a0)
/jenkins/node-gerritverify/workspace/gerrit_review_verification/.workspace/os/FreeRTOS/Kernel/list.c:196
20001e28:	43d0                	lw	a2,4(a5)
/jenkins/node-gerritverify/workspace/gerrit_review_verification/.workspace/os/FreeRTOS/Kernel/list.c:189
20001e2a:	c698                	sw	a4,8(a3)
/jenkins/node-gerritverify/workspace/gerrit_review_verification/.workspace/os/FreeRTOS/Kernel/list.c:190
20001e2c:	c354                	sw	a3,4(a4)
/jenkins/node-gerritverify/workspace/gerrit_review_verification/.workspace/os/FreeRTOS/Kernel/list.c:196
20001e2e:	00a60963          	beq	a2,a0,20001e40 <uxListRemove+0x1e>
/jenkins/node-gerritverify/workspace/gerrit_review_verification/.workspace/os/FreeRTOS/Kernel/list.c:206
20001e32:	4398                	lw	a4,0(a5)
/jenkins/node-gerritverify/workspace/gerrit_review_verification/.workspace/os/FreeRTOS/Kernel/list.c:205
20001e34:	00052823          	sw	zero,16(a0)
/jenkins/node-gerritverify/workspace/gerrit_review_verification/.workspace/os/FreeRTOS/Kernel/list.c:206
20001e38:	177d                	addi	a4,a4,-1
20001e3a:	c398                	sw	a4,0(a5)
/jenkins/node-gerritverify/workspace/gerrit_review_verification/.workspace/os/FreeRTOS/Kernel/list.c:208
20001e3c:	4388                	lw	a0,0(a5)
/jenkins/node-gerritverify/workspace/gerrit_review_verification/.workspace/os/FreeRTOS/Kernel/list.c:209
20001e3e:	8082                	ret
/jenkins/node-gerritverify/workspace/gerrit_review_verification/.workspace/os/FreeRTOS/Kernel/list.c:198
20001e40:	c3d8                	sw	a4,4(a5)
/jenkins/node-gerritverify/workspace/gerrit_review_verification/.workspace/os/FreeRTOS/Kernel/list.c:206
20001e42:	4398                	lw	a4,0(a5)
/jenkins/node-gerritverify/workspace/gerrit_review_verification/.workspace/os/FreeRTOS/Kernel/list.c:205
20001e44:	00052823          	sw	zero,16(a0)
/jenkins/node-gerritverify/workspace/gerrit_review_verification/.workspace/os/FreeRTOS/Kernel/list.c:206
20001e48:	177d                	addi	a4,a4,-1
20001e4a:	c398                	sw	a4,0(a5)
/jenkins/node-gerritverify/workspace/gerrit_review_verification/.workspace/os/FreeRTOS/Kernel/list.c:208
20001e4c:	4388                	lw	a0,0(a5)
/jenkins/node-gerritverify/workspace/gerrit_review_verification/.workspace/os/FreeRTOS/Kernel/list.c:209
20001e4e:	8082                	ret

20001e50 <prvCheckForValidListAndQueue>:
prvCheckForValidListAndQueue():
/jenkins/node-gerritverify/workspace/gerrit_review_verification/.workspace/os/FreeRTOS/Kernel/timers.c:954
20001e50:	1141                	addi	sp,sp,-16
20001e52:	c422                	sw	s0,8(sp)
/jenkins/node-gerritverify/workspace/gerrit_review_verification/.workspace/os/FreeRTOS/Kernel/timers.c:960
20001e54:	90008437          	lui	s0,0x90008
/jenkins/node-gerritverify/workspace/gerrit_review_verification/.workspace/os/FreeRTOS/Kernel/timers.c:954
20001e58:	c606                	sw	ra,12(sp)
20001e5a:	c226                	sw	s1,4(sp)
20001e5c:	c04a                	sw	s2,0(sp)
/jenkins/node-gerritverify/workspace/gerrit_review_verification/.workspace/os/FreeRTOS/Kernel/timers.c:960
20001e5e:	1c440413          	addi	s0,s0,452 # 900081c4 <_sp+0xffff81c4>
/jenkins/node-gerritverify/workspace/gerrit_review_verification/.workspace/os/FreeRTOS/Kernel/timers.c:958
20001e62:	91ffe0ef          	jal	ra,20000780 <vPortEnterCritical>
/jenkins/node-gerritverify/workspace/gerrit_review_verification/.workspace/os/FreeRTOS/Kernel/timers.c:960
20001e66:	401c                	lw	a5,0(s0)
20001e68:	cb81                	beqz	a5,20001e78 <prvCheckForValidListAndQueue+0x28>
/jenkins/node-gerritverify/workspace/gerrit_review_verification/.workspace/os/FreeRTOS/Kernel/timers.c:1001
20001e6a:	4422                	lw	s0,8(sp)
20001e6c:	40b2                	lw	ra,12(sp)
20001e6e:	4492                	lw	s1,4(sp)
20001e70:	4902                	lw	s2,0(sp)
20001e72:	0141                	addi	sp,sp,16
/jenkins/node-gerritverify/workspace/gerrit_review_verification/.workspace/os/FreeRTOS/Kernel/timers.c:1000
20001e74:	955fe06f          	j	200007c8 <vPortExitCritical>
/jenkins/node-gerritverify/workspace/gerrit_review_verification/.workspace/os/FreeRTOS/Kernel/timers.c:962
20001e78:	900087b7          	lui	a5,0x90008
20001e7c:	43878513          	addi	a0,a5,1080 # 90008438 <_sp+0xffff8438>
20001e80:	43878913          	addi	s2,a5,1080
20001e84:	3f35                	jal	20001dc0 <vListInitialise>
/jenkins/node-gerritverify/workspace/gerrit_review_verification/.workspace/os/FreeRTOS/Kernel/timers.c:963
20001e86:	900087b7          	lui	a5,0x90008
20001e8a:	44c78513          	addi	a0,a5,1100 # 9000844c <_sp+0xffff844c>
20001e8e:	44c78493          	addi	s1,a5,1100
20001e92:	373d                	jal	20001dc0 <vListInitialise>
/jenkins/node-gerritverify/workspace/gerrit_review_verification/.workspace/os/FreeRTOS/Kernel/timers.c:964
20001e94:	900087b7          	lui	a5,0x90008
/jenkins/node-gerritverify/workspace/gerrit_review_verification/.workspace/os/FreeRTOS/Kernel/timers.c:974
20001e98:	900086b7          	lui	a3,0x90008
20001e9c:	90008637          	lui	a2,0x90008
/jenkins/node-gerritverify/workspace/gerrit_review_verification/.workspace/os/FreeRTOS/Kernel/timers.c:964
20001ea0:	1b27ac23          	sw	s2,440(a5) # 900081b8 <_sp+0xffff81b8>
/jenkins/node-gerritverify/workspace/gerrit_review_verification/.workspace/os/FreeRTOS/Kernel/timers.c:974
20001ea4:	4701                	li	a4,0
/jenkins/node-gerritverify/workspace/gerrit_review_verification/.workspace/os/FreeRTOS/Kernel/timers.c:965
20001ea6:	900087b7          	lui	a5,0x90008
/jenkins/node-gerritverify/workspace/gerrit_review_verification/.workspace/os/FreeRTOS/Kernel/timers.c:974
20001eaa:	46068693          	addi	a3,a3,1120 # 90008460 <_sp+0xffff8460>
20001eae:	34860613          	addi	a2,a2,840 # 90008348 <_sp+0xffff8348>
20001eb2:	45c1                	li	a1,16
20001eb4:	453d                	li	a0,15
/jenkins/node-gerritverify/workspace/gerrit_review_verification/.workspace/os/FreeRTOS/Kernel/timers.c:965
20001eb6:	1a97ae23          	sw	s1,444(a5) # 900081bc <_sp+0xffff81bc>
/jenkins/node-gerritverify/workspace/gerrit_review_verification/.workspace/os/FreeRTOS/Kernel/timers.c:974
20001eba:	185000ef          	jal	ra,2000283e <xQueueGenericCreateStatic>
20001ebe:	c008                	sw	a0,0(s0)
/jenkins/node-gerritverify/workspace/gerrit_review_verification/.workspace/os/FreeRTOS/Kernel/timers.c:1001
20001ec0:	4422                	lw	s0,8(sp)
20001ec2:	40b2                	lw	ra,12(sp)
20001ec4:	4492                	lw	s1,4(sp)
20001ec6:	4902                	lw	s2,0(sp)
20001ec8:	0141                	addi	sp,sp,16
/jenkins/node-gerritverify/workspace/gerrit_review_verification/.workspace/os/FreeRTOS/Kernel/timers.c:1000
20001eca:	8fffe06f          	j	200007c8 <vPortExitCritical>

20001ece <xTimerCreateTimerTask>:
xTimerCreateTimerTask():
/jenkins/node-gerritverify/workspace/gerrit_review_verification/.workspace/os/FreeRTOS/Kernel/timers.c:222
20001ece:	1101                	addi	sp,sp,-32
20001ed0:	ce06                	sw	ra,28(sp)
/jenkins/node-gerritverify/workspace/gerrit_review_verification/.workspace/os/FreeRTOS/Kernel/timers.c:229
20001ed2:	3fbd                	jal	20001e50 <prvCheckForValidListAndQueue>
/jenkins/node-gerritverify/workspace/gerrit_review_verification/.workspace/os/FreeRTOS/Kernel/timers.c:231
20001ed4:	900087b7          	lui	a5,0x90008
20001ed8:	1c47a783          	lw	a5,452(a5) # 900081c4 <_sp+0xffff81c4>
20001edc:	c3a1                	beqz	a5,20001f1c <xTimerCreateTimerTask+0x4e>
/jenkins/node-gerritverify/workspace/gerrit_review_verification/.workspace/os/FreeRTOS/Kernel/timers.c:239
20001ede:	0070                	addi	a2,sp,12
20001ee0:	002c                	addi	a1,sp,8
20001ee2:	0048                	addi	a0,sp,4
/jenkins/node-gerritverify/workspace/gerrit_review_verification/.workspace/os/FreeRTOS/Kernel/timers.c:235
20001ee4:	c202                	sw	zero,4(sp)
/jenkins/node-gerritverify/workspace/gerrit_review_verification/.workspace/os/FreeRTOS/Kernel/timers.c:236
20001ee6:	c402                	sw	zero,8(sp)
/jenkins/node-gerritverify/workspace/gerrit_review_verification/.workspace/os/FreeRTOS/Kernel/timers.c:239
20001ee8:	e43fe0ef          	jal	ra,20000d2a <vApplicationGetTimerTaskMemory>
/jenkins/node-gerritverify/workspace/gerrit_review_verification/.workspace/os/FreeRTOS/Kernel/timers.c:240
20001eec:	47a2                	lw	a5,8(sp)
20001eee:	4812                	lw	a6,4(sp)
20001ef0:	4632                	lw	a2,12(sp)
20001ef2:	200055b7          	lui	a1,0x20005
20001ef6:	20002537          	lui	a0,0x20002
20001efa:	471d                	li	a4,7
20001efc:	4681                	li	a3,0
20001efe:	af858593          	addi	a1,a1,-1288 # 20004af8 <CSWTCH.14+0x78>
20001f02:	04c50513          	addi	a0,a0,76 # 2000204c <prvTimerTask>
20001f06:	8cdff0ef          	jal	ra,200017d2 <xTaskCreateStatic>
20001f0a:	900087b7          	lui	a5,0x90008
20001f0e:	1ca7a423          	sw	a0,456(a5) # 900081c8 <_sp+0xffff81c8>
/jenkins/node-gerritverify/workspace/gerrit_review_verification/.workspace/os/FreeRTOS/Kernel/timers.c:248
20001f12:	c509                	beqz	a0,20001f1c <xTimerCreateTimerTask+0x4e>
/jenkins/node-gerritverify/workspace/gerrit_review_verification/.workspace/os/FreeRTOS/Kernel/timers.c:271
20001f14:	40f2                	lw	ra,28(sp)
20001f16:	4505                	li	a0,1
20001f18:	6105                	addi	sp,sp,32
20001f1a:	8082                	ret
vPortRaiseBASEPRI():
/jenkins/node-gerritverify/workspace/gerrit_review_verification/.workspace/bsp/arch/riscv/n309/os_portable/freertos/portmacro.h:171
20001f1c:	900007b7          	lui	a5,0x90000
20001f20:	0647c703          	lbu	a4,100(a5) # 90000064 <_sp+0xffff0064>
__ECLIC_SetMth():
/jenkins/node-gerritverify/workspace/gerrit_review_verification/.workspace/bsp/arch/riscv/n309/include/core_feature_eclic.h:340
20001f24:	0c0007b7          	lui	a5,0xc000
20001f28:	00e785a3          	sb	a4,11(a5) # c00000b <__HEAP_SIZE+0xbffb00b>
vPortRaiseBASEPRI():
/jenkins/node-gerritverify/workspace/gerrit_review_verification/.workspace/bsp/arch/riscv/n309/os_portable/freertos/portmacro.h:172
20001f2c:	0ff0000f          	fence
xTimerCreateTimerTask():
/jenkins/node-gerritverify/workspace/gerrit_review_verification/.workspace/os/FreeRTOS/Kernel/timers.c:269 (discriminator 1)
20001f30:	a001                	j	20001f30 <xTimerCreateTimerTask+0x62>

20001f32 <xTimerGenericCommand>:
xTimerGenericCommand():
/jenkins/node-gerritverify/workspace/gerrit_review_verification/.workspace/os/FreeRTOS/Kernel/timers.c:386
20001f32:	c529                	beqz	a0,20001f7c <xTimerGenericCommand+0x4a>
/jenkins/node-gerritverify/workspace/gerrit_review_verification/.workspace/os/FreeRTOS/Kernel/timers.c:382 (discriminator 2)
20001f34:	1101                	addi	sp,sp,-32
20001f36:	cc22                	sw	s0,24(sp)
/jenkins/node-gerritverify/workspace/gerrit_review_verification/.workspace/os/FreeRTOS/Kernel/timers.c:390 (discriminator 2)
20001f38:	90008437          	lui	s0,0x90008
20001f3c:	1c440413          	addi	s0,s0,452 # 900081c4 <_sp+0xffff81c4>
20001f40:	00042883          	lw	a7,0(s0)
/jenkins/node-gerritverify/workspace/gerrit_review_verification/.workspace/os/FreeRTOS/Kernel/timers.c:382 (discriminator 2)
20001f44:	ce06                	sw	ra,28(sp)
20001f46:	ca26                	sw	s1,20(sp)
20001f48:	87aa                	mv	a5,a0
/jenkins/node-gerritverify/workspace/gerrit_review_verification/.workspace/os/FreeRTOS/Kernel/timers.c:383 (discriminator 2)
20001f4a:	4501                	li	a0,0
/jenkins/node-gerritverify/workspace/gerrit_review_verification/.workspace/os/FreeRTOS/Kernel/timers.c:390 (discriminator 2)
20001f4c:	02088363          	beqz	a7,20001f72 <xTimerGenericCommand+0x40>
/jenkins/node-gerritverify/workspace/gerrit_review_verification/.workspace/os/FreeRTOS/Kernel/timers.c:395
20001f50:	c43e                	sw	a5,8(sp)
/jenkins/node-gerritverify/workspace/gerrit_review_verification/.workspace/os/FreeRTOS/Kernel/timers.c:393
20001f52:	c02e                	sw	a1,0(sp)
/jenkins/node-gerritverify/workspace/gerrit_review_verification/.workspace/os/FreeRTOS/Kernel/timers.c:394
20001f54:	c232                	sw	a2,4(sp)
/jenkins/node-gerritverify/workspace/gerrit_review_verification/.workspace/os/FreeRTOS/Kernel/timers.c:397
20001f56:	4795                	li	a5,5
20001f58:	02b7cd63          	blt	a5,a1,20001f92 <xTimerGenericCommand+0x60>
/jenkins/node-gerritverify/workspace/gerrit_review_verification/.workspace/os/FreeRTOS/Kernel/timers.c:399
20001f5c:	84ba                	mv	s1,a4
20001f5e:	3365                	jal	20001d06 <xTaskGetSchedulerState>
20001f60:	4789                	li	a5,2
20001f62:	04f50463          	beq	a0,a5,20001faa <xTimerGenericCommand+0x78>
/jenkins/node-gerritverify/workspace/gerrit_review_verification/.workspace/os/FreeRTOS/Kernel/timers.c:405
20001f66:	4008                	lw	a0,0(s0)
20001f68:	4681                	li	a3,0
20001f6a:	4601                	li	a2,0
20001f6c:	858a                	mv	a1,sp
20001f6e:	19d000ef          	jal	ra,2000290a <xQueueGenericSend>
/jenkins/node-gerritverify/workspace/gerrit_review_verification/.workspace/os/FreeRTOS/Kernel/timers.c:421
20001f72:	40f2                	lw	ra,28(sp)
20001f74:	4462                	lw	s0,24(sp)
20001f76:	44d2                	lw	s1,20(sp)
20001f78:	6105                	addi	sp,sp,32
20001f7a:	8082                	ret
vPortRaiseBASEPRI():
/jenkins/node-gerritverify/workspace/gerrit_review_verification/.workspace/bsp/arch/riscv/n309/os_portable/freertos/portmacro.h:171
20001f7c:	900007b7          	lui	a5,0x90000
20001f80:	0647c703          	lbu	a4,100(a5) # 90000064 <_sp+0xffff0064>
__ECLIC_SetMth():
/jenkins/node-gerritverify/workspace/gerrit_review_verification/.workspace/bsp/arch/riscv/n309/include/core_feature_eclic.h:340
20001f84:	0c0007b7          	lui	a5,0xc000
20001f88:	00e785a3          	sb	a4,11(a5) # c00000b <__HEAP_SIZE+0xbffb00b>
vPortRaiseBASEPRI():
/jenkins/node-gerritverify/workspace/gerrit_review_verification/.workspace/bsp/arch/riscv/n309/os_portable/freertos/portmacro.h:172
20001f8c:	0ff0000f          	fence
xTimerGenericCommand():
/jenkins/node-gerritverify/workspace/gerrit_review_verification/.workspace/os/FreeRTOS/Kernel/timers.c:386 (discriminator 1)
20001f90:	a001                	j	20001f90 <xTimerGenericCommand+0x5e>
/jenkins/node-gerritverify/workspace/gerrit_review_verification/.workspace/os/FreeRTOS/Kernel/timers.c:410
20001f92:	8836                	mv	a6,a3
20001f94:	858a                	mv	a1,sp
20001f96:	4681                	li	a3,0
20001f98:	8642                	mv	a2,a6
20001f9a:	8546                	mv	a0,a7
20001f9c:	379000ef          	jal	ra,20002b14 <xQueueGenericSendFromISR>
/jenkins/node-gerritverify/workspace/gerrit_review_verification/.workspace/os/FreeRTOS/Kernel/timers.c:421
20001fa0:	40f2                	lw	ra,28(sp)
20001fa2:	4462                	lw	s0,24(sp)
20001fa4:	44d2                	lw	s1,20(sp)
20001fa6:	6105                	addi	sp,sp,32
20001fa8:	8082                	ret
/jenkins/node-gerritverify/workspace/gerrit_review_verification/.workspace/os/FreeRTOS/Kernel/timers.c:401
20001faa:	4008                	lw	a0,0(s0)
20001fac:	4681                	li	a3,0
20001fae:	8626                	mv	a2,s1
20001fb0:	858a                	mv	a1,sp
20001fb2:	159000ef          	jal	ra,2000290a <xQueueGenericSend>
20001fb6:	bf75                	j	20001f72 <xTimerGenericCommand+0x40>

20001fb8 <prvSwitchTimerLists>:
prvSwitchTimerLists():
/jenkins/node-gerritverify/workspace/gerrit_review_verification/.workspace/os/FreeRTOS/Kernel/timers.c:894
20001fb8:	1101                	addi	sp,sp,-32
20001fba:	c84a                	sw	s2,16(sp)
20001fbc:	90008937          	lui	s2,0x90008
20001fc0:	ce06                	sw	ra,28(sp)
20001fc2:	cc22                	sw	s0,24(sp)
20001fc4:	ca26                	sw	s1,20(sp)
20001fc6:	c64e                	sw	s3,12(sp)
20001fc8:	1b890913          	addi	s2,s2,440 # 900081b8 <_sp+0xffff81b8>
/jenkins/node-gerritverify/workspace/gerrit_review_verification/.workspace/os/FreeRTOS/Kernel/timers.c:904
20001fcc:	a005                	j	20001fec <prvSwitchTimerLists+0x34>
/jenkins/node-gerritverify/workspace/gerrit_review_verification/.workspace/os/FreeRTOS/Kernel/timers.c:906
20001fce:	47dc                	lw	a5,12(a5)
/jenkins/node-gerritverify/workspace/gerrit_review_verification/.workspace/os/FreeRTOS/Kernel/timers.c:909
20001fd0:	47c0                	lw	s0,12(a5)
/jenkins/node-gerritverify/workspace/gerrit_review_verification/.workspace/os/FreeRTOS/Kernel/timers.c:906
20001fd2:	0007a983          	lw	s3,0(a5)
/jenkins/node-gerritverify/workspace/gerrit_review_verification/.workspace/os/FreeRTOS/Kernel/timers.c:910
20001fd6:	00440493          	addi	s1,s0,4
20001fda:	8526                	mv	a0,s1
20001fdc:	3599                	jal	20001e22 <uxListRemove>
/jenkins/node-gerritverify/workspace/gerrit_review_verification/.workspace/os/FreeRTOS/Kernel/timers.c:916
20001fde:	501c                	lw	a5,32(s0)
20001fe0:	8522                	mv	a0,s0
20001fe2:	9782                	jalr	a5
/jenkins/node-gerritverify/workspace/gerrit_review_verification/.workspace/os/FreeRTOS/Kernel/timers.c:918
20001fe4:	02844783          	lbu	a5,40(s0)
20001fe8:	8b91                	andi	a5,a5,4
20001fea:	e785                	bnez	a5,20002012 <prvSwitchTimerLists+0x5a>
/jenkins/node-gerritverify/workspace/gerrit_review_verification/.workspace/os/FreeRTOS/Kernel/timers.c:904
20001fec:	00092783          	lw	a5,0(s2)
20001ff0:	4398                	lw	a4,0(a5)
20001ff2:	ff71                	bnez	a4,20001fce <prvSwitchTimerLists+0x16>
/jenkins/node-gerritverify/workspace/gerrit_review_verification/.workspace/os/FreeRTOS/Kernel/timers.c:948
20001ff4:	90008737          	lui	a4,0x90008
20001ff8:	1bc70713          	addi	a4,a4,444 # 900081bc <_sp+0xffff81bc>
20001ffc:	4314                	lw	a3,0(a4)
/jenkins/node-gerritverify/workspace/gerrit_review_verification/.workspace/os/FreeRTOS/Kernel/timers.c:950
20001ffe:	40f2                	lw	ra,28(sp)
20002000:	4462                	lw	s0,24(sp)
/jenkins/node-gerritverify/workspace/gerrit_review_verification/.workspace/os/FreeRTOS/Kernel/timers.c:948
20002002:	00d92023          	sw	a3,0(s2)
/jenkins/node-gerritverify/workspace/gerrit_review_verification/.workspace/os/FreeRTOS/Kernel/timers.c:949
20002006:	c31c                	sw	a5,0(a4)
/jenkins/node-gerritverify/workspace/gerrit_review_verification/.workspace/os/FreeRTOS/Kernel/timers.c:950
20002008:	44d2                	lw	s1,20(sp)
2000200a:	4942                	lw	s2,16(sp)
2000200c:	49b2                	lw	s3,12(sp)
2000200e:	6105                	addi	sp,sp,32
20002010:	8082                	ret
/jenkins/node-gerritverify/workspace/gerrit_review_verification/.workspace/os/FreeRTOS/Kernel/timers.c:926
20002012:	4c1c                	lw	a5,24(s0)
/jenkins/node-gerritverify/workspace/gerrit_review_verification/.workspace/os/FreeRTOS/Kernel/timers.c:936
20002014:	4701                	li	a4,0
/jenkins/node-gerritverify/workspace/gerrit_review_verification/.workspace/os/FreeRTOS/Kernel/timers.c:926
20002016:	97ce                	add	a5,a5,s3
/jenkins/node-gerritverify/workspace/gerrit_review_verification/.workspace/os/FreeRTOS/Kernel/timers.c:936
20002018:	4681                	li	a3,0
2000201a:	864e                	mv	a2,s3
2000201c:	4581                	li	a1,0
2000201e:	8522                	mv	a0,s0
/jenkins/node-gerritverify/workspace/gerrit_review_verification/.workspace/os/FreeRTOS/Kernel/timers.c:928
20002020:	00f9f963          	bgeu	s3,a5,20002032 <prvSwitchTimerLists+0x7a>
/jenkins/node-gerritverify/workspace/gerrit_review_verification/.workspace/os/FreeRTOS/Kernel/timers.c:932
20002024:	00092503          	lw	a0,0(s2)
/jenkins/node-gerritverify/workspace/gerrit_review_verification/.workspace/os/FreeRTOS/Kernel/timers.c:930
20002028:	c05c                	sw	a5,4(s0)
/jenkins/node-gerritverify/workspace/gerrit_review_verification/.workspace/os/FreeRTOS/Kernel/timers.c:931
2000202a:	c800                	sw	s0,16(s0)
/jenkins/node-gerritverify/workspace/gerrit_review_verification/.workspace/os/FreeRTOS/Kernel/timers.c:932
2000202c:	85a6                	mv	a1,s1
2000202e:	33d9                	jal	20001df4 <vListInsert>
20002030:	bf75                	j	20001fec <prvSwitchTimerLists+0x34>
/jenkins/node-gerritverify/workspace/gerrit_review_verification/.workspace/os/FreeRTOS/Kernel/timers.c:936
20002032:	3701                	jal	20001f32 <xTimerGenericCommand>
/jenkins/node-gerritverify/workspace/gerrit_review_verification/.workspace/os/FreeRTOS/Kernel/timers.c:937
20002034:	fd45                	bnez	a0,20001fec <prvSwitchTimerLists+0x34>
vPortRaiseBASEPRI():
/jenkins/node-gerritverify/workspace/gerrit_review_verification/.workspace/bsp/arch/riscv/n309/os_portable/freertos/portmacro.h:171
20002036:	900007b7          	lui	a5,0x90000
2000203a:	0647c703          	lbu	a4,100(a5) # 90000064 <_sp+0xffff0064>
__ECLIC_SetMth():
/jenkins/node-gerritverify/workspace/gerrit_review_verification/.workspace/bsp/arch/riscv/n309/include/core_feature_eclic.h:340
2000203e:	0c0007b7          	lui	a5,0xc000
20002042:	00e785a3          	sb	a4,11(a5) # c00000b <__HEAP_SIZE+0xbffb00b>
vPortRaiseBASEPRI():
/jenkins/node-gerritverify/workspace/gerrit_review_verification/.workspace/bsp/arch/riscv/n309/os_portable/freertos/portmacro.h:172
20002046:	0ff0000f          	fence
prvSwitchTimerLists():
/jenkins/node-gerritverify/workspace/gerrit_review_verification/.workspace/os/FreeRTOS/Kernel/timers.c:937 (discriminator 1)
2000204a:	a001                	j	2000204a <prvSwitchTimerLists+0x92>

2000204c <prvTimerTask>:
prvTimerTask():
/jenkins/node-gerritverify/workspace/gerrit_review_verification/.workspace/os/FreeRTOS/Kernel/timers.c:552
2000204c:	715d                	addi	sp,sp,-80
2000204e:	c2a6                	sw	s1,68(sp)
20002050:	c0ca                	sw	s2,64(sp)
20002052:	de4e                	sw	s3,60(sp)
20002054:	dc52                	sw	s4,56(sp)
20002056:	d85a                	sw	s6,48(sp)
20002058:	900089b7          	lui	s3,0x90008
2000205c:	90008937          	lui	s2,0x90008
20002060:	90008b37          	lui	s6,0x90008
20002064:	900084b7          	lui	s1,0x90008
20002068:	20005a37          	lui	s4,0x20005
2000206c:	da56                	sw	s5,52(sp)
2000206e:	d65e                	sw	s7,44(sp)
20002070:	d462                	sw	s8,40(sp)
20002072:	c686                	sw	ra,76(sp)
20002074:	c4a2                	sw	s0,72(sp)
20002076:	d266                	sw	s9,36(sp)
20002078:	d06a                	sw	s10,32(sp)
2000207a:	ce6e                	sw	s11,28(sp)
2000207c:	1b898993          	addi	s3,s3,440 # 900081b8 <_sp+0xffff81b8>
20002080:	1c090913          	addi	s2,s2,448 # 900081c0 <_sp+0xffff81c0>
20002084:	1bcb0b13          	addi	s6,s6,444 # 900081bc <_sp+0xffff81bc>
20002088:	1c448493          	addi	s1,s1,452 # 900081c4 <_sp+0xffff81c4>
2000208c:	b04a0a13          	addi	s4,s4,-1276 # 20004b04 <CSWTCH.14+0x84>
__SW():
/jenkins/node-gerritverify/workspace/gerrit_review_verification/.workspace/bsp/arch/riscv/n309/include/core_feature_base.h:1460
20002090:	4c05                	li	s8,1
SysTimer_SetSWIRQ():
/jenkins/node-gerritverify/workspace/gerrit_review_verification/.workspace/bsp/arch/riscv/n309/include/core_feature_timer.h:297
20002092:	02001bb7          	lui	s7,0x2001
20002096:	4aa5                	li	s5,9
prvGetNextExpireTime():
/jenkins/node-gerritverify/workspace/gerrit_review_verification/.workspace/os/FreeRTOS/Kernel/timers.c:660 (discriminator 1)
20002098:	0009a783          	lw	a5,0(s3)
2000209c:	0007ac83          	lw	s9,0(a5)
200020a0:	140c8063          	beqz	s9,200021e0 <prvTimerTask+0x194>
/jenkins/node-gerritverify/workspace/gerrit_review_verification/.workspace/os/FreeRTOS/Kernel/timers.c:664
200020a4:	47dc                	lw	a5,12(a5)
200020a6:	0007ac83          	lw	s9,0(a5)
prvProcessTimerOrBlockTask():
/jenkins/node-gerritverify/workspace/gerrit_review_verification/.workspace/os/FreeRTOS/Kernel/timers.c:593
200020aa:	9f9ff0ef          	jal	ra,20001aa2 <vTaskSuspendAll>
prvSampleTimeNow():
/jenkins/node-gerritverify/workspace/gerrit_review_verification/.workspace/os/FreeRTOS/Kernel/timers.c:681
200020ae:	a27ff0ef          	jal	ra,20001ad4 <xTaskGetTickCount>
/jenkins/node-gerritverify/workspace/gerrit_review_verification/.workspace/os/FreeRTOS/Kernel/timers.c:683
200020b2:	00092783          	lw	a5,0(s2)
/jenkins/node-gerritverify/workspace/gerrit_review_verification/.workspace/os/FreeRTOS/Kernel/timers.c:681
200020b6:	842a                	mv	s0,a0
/jenkins/node-gerritverify/workspace/gerrit_review_verification/.workspace/os/FreeRTOS/Kernel/timers.c:683
200020b8:	14f56563          	bltu	a0,a5,20002202 <prvTimerTask+0x1b6>
/jenkins/node-gerritverify/workspace/gerrit_review_verification/.workspace/os/FreeRTOS/Kernel/timers.c:693
200020bc:	00a92023          	sw	a0,0(s2)
prvProcessTimerOrBlockTask():
/jenkins/node-gerritverify/workspace/gerrit_review_verification/.workspace/os/FreeRTOS/Kernel/timers.c:605
200020c0:	4601                	li	a2,0
200020c2:	15957f63          	bgeu	a0,s9,20002220 <prvTimerTask+0x1d4>
/jenkins/node-gerritverify/workspace/gerrit_review_verification/.workspace/os/FreeRTOS/Kernel/timers.c:625
200020c6:	4088                	lw	a0,0(s1)
200020c8:	408c85b3          	sub	a1,s9,s0
200020cc:	551000ef          	jal	ra,20002e1c <vQueueWaitForMessageRestricted>
/jenkins/node-gerritverify/workspace/gerrit_review_verification/.workspace/os/FreeRTOS/Kernel/timers.c:627
200020d0:	9e3ff0ef          	jal	ra,20001ab2 <xTaskResumeAll>
200020d4:	ed09                	bnez	a0,200020ee <prvTimerTask+0xa2>
SysTimer_SetSWIRQ():
/jenkins/node-gerritverify/workspace/gerrit_review_verification/.workspace/bsp/arch/riscv/n309/include/core_feature_timer.h:293
200020d6:	f14027f3          	csrr	a5,mhartid
/jenkins/node-gerritverify/workspace/gerrit_review_verification/.workspace/bsp/arch/riscv/n309/include/core_feature_timer.h:294
200020da:	12079c63          	bnez	a5,20002212 <prvTimerTask+0x1c6>
/jenkins/node-gerritverify/workspace/gerrit_review_verification/.workspace/bsp/arch/riscv/n309/include/core_feature_timer.h:295
200020de:	ffcba783          	lw	a5,-4(s7) # 2000ffc <__HEAP_SIZE+0x1ffbffc>
200020e2:	0017e793          	ori	a5,a5,1
200020e6:	fefbae23          	sw	a5,-4(s7)
prvProcessTimerOrBlockTask():
/jenkins/node-gerritverify/workspace/gerrit_review_verification/.workspace/os/FreeRTOS/Kernel/timers.c:633
200020ea:	0ff0000f          	fence
prvProcessReceivedCommands():
/jenkins/node-gerritverify/workspace/gerrit_review_verification/.workspace/os/FreeRTOS/Kernel/timers.c:750
200020ee:	4088                	lw	a0,0(s1)
200020f0:	4601                	li	a2,0
200020f2:	858a                	mv	a1,sp
200020f4:	367000ef          	jal	ra,20002c5a <xQueueReceive>
200020f8:	d145                	beqz	a0,20002098 <prvTimerTask+0x4c>
/jenkins/node-gerritverify/workspace/gerrit_review_verification/.workspace/os/FreeRTOS/Kernel/timers.c:756
200020fa:	4782                	lw	a5,0(sp)
/jenkins/node-gerritverify/workspace/gerrit_review_verification/.workspace/os/FreeRTOS/Kernel/timers.c:765
200020fc:	4422                	lw	s0,8(sp)
/jenkins/node-gerritverify/workspace/gerrit_review_verification/.workspace/os/FreeRTOS/Kernel/timers.c:756
200020fe:	0c07c863          	bltz	a5,200021ce <prvTimerTask+0x182>
/jenkins/node-gerritverify/workspace/gerrit_review_verification/.workspace/os/FreeRTOS/Kernel/timers.c:782
20002102:	485c                	lw	a5,20(s0)
20002104:	c781                	beqz	a5,2000210c <prvTimerTask+0xc0>
/jenkins/node-gerritverify/workspace/gerrit_review_verification/.workspace/os/FreeRTOS/Kernel/timers.c:785
20002106:	00440513          	addi	a0,s0,4
2000210a:	3b21                	jal	20001e22 <uxListRemove>
prvSampleTimeNow():
/jenkins/node-gerritverify/workspace/gerrit_review_verification/.workspace/os/FreeRTOS/Kernel/timers.c:681
2000210c:	9c9ff0ef          	jal	ra,20001ad4 <xTaskGetTickCount>
/jenkins/node-gerritverify/workspace/gerrit_review_verification/.workspace/os/FreeRTOS/Kernel/timers.c:683
20002110:	00092783          	lw	a5,0(s2)
/jenkins/node-gerritverify/workspace/gerrit_review_verification/.workspace/os/FreeRTOS/Kernel/timers.c:681
20002114:	8caa                	mv	s9,a0
/jenkins/node-gerritverify/workspace/gerrit_review_verification/.workspace/os/FreeRTOS/Kernel/timers.c:683
20002116:	0ef56c63          	bltu	a0,a5,2000220e <prvTimerTask+0x1c2>
/jenkins/node-gerritverify/workspace/gerrit_review_verification/.workspace/os/FreeRTOS/Kernel/timers.c:693
2000211a:	4782                	lw	a5,0(sp)
2000211c:	01992023          	sw	s9,0(s2)
prvProcessReceivedCommands():
/jenkins/node-gerritverify/workspace/gerrit_review_verification/.workspace/os/FreeRTOS/Kernel/timers.c:802
20002120:	fcfae7e3          	bltu	s5,a5,200020ee <prvTimerTask+0xa2>
20002124:	078a                	slli	a5,a5,0x2
20002126:	97d2                	add	a5,a5,s4
20002128:	439c                	lw	a5,0(a5)
2000212a:	8782                	jr	a5
/jenkins/node-gerritverify/workspace/gerrit_review_verification/.workspace/os/FreeRTOS/Kernel/timers.c:810
2000212c:	02844783          	lbu	a5,40(s0)
/jenkins/node-gerritverify/workspace/gerrit_review_verification/.workspace/os/FreeRTOS/Kernel/timers.c:812
20002130:	4692                	lw	a3,4(sp)
20002132:	4c10                	lw	a2,24(s0)
/jenkins/node-gerritverify/workspace/gerrit_review_verification/.workspace/os/FreeRTOS/Kernel/timers.c:810
20002134:	0017e793          	ori	a5,a5,1
/jenkins/node-gerritverify/workspace/gerrit_review_verification/.workspace/os/FreeRTOS/Kernel/timers.c:812
20002138:	00c68733          	add	a4,a3,a2
/jenkins/node-gerritverify/workspace/gerrit_review_verification/.workspace/os/FreeRTOS/Kernel/timers.c:810
2000213c:	02f40423          	sb	a5,40(s0)
prvInsertTimerInActiveList():
/jenkins/node-gerritverify/workspace/gerrit_review_verification/.workspace/os/FreeRTOS/Kernel/timers.c:706
20002140:	c058                	sw	a4,4(s0)
/jenkins/node-gerritverify/workspace/gerrit_review_verification/.workspace/os/FreeRTOS/Kernel/timers.c:707
20002142:	c800                	sw	s0,16(s0)
/jenkins/node-gerritverify/workspace/gerrit_review_verification/.workspace/os/FreeRTOS/Kernel/timers.c:709
20002144:	10ece663          	bltu	s9,a4,20002250 <prvTimerTask+0x204>
/jenkins/node-gerritverify/workspace/gerrit_review_verification/.workspace/os/FreeRTOS/Kernel/timers.c:713
20002148:	40dc8cb3          	sub	s9,s9,a3
2000214c:	14cce263          	bltu	s9,a2,20002290 <prvTimerTask+0x244>
prvProcessReceivedCommands():
/jenkins/node-gerritverify/workspace/gerrit_review_verification/.workspace/os/FreeRTOS/Kernel/timers.c:816
20002150:	501c                	lw	a5,32(s0)
20002152:	8522                	mv	a0,s0
20002154:	9782                	jalr	a5
/jenkins/node-gerritverify/workspace/gerrit_review_verification/.workspace/os/FreeRTOS/Kernel/timers.c:819
20002156:	02844783          	lbu	a5,40(s0)
2000215a:	8b91                	andi	a5,a5,4
2000215c:	dbc9                	beqz	a5,200020ee <prvTimerTask+0xa2>
/jenkins/node-gerritverify/workspace/gerrit_review_verification/.workspace/os/FreeRTOS/Kernel/timers.c:821
2000215e:	4c1c                	lw	a5,24(s0)
20002160:	4612                	lw	a2,4(sp)
20002162:	4701                	li	a4,0
20002164:	4681                	li	a3,0
20002166:	963e                	add	a2,a2,a5
20002168:	4581                	li	a1,0
2000216a:	8522                	mv	a0,s0
2000216c:	33d9                	jal	20001f32 <xTimerGenericCommand>
/jenkins/node-gerritverify/workspace/gerrit_review_verification/.workspace/os/FreeRTOS/Kernel/timers.c:822
2000216e:	f141                	bnez	a0,200020ee <prvTimerTask+0xa2>
vPortRaiseBASEPRI():
/jenkins/node-gerritverify/workspace/gerrit_review_verification/.workspace/bsp/arch/riscv/n309/os_portable/freertos/portmacro.h:171
20002170:	900007b7          	lui	a5,0x90000
20002174:	0647c703          	lbu	a4,100(a5) # 90000064 <_sp+0xffff0064>
__ECLIC_SetMth():
/jenkins/node-gerritverify/workspace/gerrit_review_verification/.workspace/bsp/arch/riscv/n309/include/core_feature_eclic.h:340
20002178:	0c0007b7          	lui	a5,0xc000
2000217c:	00e785a3          	sb	a4,11(a5) # c00000b <__HEAP_SIZE+0xbffb00b>
vPortRaiseBASEPRI():
/jenkins/node-gerritverify/workspace/gerrit_review_verification/.workspace/bsp/arch/riscv/n309/os_portable/freertos/portmacro.h:172
20002180:	0ff0000f          	fence
prvProcessReceivedCommands():
/jenkins/node-gerritverify/workspace/gerrit_review_verification/.workspace/os/FreeRTOS/Kernel/timers.c:822
20002184:	a001                	j	20002184 <prvTimerTask+0x138>
/jenkins/node-gerritverify/workspace/gerrit_review_verification/.workspace/os/FreeRTOS/Kernel/timers.c:845
20002186:	02844703          	lbu	a4,40(s0)
/jenkins/node-gerritverify/workspace/gerrit_review_verification/.workspace/os/FreeRTOS/Kernel/timers.c:846
2000218a:	4792                	lw	a5,4(sp)
/jenkins/node-gerritverify/workspace/gerrit_review_verification/.workspace/os/FreeRTOS/Kernel/timers.c:845
2000218c:	00176713          	ori	a4,a4,1
20002190:	02e40423          	sb	a4,40(s0)
/jenkins/node-gerritverify/workspace/gerrit_review_verification/.workspace/os/FreeRTOS/Kernel/timers.c:846
20002194:	cc1c                	sw	a5,24(s0)
/jenkins/node-gerritverify/workspace/gerrit_review_verification/.workspace/os/FreeRTOS/Kernel/timers.c:847
20002196:	12078963          	beqz	a5,200022c8 <prvTimerTask+0x27c>
/jenkins/node-gerritverify/workspace/gerrit_review_verification/.workspace/os/FreeRTOS/Kernel/timers.c:855
2000219a:	97e6                	add	a5,a5,s9
prvInsertTimerInActiveList():
/jenkins/node-gerritverify/workspace/gerrit_review_verification/.workspace/os/FreeRTOS/Kernel/timers.c:706
2000219c:	c05c                	sw	a5,4(s0)
/jenkins/node-gerritverify/workspace/gerrit_review_verification/.workspace/os/FreeRTOS/Kernel/timers.c:707
2000219e:	c800                	sw	s0,16(s0)
prvProcessReceivedCommands():
/jenkins/node-gerritverify/workspace/gerrit_review_verification/.workspace/os/FreeRTOS/Kernel/timers.c:785
200021a0:	00440593          	addi	a1,s0,4
prvInsertTimerInActiveList():
/jenkins/node-gerritverify/workspace/gerrit_review_verification/.workspace/os/FreeRTOS/Kernel/timers.c:709
200021a4:	0cfce063          	bltu	s9,a5,20002264 <prvTimerTask+0x218>
/jenkins/node-gerritverify/workspace/gerrit_review_verification/.workspace/os/FreeRTOS/Kernel/timers.c:721
200021a8:	000b2503          	lw	a0,0(s6)
200021ac:	31a1                	jal	20001df4 <vListInsert>
/jenkins/node-gerritverify/workspace/gerrit_review_verification/.workspace/os/FreeRTOS/Kernel/timers.c:739
200021ae:	b781                	j	200020ee <prvTimerTask+0xa2>
prvProcessReceivedCommands():
/jenkins/node-gerritverify/workspace/gerrit_review_verification/.workspace/os/FreeRTOS/Kernel/timers.c:840
200021b0:	02844783          	lbu	a5,40(s0)
200021b4:	9bf9                	andi	a5,a5,-2
200021b6:	02f40423          	sb	a5,40(s0)
/jenkins/node-gerritverify/workspace/gerrit_review_verification/.workspace/os/FreeRTOS/Kernel/timers.c:841
200021ba:	bf15                	j	200020ee <prvTimerTask+0xa2>
/jenkins/node-gerritverify/workspace/gerrit_review_verification/.workspace/os/FreeRTOS/Kernel/timers.c:864
200021bc:	02844783          	lbu	a5,40(s0)
200021c0:	0027f713          	andi	a4,a5,2
200021c4:	c745                	beqz	a4,2000226c <prvTimerTask+0x220>
/jenkins/node-gerritverify/workspace/gerrit_review_verification/.workspace/os/FreeRTOS/Kernel/timers.c:870
200021c6:	9bf9                	andi	a5,a5,-2
200021c8:	02f40423          	sb	a5,40(s0)
200021cc:	b70d                	j	200020ee <prvTimerTask+0xa2>
/jenkins/node-gerritverify/workspace/gerrit_review_verification/.workspace/os/FreeRTOS/Kernel/timers.c:765
200021ce:	4792                	lw	a5,4(sp)
200021d0:	45b2                	lw	a1,12(sp)
200021d2:	8522                	mv	a0,s0
200021d4:	9782                	jalr	a5
/jenkins/node-gerritverify/workspace/gerrit_review_verification/.workspace/os/FreeRTOS/Kernel/timers.c:776
200021d6:	4782                	lw	a5,0(sp)
200021d8:	f007cbe3          	bltz	a5,200020ee <prvTimerTask+0xa2>
/jenkins/node-gerritverify/workspace/gerrit_review_verification/.workspace/os/FreeRTOS/Kernel/timers.c:780
200021dc:	4422                	lw	s0,8(sp)
200021de:	b715                	j	20002102 <prvTimerTask+0xb6>
prvProcessTimerOrBlockTask():
/jenkins/node-gerritverify/workspace/gerrit_review_verification/.workspace/os/FreeRTOS/Kernel/timers.c:593
200021e0:	8c3ff0ef          	jal	ra,20001aa2 <vTaskSuspendAll>
prvSampleTimeNow():
/jenkins/node-gerritverify/workspace/gerrit_review_verification/.workspace/os/FreeRTOS/Kernel/timers.c:681
200021e4:	8f1ff0ef          	jal	ra,20001ad4 <xTaskGetTickCount>
/jenkins/node-gerritverify/workspace/gerrit_review_verification/.workspace/os/FreeRTOS/Kernel/timers.c:683
200021e8:	00092783          	lw	a5,0(s2)
/jenkins/node-gerritverify/workspace/gerrit_review_verification/.workspace/os/FreeRTOS/Kernel/timers.c:681
200021ec:	842a                	mv	s0,a0
/jenkins/node-gerritverify/workspace/gerrit_review_verification/.workspace/os/FreeRTOS/Kernel/timers.c:683
200021ee:	00f56a63          	bltu	a0,a5,20002202 <prvTimerTask+0x1b6>
prvProcessTimerOrBlockTask():
/jenkins/node-gerritverify/workspace/gerrit_review_verification/.workspace/os/FreeRTOS/Kernel/timers.c:622
200021f2:	000b2783          	lw	a5,0(s6)
prvSampleTimeNow():
/jenkins/node-gerritverify/workspace/gerrit_review_verification/.workspace/os/FreeRTOS/Kernel/timers.c:693
200021f6:	00892023          	sw	s0,0(s2)
prvProcessTimerOrBlockTask():
/jenkins/node-gerritverify/workspace/gerrit_review_verification/.workspace/os/FreeRTOS/Kernel/timers.c:622
200021fa:	4390                	lw	a2,0(a5)
200021fc:	00163613          	seqz	a2,a2
20002200:	b5d9                	j	200020c6 <prvTimerTask+0x7a>
prvSampleTimeNow():
/jenkins/node-gerritverify/workspace/gerrit_review_verification/.workspace/os/FreeRTOS/Kernel/timers.c:685
20002202:	3b5d                	jal	20001fb8 <prvSwitchTimerLists>
/jenkins/node-gerritverify/workspace/gerrit_review_verification/.workspace/os/FreeRTOS/Kernel/timers.c:693
20002204:	00892023          	sw	s0,0(s2)
prvProcessTimerOrBlockTask():
/jenkins/node-gerritverify/workspace/gerrit_review_verification/.workspace/os/FreeRTOS/Kernel/timers.c:643
20002208:	8abff0ef          	jal	ra,20001ab2 <xTaskResumeAll>
2000220c:	b5cd                	j	200020ee <prvTimerTask+0xa2>
prvSampleTimeNow():
/jenkins/node-gerritverify/workspace/gerrit_review_verification/.workspace/os/FreeRTOS/Kernel/timers.c:685
2000220e:	336d                	jal	20001fb8 <prvSwitchTimerLists>
/jenkins/node-gerritverify/workspace/gerrit_review_verification/.workspace/os/FreeRTOS/Kernel/timers.c:686
20002210:	b729                	j	2000211a <prvTimerTask+0xce>
SysTimer_SetSWIRQ():
/jenkins/node-gerritverify/workspace/gerrit_review_verification/.workspace/bsp/arch/riscv/n309/include/core_feature_timer.h:297
20002212:	078a                	slli	a5,a5,0x2
20002214:	97de                	add	a5,a5,s7
__SW():
/jenkins/node-gerritverify/workspace/gerrit_review_verification/.workspace/bsp/arch/riscv/n309/include/core_feature_base.h:1460
20002216:	0187a023          	sw	s8,0(a5)
prvProcessTimerOrBlockTask():
/jenkins/node-gerritverify/workspace/gerrit_review_verification/.workspace/os/FreeRTOS/Kernel/timers.c:633
2000221a:	0ff0000f          	fence
2000221e:	bdc1                	j	200020ee <prvTimerTask+0xa2>
/jenkins/node-gerritverify/workspace/gerrit_review_verification/.workspace/os/FreeRTOS/Kernel/timers.c:607
20002220:	893ff0ef          	jal	ra,20001ab2 <xTaskResumeAll>
prvProcessExpiredTimer():
/jenkins/node-gerritverify/workspace/gerrit_review_verification/.workspace/os/FreeRTOS/Kernel/timers.c:512
20002224:	0009a783          	lw	a5,0(s3)
20002228:	47dc                	lw	a5,12(a5)
2000222a:	00c7ad03          	lw	s10,12(a5)
/jenkins/node-gerritverify/workspace/gerrit_review_verification/.workspace/os/FreeRTOS/Kernel/timers.c:517
2000222e:	004d0d93          	addi	s11,s10,4
20002232:	856e                	mv	a0,s11
20002234:	36fd                	jal	20001e22 <uxListRemove>
/jenkins/node-gerritverify/workspace/gerrit_review_verification/.workspace/os/FreeRTOS/Kernel/timers.c:522
20002236:	028d4783          	lbu	a5,40(s10)
2000223a:	0047f713          	andi	a4,a5,4
2000223e:	eb15                	bnez	a4,20002272 <prvTimerTask+0x226>
/jenkins/node-gerritverify/workspace/gerrit_review_verification/.workspace/os/FreeRTOS/Kernel/timers.c:542
20002240:	9bf9                	andi	a5,a5,-2
20002242:	02fd0423          	sb	a5,40(s10)
/jenkins/node-gerritverify/workspace/gerrit_review_verification/.workspace/os/FreeRTOS/Kernel/timers.c:547
20002246:	020d2783          	lw	a5,32(s10)
2000224a:	856a                	mv	a0,s10
2000224c:	9782                	jalr	a5
/jenkins/node-gerritverify/workspace/gerrit_review_verification/.workspace/os/FreeRTOS/Kernel/timers.c:548
2000224e:	b545                	j	200020ee <prvTimerTask+0xa2>
prvInsertTimerInActiveList():
/jenkins/node-gerritverify/workspace/gerrit_review_verification/.workspace/os/FreeRTOS/Kernel/timers.c:726
20002250:	00dcf463          	bgeu	s9,a3,20002258 <prvTimerTask+0x20c>
20002254:	eed77ee3          	bgeu	a4,a3,20002150 <prvTimerTask+0x104>
/jenkins/node-gerritverify/workspace/gerrit_review_verification/.workspace/os/FreeRTOS/Kernel/timers.c:735
20002258:	0009a503          	lw	a0,0(s3)
2000225c:	00440593          	addi	a1,s0,4
20002260:	3e51                	jal	20001df4 <vListInsert>
/jenkins/node-gerritverify/workspace/gerrit_review_verification/.workspace/os/FreeRTOS/Kernel/timers.c:739
20002262:	b571                	j	200020ee <prvTimerTask+0xa2>
/jenkins/node-gerritverify/workspace/gerrit_review_verification/.workspace/os/FreeRTOS/Kernel/timers.c:735
20002264:	0009a503          	lw	a0,0(s3)
20002268:	3671                	jal	20001df4 <vListInsert>
2000226a:	b551                	j	200020ee <prvTimerTask+0xa2>
prvProcessReceivedCommands():
/jenkins/node-gerritverify/workspace/gerrit_review_verification/.workspace/os/FreeRTOS/Kernel/timers.c:866
2000226c:	8522                	mv	a0,s0
2000226e:	24b5                	jal	200024da <vPortFree>
20002270:	bdbd                	j	200020ee <prvTimerTask+0xa2>
prvProcessExpiredTimer():
/jenkins/node-gerritverify/workspace/gerrit_review_verification/.workspace/os/FreeRTOS/Kernel/timers.c:527
20002272:	018d2703          	lw	a4,24(s10)
prvInsertTimerInActiveList():
/jenkins/node-gerritverify/workspace/gerrit_review_verification/.workspace/os/FreeRTOS/Kernel/timers.c:707
20002276:	01ad2823          	sw	s10,16(s10)
prvProcessExpiredTimer():
/jenkins/node-gerritverify/workspace/gerrit_review_verification/.workspace/os/FreeRTOS/Kernel/timers.c:527
2000227a:	00ec87b3          	add	a5,s9,a4
prvInsertTimerInActiveList():
/jenkins/node-gerritverify/workspace/gerrit_review_verification/.workspace/os/FreeRTOS/Kernel/timers.c:706
2000227e:	00fd2223          	sw	a5,4(s10)
/jenkins/node-gerritverify/workspace/gerrit_review_verification/.workspace/os/FreeRTOS/Kernel/timers.c:709
20002282:	00f47d63          	bgeu	s0,a5,2000229c <prvTimerTask+0x250>
/jenkins/node-gerritverify/workspace/gerrit_review_verification/.workspace/os/FreeRTOS/Kernel/timers.c:735
20002286:	0009a503          	lw	a0,0(s3)
2000228a:	85ee                	mv	a1,s11
2000228c:	36a5                	jal	20001df4 <vListInsert>
/jenkins/node-gerritverify/workspace/gerrit_review_verification/.workspace/os/FreeRTOS/Kernel/timers.c:739
2000228e:	bf65                	j	20002246 <prvTimerTask+0x1fa>
/jenkins/node-gerritverify/workspace/gerrit_review_verification/.workspace/os/FreeRTOS/Kernel/timers.c:721
20002290:	000b2503          	lw	a0,0(s6)
20002294:	00440593          	addi	a1,s0,4
20002298:	3eb1                	jal	20001df4 <vListInsert>
/jenkins/node-gerritverify/workspace/gerrit_review_verification/.workspace/os/FreeRTOS/Kernel/timers.c:739
2000229a:	bd91                	j	200020ee <prvTimerTask+0xa2>
/jenkins/node-gerritverify/workspace/gerrit_review_verification/.workspace/os/FreeRTOS/Kernel/timers.c:713
2000229c:	41940433          	sub	s0,s0,s9
200022a0:	02e46f63          	bltu	s0,a4,200022de <prvTimerTask+0x292>
prvProcessExpiredTimer():
/jenkins/node-gerritverify/workspace/gerrit_review_verification/.workspace/os/FreeRTOS/Kernel/timers.c:531
200022a4:	4701                	li	a4,0
200022a6:	4681                	li	a3,0
200022a8:	8666                	mv	a2,s9
200022aa:	4581                	li	a1,0
200022ac:	856a                	mv	a0,s10
200022ae:	3151                	jal	20001f32 <xTimerGenericCommand>
/jenkins/node-gerritverify/workspace/gerrit_review_verification/.workspace/os/FreeRTOS/Kernel/timers.c:532
200022b0:	f959                	bnez	a0,20002246 <prvTimerTask+0x1fa>
vPortRaiseBASEPRI():
/jenkins/node-gerritverify/workspace/gerrit_review_verification/.workspace/bsp/arch/riscv/n309/os_portable/freertos/portmacro.h:171
200022b2:	900007b7          	lui	a5,0x90000
200022b6:	0647c703          	lbu	a4,100(a5) # 90000064 <_sp+0xffff0064>
__ECLIC_SetMth():
/jenkins/node-gerritverify/workspace/gerrit_review_verification/.workspace/bsp/arch/riscv/n309/include/core_feature_eclic.h:340
200022ba:	0c0007b7          	lui	a5,0xc000
200022be:	00e785a3          	sb	a4,11(a5) # c00000b <__HEAP_SIZE+0xbffb00b>
vPortRaiseBASEPRI():
/jenkins/node-gerritverify/workspace/gerrit_review_verification/.workspace/bsp/arch/riscv/n309/os_portable/freertos/portmacro.h:172
200022c2:	0ff0000f          	fence
prvProcessExpiredTimer():
/jenkins/node-gerritverify/workspace/gerrit_review_verification/.workspace/os/FreeRTOS/Kernel/timers.c:532
200022c6:	a001                	j	200022c6 <prvTimerTask+0x27a>
vPortRaiseBASEPRI():
/jenkins/node-gerritverify/workspace/gerrit_review_verification/.workspace/bsp/arch/riscv/n309/os_portable/freertos/portmacro.h:171
200022c8:	900007b7          	lui	a5,0x90000
200022cc:	0647c703          	lbu	a4,100(a5) # 90000064 <_sp+0xffff0064>
__ECLIC_SetMth():
/jenkins/node-gerritverify/workspace/gerrit_review_verification/.workspace/bsp/arch/riscv/n309/include/core_feature_eclic.h:340
200022d0:	0c0007b7          	lui	a5,0xc000
200022d4:	00e785a3          	sb	a4,11(a5) # c00000b <__HEAP_SIZE+0xbffb00b>
vPortRaiseBASEPRI():
/jenkins/node-gerritverify/workspace/gerrit_review_verification/.workspace/bsp/arch/riscv/n309/os_portable/freertos/portmacro.h:172
200022d8:	0ff0000f          	fence
prvProcessReceivedCommands():
/jenkins/node-gerritverify/workspace/gerrit_review_verification/.workspace/os/FreeRTOS/Kernel/timers.c:847
200022dc:	a001                	j	200022dc <prvTimerTask+0x290>
prvInsertTimerInActiveList():
/jenkins/node-gerritverify/workspace/gerrit_review_verification/.workspace/os/FreeRTOS/Kernel/timers.c:721
200022de:	000b2503          	lw	a0,0(s6)
200022e2:	85ee                	mv	a1,s11
200022e4:	3e01                	jal	20001df4 <vListInsert>
/jenkins/node-gerritverify/workspace/gerrit_review_verification/.workspace/os/FreeRTOS/Kernel/timers.c:739
200022e6:	b785                	j	20002246 <prvTimerTask+0x1fa>

200022e8 <prvInsertBlockIntoFreeList>:
prvInsertBlockIntoFreeList():
/jenkins/node-gerritverify/workspace/gerrit_review_verification/.workspace/os/FreeRTOS/Kernel/portable/MemMang/heap_4.c:397
200022e8:	900087b7          	lui	a5,0x90008
200022ec:	1e478793          	addi	a5,a5,484 # 900081e4 <_sp+0xffff81e4>
/jenkins/node-gerritverify/workspace/gerrit_review_verification/.workspace/os/FreeRTOS/Kernel/portable/MemMang/heap_4.c:397 (discriminator 1)
200022f0:	873e                	mv	a4,a5
200022f2:	439c                	lw	a5,0(a5)
200022f4:	fea7eee3          	bltu	a5,a0,200022f0 <prvInsertBlockIntoFreeList+0x8>
/jenkins/node-gerritverify/workspace/gerrit_review_verification/.workspace/os/FreeRTOS/Kernel/portable/MemMang/heap_4.c:406
200022f8:	4350                	lw	a2,4(a4)
/jenkins/node-gerritverify/workspace/gerrit_review_verification/.workspace/os/FreeRTOS/Kernel/portable/MemMang/heap_4.c:408
200022fa:	4154                	lw	a3,4(a0)
/jenkins/node-gerritverify/workspace/gerrit_review_verification/.workspace/os/FreeRTOS/Kernel/portable/MemMang/heap_4.c:406
200022fc:	00c705b3          	add	a1,a4,a2
20002300:	02b50763          	beq	a0,a1,2000232e <prvInsertBlockIntoFreeList+0x46>
/jenkins/node-gerritverify/workspace/gerrit_review_verification/.workspace/os/FreeRTOS/Kernel/portable/MemMang/heap_4.c:420
20002304:	00d50633          	add	a2,a0,a3
20002308:	00c78763          	beq	a5,a2,20002316 <prvInsertBlockIntoFreeList+0x2e>
/jenkins/node-gerritverify/workspace/gerrit_review_verification/.workspace/os/FreeRTOS/Kernel/portable/MemMang/heap_4.c:435
2000230c:	c11c                	sw	a5,0(a0)
/jenkins/node-gerritverify/workspace/gerrit_review_verification/.workspace/os/FreeRTOS/Kernel/portable/MemMang/heap_4.c:442
2000230e:	00e50363          	beq	a0,a4,20002314 <prvInsertBlockIntoFreeList+0x2c>
/jenkins/node-gerritverify/workspace/gerrit_review_verification/.workspace/os/FreeRTOS/Kernel/portable/MemMang/heap_4.c:444
20002312:	c308                	sw	a0,0(a4)
/jenkins/node-gerritverify/workspace/gerrit_review_verification/.workspace/os/FreeRTOS/Kernel/portable/MemMang/heap_4.c:450
20002314:	8082                	ret
/jenkins/node-gerritverify/workspace/gerrit_review_verification/.workspace/os/FreeRTOS/Kernel/portable/MemMang/heap_4.c:422
20002316:	90008637          	lui	a2,0x90008
2000231a:	1cc62603          	lw	a2,460(a2) # 900081cc <_sp+0xffff81cc>
2000231e:	fec787e3          	beq	a5,a2,2000230c <prvInsertBlockIntoFreeList+0x24>
/jenkins/node-gerritverify/workspace/gerrit_review_verification/.workspace/os/FreeRTOS/Kernel/portable/MemMang/heap_4.c:425
20002322:	43d0                	lw	a2,4(a5)
/jenkins/node-gerritverify/workspace/gerrit_review_verification/.workspace/os/FreeRTOS/Kernel/portable/MemMang/heap_4.c:426
20002324:	439c                	lw	a5,0(a5)
/jenkins/node-gerritverify/workspace/gerrit_review_verification/.workspace/os/FreeRTOS/Kernel/portable/MemMang/heap_4.c:425
20002326:	96b2                	add	a3,a3,a2
20002328:	c154                	sw	a3,4(a0)
/jenkins/node-gerritverify/workspace/gerrit_review_verification/.workspace/os/FreeRTOS/Kernel/portable/MemMang/heap_4.c:426
2000232a:	c11c                	sw	a5,0(a0)
2000232c:	b7cd                	j	2000230e <prvInsertBlockIntoFreeList+0x26>
/jenkins/node-gerritverify/workspace/gerrit_review_verification/.workspace/os/FreeRTOS/Kernel/portable/MemMang/heap_4.c:408
2000232e:	96b2                	add	a3,a3,a2
20002330:	c354                	sw	a3,4(a4)
/jenkins/node-gerritverify/workspace/gerrit_review_verification/.workspace/os/FreeRTOS/Kernel/portable/MemMang/heap_4.c:409
20002332:	853a                	mv	a0,a4
20002334:	bfc1                	j	20002304 <prvInsertBlockIntoFreeList+0x1c>

20002336 <pvPortMalloc>:
pvPortMalloc():
/jenkins/node-gerritverify/workspace/gerrit_review_verification/.workspace/os/FreeRTOS/Kernel/portable/MemMang/heap_4.c:116
20002336:	1101                	addi	sp,sp,-32
20002338:	cc22                	sw	s0,24(sp)
2000233a:	ce06                	sw	ra,28(sp)
2000233c:	ca26                	sw	s1,20(sp)
2000233e:	c84a                	sw	s2,16(sp)
20002340:	c64e                	sw	s3,12(sp)
20002342:	c452                	sw	s4,8(sp)
20002344:	842a                	mv	s0,a0
/jenkins/node-gerritverify/workspace/gerrit_review_verification/.workspace/os/FreeRTOS/Kernel/portable/MemMang/heap_4.c:120
20002346:	f5cff0ef          	jal	ra,20001aa2 <vTaskSuspendAll>
/jenkins/node-gerritverify/workspace/gerrit_review_verification/.workspace/os/FreeRTOS/Kernel/portable/MemMang/heap_4.c:124
2000234a:	900087b7          	lui	a5,0x90008
2000234e:	1cc78593          	addi	a1,a5,460 # 900081cc <_sp+0xffff81cc>
20002352:	419c                	lw	a5,0(a1)
20002354:	10078863          	beqz	a5,20002464 <pvPortMalloc+0x12e>
/jenkins/node-gerritverify/workspace/gerrit_review_verification/.workspace/os/FreeRTOS/Kernel/portable/MemMang/heap_4.c:137
20002358:	900087b7          	lui	a5,0x90008
2000235c:	1d07a483          	lw	s1,464(a5) # 900081d0 <_sp+0xffff81d0>
20002360:	009477b3          	and	a5,s0,s1
20002364:	e7e1                	bnez	a5,2000242c <pvPortMalloc+0xf6>
/jenkins/node-gerritverify/workspace/gerrit_review_verification/.workspace/os/FreeRTOS/Kernel/portable/MemMang/heap_4.c:141
20002366:	fff40793          	addi	a5,s0,-1
2000236a:	5759                	li	a4,-10
2000236c:	0cf76063          	bltu	a4,a5,2000242c <pvPortMalloc+0xf6>
/jenkins/node-gerritverify/workspace/gerrit_review_verification/.workspace/os/FreeRTOS/Kernel/portable/MemMang/heap_4.c:147
20002370:	00747713          	andi	a4,s0,7
/jenkins/node-gerritverify/workspace/gerrit_review_verification/.workspace/os/FreeRTOS/Kernel/portable/MemMang/heap_4.c:144
20002374:	00840793          	addi	a5,s0,8
/jenkins/node-gerritverify/workspace/gerrit_review_verification/.workspace/os/FreeRTOS/Kernel/portable/MemMang/heap_4.c:147
20002378:	ef41                	bnez	a4,20002410 <pvPortMalloc+0xda>
/jenkins/node-gerritverify/workspace/gerrit_review_verification/.workspace/os/FreeRTOS/Kernel/portable/MemMang/heap_4.c:171
2000237a:	900089b7          	lui	s3,0x90008
2000237e:	1d498993          	addi	s3,s3,468 # 900081d4 <_sp+0xffff81d4>
20002382:	0009aa03          	lw	s4,0(s3)
20002386:	0afa6363          	bltu	s4,a5,2000242c <pvPortMalloc+0xf6>
/jenkins/node-gerritverify/workspace/gerrit_review_verification/.workspace/os/FreeRTOS/Kernel/portable/MemMang/heap_4.c:176
2000238a:	90008637          	lui	a2,0x90008
2000238e:	1e462403          	lw	s0,484(a2) # 900081e4 <_sp+0xffff81e4>
/jenkins/node-gerritverify/workspace/gerrit_review_verification/.workspace/os/FreeRTOS/Kernel/portable/MemMang/heap_4.c:175
20002392:	1e460613          	addi	a2,a2,484
/jenkins/node-gerritverify/workspace/gerrit_review_verification/.workspace/os/FreeRTOS/Kernel/portable/MemMang/heap_4.c:178
20002396:	a029                	j	200023a0 <pvPortMalloc+0x6a>
/jenkins/node-gerritverify/workspace/gerrit_review_verification/.workspace/os/FreeRTOS/Kernel/portable/MemMang/heap_4.c:178 (discriminator 1)
20002398:	4018                	lw	a4,0(s0)
2000239a:	c711                	beqz	a4,200023a6 <pvPortMalloc+0x70>
2000239c:	8622                	mv	a2,s0
2000239e:	843a                	mv	s0,a4
/jenkins/node-gerritverify/workspace/gerrit_review_verification/.workspace/os/FreeRTOS/Kernel/portable/MemMang/heap_4.c:178
200023a0:	4054                	lw	a3,4(s0)
200023a2:	fef6ebe3          	bltu	a3,a5,20002398 <pvPortMalloc+0x62>
/jenkins/node-gerritverify/workspace/gerrit_review_verification/.workspace/os/FreeRTOS/Kernel/portable/MemMang/heap_4.c:186
200023a6:	4198                	lw	a4,0(a1)
200023a8:	08870263          	beq	a4,s0,2000242c <pvPortMalloc+0xf6>
/jenkins/node-gerritverify/workspace/gerrit_review_verification/.workspace/os/FreeRTOS/Kernel/portable/MemMang/heap_4.c:194
200023ac:	400c                	lw	a1,0(s0)
/jenkins/node-gerritverify/workspace/gerrit_review_verification/.workspace/os/FreeRTOS/Kernel/portable/MemMang/heap_4.c:190
200023ae:	00062903          	lw	s2,0(a2)
/jenkins/node-gerritverify/workspace/gerrit_review_verification/.workspace/os/FreeRTOS/Kernel/portable/MemMang/heap_4.c:198
200023b2:	40f68733          	sub	a4,a3,a5
/jenkins/node-gerritverify/workspace/gerrit_review_verification/.workspace/os/FreeRTOS/Kernel/portable/MemMang/heap_4.c:194
200023b6:	c20c                	sw	a1,0(a2)
/jenkins/node-gerritverify/workspace/gerrit_review_verification/.workspace/os/FreeRTOS/Kernel/portable/MemMang/heap_4.c:198
200023b8:	4641                	li	a2,16
/jenkins/node-gerritverify/workspace/gerrit_review_verification/.workspace/os/FreeRTOS/Kernel/portable/MemMang/heap_4.c:190
200023ba:	0921                	addi	s2,s2,8
/jenkins/node-gerritverify/workspace/gerrit_review_verification/.workspace/os/FreeRTOS/Kernel/portable/MemMang/heap_4.c:198
200023bc:	08e66463          	bltu	a2,a4,20002444 <pvPortMalloc+0x10e>
/jenkins/node-gerritverify/workspace/gerrit_review_verification/.workspace/os/FreeRTOS/Kernel/portable/MemMang/heap_4.c:222
200023c0:	900087b7          	lui	a5,0x90008
200023c4:	1d878793          	addi	a5,a5,472 # 900081d8 <_sp+0xffff81d8>
/jenkins/node-gerritverify/workspace/gerrit_review_verification/.workspace/os/FreeRTOS/Kernel/portable/MemMang/heap_4.c:220
200023c8:	40da0a33          	sub	s4,s4,a3
/jenkins/node-gerritverify/workspace/gerrit_review_verification/.workspace/os/FreeRTOS/Kernel/portable/MemMang/heap_4.c:222
200023cc:	4398                	lw	a4,0(a5)
/jenkins/node-gerritverify/workspace/gerrit_review_verification/.workspace/os/FreeRTOS/Kernel/portable/MemMang/heap_4.c:220
200023ce:	0149a023          	sw	s4,0(s3)
/jenkins/node-gerritverify/workspace/gerrit_review_verification/.workspace/os/FreeRTOS/Kernel/portable/MemMang/heap_4.c:222
200023d2:	00ea7463          	bgeu	s4,a4,200023da <pvPortMalloc+0xa4>
/jenkins/node-gerritverify/workspace/gerrit_review_verification/.workspace/os/FreeRTOS/Kernel/portable/MemMang/heap_4.c:224
200023d6:	0147a023          	sw	s4,0(a5)
/jenkins/node-gerritverify/workspace/gerrit_review_verification/.workspace/os/FreeRTOS/Kernel/portable/MemMang/heap_4.c:235
200023da:	900087b7          	lui	a5,0x90008
200023de:	1dc78793          	addi	a5,a5,476 # 900081dc <_sp+0xffff81dc>
200023e2:	4398                	lw	a4,0(a5)
/jenkins/node-gerritverify/workspace/gerrit_review_verification/.workspace/os/FreeRTOS/Kernel/portable/MemMang/heap_4.c:233
200023e4:	8ec5                	or	a3,a3,s1
/jenkins/node-gerritverify/workspace/gerrit_review_verification/.workspace/os/FreeRTOS/Kernel/portable/MemMang/heap_4.c:235
200023e6:	0705                	addi	a4,a4,1
/jenkins/node-gerritverify/workspace/gerrit_review_verification/.workspace/os/FreeRTOS/Kernel/portable/MemMang/heap_4.c:233
200023e8:	c054                	sw	a3,4(s0)
/jenkins/node-gerritverify/workspace/gerrit_review_verification/.workspace/os/FreeRTOS/Kernel/portable/MemMang/heap_4.c:234
200023ea:	00042023          	sw	zero,0(s0)
/jenkins/node-gerritverify/workspace/gerrit_review_verification/.workspace/os/FreeRTOS/Kernel/portable/MemMang/heap_4.c:235
200023ee:	c398                	sw	a4,0(a5)
/jenkins/node-gerritverify/workspace/gerrit_review_verification/.workspace/os/FreeRTOS/Kernel/portable/MemMang/heap_4.c:254
200023f0:	ec2ff0ef          	jal	ra,20001ab2 <xTaskResumeAll>
/jenkins/node-gerritverify/workspace/gerrit_review_verification/.workspace/os/FreeRTOS/Kernel/portable/MemMang/heap_4.c:270
200023f4:	00797793          	andi	a5,s2,7
200023f8:	cf8d                	beqz	a5,20002432 <pvPortMalloc+0xfc>
vPortRaiseBASEPRI():
/jenkins/node-gerritverify/workspace/gerrit_review_verification/.workspace/bsp/arch/riscv/n309/os_portable/freertos/portmacro.h:171
200023fa:	900007b7          	lui	a5,0x90000
200023fe:	0647c703          	lbu	a4,100(a5) # 90000064 <_sp+0xffff0064>
__ECLIC_SetMth():
/jenkins/node-gerritverify/workspace/gerrit_review_verification/.workspace/bsp/arch/riscv/n309/include/core_feature_eclic.h:340
20002402:	0c0007b7          	lui	a5,0xc000
20002406:	00e785a3          	sb	a4,11(a5) # c00000b <__HEAP_SIZE+0xbffb00b>
vPortRaiseBASEPRI():
/jenkins/node-gerritverify/workspace/gerrit_review_verification/.workspace/bsp/arch/riscv/n309/os_portable/freertos/portmacro.h:172
2000240a:	0ff0000f          	fence
pvPortMalloc():
/jenkins/node-gerritverify/workspace/gerrit_review_verification/.workspace/os/FreeRTOS/Kernel/portable/MemMang/heap_4.c:270 (discriminator 6)
2000240e:	a001                	j	2000240e <pvPortMalloc+0xd8>
/jenkins/node-gerritverify/workspace/gerrit_review_verification/.workspace/os/FreeRTOS/Kernel/portable/MemMang/heap_4.c:150
20002410:	ff87f713          	andi	a4,a5,-8
20002414:	0721                	addi	a4,a4,8
20002416:	00e7fb63          	bgeu	a5,a4,2000242c <pvPortMalloc+0xf6>
/jenkins/node-gerritverify/workspace/gerrit_review_verification/.workspace/os/FreeRTOS/Kernel/portable/MemMang/heap_4.c:171
2000241a:	900089b7          	lui	s3,0x90008
2000241e:	1d498993          	addi	s3,s3,468 # 900081d4 <_sp+0xffff81d4>
20002422:	0009aa03          	lw	s4,0(s3)
20002426:	87ba                	mv	a5,a4
20002428:	f6fa71e3          	bgeu	s4,a5,2000238a <pvPortMalloc+0x54>
/jenkins/node-gerritverify/workspace/gerrit_review_verification/.workspace/os/FreeRTOS/Kernel/portable/MemMang/heap_4.c:254
2000242c:	e86ff0ef          	jal	ra,20001ab2 <xTaskResumeAll>
20002430:	4901                	li	s2,0
/jenkins/node-gerritverify/workspace/gerrit_review_verification/.workspace/os/FreeRTOS/Kernel/portable/MemMang/heap_4.c:272
20002432:	40f2                	lw	ra,28(sp)
20002434:	4462                	lw	s0,24(sp)
20002436:	44d2                	lw	s1,20(sp)
20002438:	49b2                	lw	s3,12(sp)
2000243a:	4a22                	lw	s4,8(sp)
2000243c:	854a                	mv	a0,s2
2000243e:	4942                	lw	s2,16(sp)
20002440:	6105                	addi	sp,sp,32
20002442:	8082                	ret
/jenkins/node-gerritverify/workspace/gerrit_review_verification/.workspace/os/FreeRTOS/Kernel/portable/MemMang/heap_4.c:204
20002444:	00f40533          	add	a0,s0,a5
/jenkins/node-gerritverify/workspace/gerrit_review_verification/.workspace/os/FreeRTOS/Kernel/portable/MemMang/heap_4.c:205
20002448:	00757693          	andi	a3,a0,7
2000244c:	c2d1                	beqz	a3,200024d0 <pvPortMalloc+0x19a>
vPortRaiseBASEPRI():
/jenkins/node-gerritverify/workspace/gerrit_review_verification/.workspace/bsp/arch/riscv/n309/os_portable/freertos/portmacro.h:171
2000244e:	900007b7          	lui	a5,0x90000
20002452:	0647c703          	lbu	a4,100(a5) # 90000064 <_sp+0xffff0064>
__ECLIC_SetMth():
/jenkins/node-gerritverify/workspace/gerrit_review_verification/.workspace/bsp/arch/riscv/n309/include/core_feature_eclic.h:340
20002456:	0c0007b7          	lui	a5,0xc000
2000245a:	00e785a3          	sb	a4,11(a5) # c00000b <__HEAP_SIZE+0xbffb00b>
vPortRaiseBASEPRI():
/jenkins/node-gerritverify/workspace/gerrit_review_verification/.workspace/bsp/arch/riscv/n309/os_portable/freertos/portmacro.h:172
2000245e:	0ff0000f          	fence
pvPortMalloc():
/jenkins/node-gerritverify/workspace/gerrit_review_verification/.workspace/os/FreeRTOS/Kernel/portable/MemMang/heap_4.c:205 (discriminator 4)
20002462:	a001                	j	20002462 <pvPortMalloc+0x12c>
prvHeapInit():
/jenkins/node-gerritverify/workspace/gerrit_review_verification/.workspace/os/FreeRTOS/Kernel/portable/MemMang/heap_4.c:350
20002464:	900016b7          	lui	a3,0x90001
20002468:	96068793          	addi	a5,a3,-1696 # 90000960 <_sp+0xffff0960>
/jenkins/node-gerritverify/workspace/gerrit_review_verification/.workspace/os/FreeRTOS/Kernel/portable/MemMang/heap_4.c:352
2000246c:	0077f713          	andi	a4,a5,7
20002470:	cb39                	beqz	a4,200024c6 <pvPortMalloc+0x190>
/jenkins/node-gerritverify/workspace/gerrit_review_verification/.workspace/os/FreeRTOS/Kernel/portable/MemMang/heap_4.c:354
20002472:	00778713          	addi	a4,a5,7
/jenkins/node-gerritverify/workspace/gerrit_review_verification/.workspace/os/FreeRTOS/Kernel/portable/MemMang/heap_4.c:355
20002476:	9b61                	andi	a4,a4,-8
/jenkins/node-gerritverify/workspace/gerrit_review_verification/.workspace/os/FreeRTOS/Kernel/portable/MemMang/heap_4.c:359
20002478:	86ba                	mv	a3,a4
/jenkins/node-gerritverify/workspace/gerrit_review_verification/.workspace/os/FreeRTOS/Kernel/portable/MemMang/heap_4.c:369
2000247a:	661d                	lui	a2,0x7
2000247c:	7f860613          	addi	a2,a2,2040 # 77f8 <__HEAP_SIZE+0x27f8>
20002480:	97b2                	add	a5,a5,a2
/jenkins/node-gerritverify/workspace/gerrit_review_verification/.workspace/os/FreeRTOS/Kernel/portable/MemMang/heap_4.c:370
20002482:	9be1                	andi	a5,a5,-8
/jenkins/node-gerritverify/workspace/gerrit_review_verification/.workspace/os/FreeRTOS/Kernel/portable/MemMang/heap_4.c:363
20002484:	90008637          	lui	a2,0x90008
/jenkins/node-gerritverify/workspace/gerrit_review_verification/.workspace/os/FreeRTOS/Kernel/portable/MemMang/heap_4.c:373
20002488:	0007a023          	sw	zero,0(a5)
/jenkins/node-gerritverify/workspace/gerrit_review_verification/.workspace/os/FreeRTOS/Kernel/portable/MemMang/heap_4.c:372
2000248c:	0007a223          	sw	zero,4(a5)
/jenkins/node-gerritverify/workspace/gerrit_review_verification/.workspace/os/FreeRTOS/Kernel/portable/MemMang/heap_4.c:363
20002490:	1e460613          	addi	a2,a2,484 # 900081e4 <_sp+0xffff81e4>
/jenkins/node-gerritverify/workspace/gerrit_review_verification/.workspace/os/FreeRTOS/Kernel/portable/MemMang/heap_4.c:364
20002494:	00062223          	sw	zero,4(a2)
/jenkins/node-gerritverify/workspace/gerrit_review_verification/.workspace/os/FreeRTOS/Kernel/portable/MemMang/heap_4.c:363
20002498:	c214                	sw	a3,0(a2)
/jenkins/node-gerritverify/workspace/gerrit_review_verification/.workspace/os/FreeRTOS/Kernel/portable/MemMang/heap_4.c:378
2000249a:	40e78733          	sub	a4,a5,a4
/jenkins/node-gerritverify/workspace/gerrit_review_verification/.workspace/os/FreeRTOS/Kernel/portable/MemMang/heap_4.c:371
2000249e:	c19c                	sw	a5,0(a1)
/jenkins/node-gerritverify/workspace/gerrit_review_verification/.workspace/os/FreeRTOS/Kernel/portable/MemMang/heap_4.c:379
200024a0:	c29c                	sw	a5,0(a3)
/jenkins/node-gerritverify/workspace/gerrit_review_verification/.workspace/os/FreeRTOS/Kernel/portable/MemMang/heap_4.c:382
200024a2:	900087b7          	lui	a5,0x90008
200024a6:	1ce7ac23          	sw	a4,472(a5) # 900081d8 <_sp+0xffff81d8>
/jenkins/node-gerritverify/workspace/gerrit_review_verification/.workspace/os/FreeRTOS/Kernel/portable/MemMang/heap_4.c:383
200024aa:	900087b7          	lui	a5,0x90008
200024ae:	1ce7aa23          	sw	a4,468(a5) # 900081d4 <_sp+0xffff81d4>
/jenkins/node-gerritverify/workspace/gerrit_review_verification/.workspace/os/FreeRTOS/Kernel/portable/MemMang/heap_4.c:378
200024b2:	c2d8                	sw	a4,4(a3)
/jenkins/node-gerritverify/workspace/gerrit_review_verification/.workspace/os/FreeRTOS/Kernel/portable/MemMang/heap_4.c:386
200024b4:	900087b7          	lui	a5,0x90008
200024b8:	80000737          	lui	a4,0x80000
200024bc:	1ce7a823          	sw	a4,464(a5) # 900081d0 <_sp+0xffff81d0>
/jenkins/node-gerritverify/workspace/gerrit_review_verification/.workspace/os/FreeRTOS/Kernel/portable/MemMang/heap_4.c:387
200024c0:	800004b7          	lui	s1,0x80000
200024c4:	bd71                	j	20002360 <pvPortMalloc+0x2a>
200024c6:	96068713          	addi	a4,a3,-1696
200024ca:	96068693          	addi	a3,a3,-1696
200024ce:	b775                	j	2000247a <pvPortMalloc+0x144>
pvPortMalloc():
/jenkins/node-gerritverify/workspace/gerrit_review_verification/.workspace/os/FreeRTOS/Kernel/portable/MemMang/heap_4.c:209 (discriminator 2)
200024d0:	c158                	sw	a4,4(a0)
/jenkins/node-gerritverify/workspace/gerrit_review_verification/.workspace/os/FreeRTOS/Kernel/portable/MemMang/heap_4.c:210 (discriminator 2)
200024d2:	c05c                	sw	a5,4(s0)
/jenkins/node-gerritverify/workspace/gerrit_review_verification/.workspace/os/FreeRTOS/Kernel/portable/MemMang/heap_4.c:213 (discriminator 2)
200024d4:	3d11                	jal	200022e8 <prvInsertBlockIntoFreeList>
/jenkins/node-gerritverify/workspace/gerrit_review_verification/.workspace/os/FreeRTOS/Kernel/portable/MemMang/heap_4.c:220 (discriminator 2)
200024d6:	4054                	lw	a3,4(s0)
200024d8:	b5e5                	j	200023c0 <pvPortMalloc+0x8a>

200024da <vPortFree>:
vPortFree():
/jenkins/node-gerritverify/workspace/gerrit_review_verification/.workspace/os/FreeRTOS/Kernel/portable/MemMang/heap_4.c:280
200024da:	c139                	beqz	a0,20002520 <vPortFree+0x46>
/jenkins/node-gerritverify/workspace/gerrit_review_verification/.workspace/os/FreeRTOS/Kernel/portable/MemMang/heap_4.c:290
200024dc:	900087b7          	lui	a5,0x90008
200024e0:	ffc52703          	lw	a4,-4(a0)
200024e4:	1d07a783          	lw	a5,464(a5) # 900081d0 <_sp+0xffff81d0>
200024e8:	00f776b3          	and	a3,a4,a5
200024ec:	ce99                	beqz	a3,2000250a <vPortFree+0x30>
/jenkins/node-gerritverify/workspace/gerrit_review_verification/.workspace/os/FreeRTOS/Kernel/portable/MemMang/heap_4.c:291 (discriminator 2)
200024ee:	ff852683          	lw	a3,-8(a0)
200024f2:	ca85                	beqz	a3,20002522 <vPortFree+0x48>
vPortRaiseBASEPRI():
/jenkins/node-gerritverify/workspace/gerrit_review_verification/.workspace/bsp/arch/riscv/n309/os_portable/freertos/portmacro.h:171
200024f4:	900007b7          	lui	a5,0x90000
200024f8:	0647c703          	lbu	a4,100(a5) # 90000064 <_sp+0xffff0064>
__ECLIC_SetMth():
/jenkins/node-gerritverify/workspace/gerrit_review_verification/.workspace/bsp/arch/riscv/n309/include/core_feature_eclic.h:340
200024fc:	0c0007b7          	lui	a5,0xc000
20002500:	00e785a3          	sb	a4,11(a5) # c00000b <__HEAP_SIZE+0xbffb00b>
vPortRaiseBASEPRI():
/jenkins/node-gerritverify/workspace/gerrit_review_verification/.workspace/bsp/arch/riscv/n309/os_portable/freertos/portmacro.h:172
20002504:	0ff0000f          	fence
vPortFree():
/jenkins/node-gerritverify/workspace/gerrit_review_verification/.workspace/os/FreeRTOS/Kernel/portable/MemMang/heap_4.c:291 (discriminator 2)
20002508:	a001                	j	20002508 <vPortFree+0x2e>
vPortRaiseBASEPRI():
/jenkins/node-gerritverify/workspace/gerrit_review_verification/.workspace/bsp/arch/riscv/n309/os_portable/freertos/portmacro.h:171
2000250a:	900007b7          	lui	a5,0x90000
2000250e:	0647c703          	lbu	a4,100(a5) # 90000064 <_sp+0xffff0064>
__ECLIC_SetMth():
/jenkins/node-gerritverify/workspace/gerrit_review_verification/.workspace/bsp/arch/riscv/n309/include/core_feature_eclic.h:340
20002512:	0c0007b7          	lui	a5,0xc000
20002516:	00e785a3          	sb	a4,11(a5) # c00000b <__HEAP_SIZE+0xbffb00b>
vPortRaiseBASEPRI():
/jenkins/node-gerritverify/workspace/gerrit_review_verification/.workspace/bsp/arch/riscv/n309/os_portable/freertos/portmacro.h:172
2000251a:	0ff0000f          	fence
vPortFree():
/jenkins/node-gerritverify/workspace/gerrit_review_verification/.workspace/os/FreeRTOS/Kernel/portable/MemMang/heap_4.c:290 (discriminator 1)
2000251e:	a001                	j	2000251e <vPortFree+0x44>
20002520:	8082                	ret
/jenkins/node-gerritverify/workspace/gerrit_review_verification/.workspace/os/FreeRTOS/Kernel/portable/MemMang/heap_4.c:276
20002522:	1101                	addi	sp,sp,-32
/jenkins/node-gerritverify/workspace/gerrit_review_verification/.workspace/os/FreeRTOS/Kernel/portable/MemMang/heap_4.c:299
20002524:	fff7c793          	not	a5,a5
/jenkins/node-gerritverify/workspace/gerrit_review_verification/.workspace/os/FreeRTOS/Kernel/portable/MemMang/heap_4.c:276
20002528:	ce06                	sw	ra,28(sp)
/jenkins/node-gerritverify/workspace/gerrit_review_verification/.workspace/os/FreeRTOS/Kernel/portable/MemMang/heap_4.c:299
2000252a:	8ff9                	and	a5,a5,a4
2000252c:	fef52e23          	sw	a5,-4(a0)
20002530:	c62a                	sw	a0,12(sp)
/jenkins/node-gerritverify/workspace/gerrit_review_verification/.workspace/os/FreeRTOS/Kernel/portable/MemMang/heap_4.c:301
20002532:	d70ff0ef          	jal	ra,20001aa2 <vTaskSuspendAll>
/jenkins/node-gerritverify/workspace/gerrit_review_verification/.workspace/os/FreeRTOS/Kernel/portable/MemMang/heap_4.c:304
20002536:	4532                	lw	a0,12(sp)
20002538:	900087b7          	lui	a5,0x90008
2000253c:	1d478793          	addi	a5,a5,468 # 900081d4 <_sp+0xffff81d4>
20002540:	4394                	lw	a3,0(a5)
20002542:	ffc52703          	lw	a4,-4(a0)
/jenkins/node-gerritverify/workspace/gerrit_review_verification/.workspace/os/FreeRTOS/Kernel/portable/MemMang/heap_4.c:306
20002546:	1561                	addi	a0,a0,-8
/jenkins/node-gerritverify/workspace/gerrit_review_verification/.workspace/os/FreeRTOS/Kernel/portable/MemMang/heap_4.c:304
20002548:	9736                	add	a4,a4,a3
2000254a:	c398                	sw	a4,0(a5)
/jenkins/node-gerritverify/workspace/gerrit_review_verification/.workspace/os/FreeRTOS/Kernel/portable/MemMang/heap_4.c:306
2000254c:	3b71                	jal	200022e8 <prvInsertBlockIntoFreeList>
/jenkins/node-gerritverify/workspace/gerrit_review_verification/.workspace/os/FreeRTOS/Kernel/portable/MemMang/heap_4.c:307
2000254e:	900087b7          	lui	a5,0x90008
20002552:	1e078793          	addi	a5,a5,480 # 900081e0 <_sp+0xffff81e0>
20002556:	4398                	lw	a4,0(a5)
/jenkins/node-gerritverify/workspace/gerrit_review_verification/.workspace/os/FreeRTOS/Kernel/portable/MemMang/heap_4.c:321
20002558:	40f2                	lw	ra,28(sp)
/jenkins/node-gerritverify/workspace/gerrit_review_verification/.workspace/os/FreeRTOS/Kernel/portable/MemMang/heap_4.c:307
2000255a:	0705                	addi	a4,a4,1
2000255c:	c398                	sw	a4,0(a5)
/jenkins/node-gerritverify/workspace/gerrit_review_verification/.workspace/os/FreeRTOS/Kernel/portable/MemMang/heap_4.c:321
2000255e:	6105                	addi	sp,sp,32
/jenkins/node-gerritverify/workspace/gerrit_review_verification/.workspace/os/FreeRTOS/Kernel/portable/MemMang/heap_4.c:309
20002560:	d52ff06f          	j	20001ab2 <xTaskResumeAll>

20002564 <prvCopyDataToQueue>:
prvCopyDataToQueue():
/jenkins/node-gerritverify/workspace/gerrit_review_verification/.workspace/os/FreeRTOS/Kernel/queue.c:2129
20002564:	1141                	addi	sp,sp,-16
/jenkins/node-gerritverify/workspace/gerrit_review_verification/.workspace/os/FreeRTOS/Kernel/queue.c:2137
20002566:	413c                	lw	a5,64(a0)
/jenkins/node-gerritverify/workspace/gerrit_review_verification/.workspace/os/FreeRTOS/Kernel/queue.c:2129
20002568:	c422                	sw	s0,8(sp)
2000256a:	c226                	sw	s1,4(sp)
2000256c:	c606                	sw	ra,12(sp)
/jenkins/node-gerritverify/workspace/gerrit_review_verification/.workspace/os/FreeRTOS/Kernel/queue.c:2135
2000256e:	5d04                	lw	s1,56(a0)
/jenkins/node-gerritverify/workspace/gerrit_review_verification/.workspace/os/FreeRTOS/Kernel/queue.c:2129
20002570:	c04a                	sw	s2,0(sp)
20002572:	842a                	mv	s0,a0
/jenkins/node-gerritverify/workspace/gerrit_review_verification/.workspace/os/FreeRTOS/Kernel/queue.c:2137
20002574:	ef81                	bnez	a5,2000258c <prvCopyDataToQueue+0x28>
/jenkins/node-gerritverify/workspace/gerrit_review_verification/.workspace/os/FreeRTOS/Kernel/queue.c:2141
20002576:	411c                	lw	a5,0(a0)
/jenkins/node-gerritverify/workspace/gerrit_review_verification/.workspace/os/FreeRTOS/Kernel/queue.c:2203
20002578:	0485                	addi	s1,s1,1
/jenkins/node-gerritverify/workspace/gerrit_review_verification/.workspace/os/FreeRTOS/Kernel/queue.c:2130
2000257a:	4501                	li	a0,0
/jenkins/node-gerritverify/workspace/gerrit_review_verification/.workspace/os/FreeRTOS/Kernel/queue.c:2141
2000257c:	cfa5                	beqz	a5,200025f4 <prvCopyDataToQueue+0x90>
/jenkins/node-gerritverify/workspace/gerrit_review_verification/.workspace/os/FreeRTOS/Kernel/queue.c:2203
2000257e:	dc04                	sw	s1,56(s0)
/jenkins/node-gerritverify/workspace/gerrit_review_verification/.workspace/os/FreeRTOS/Kernel/queue.c:2206
20002580:	40b2                	lw	ra,12(sp)
20002582:	4422                	lw	s0,8(sp)
20002584:	4492                	lw	s1,4(sp)
20002586:	4902                	lw	s2,0(sp)
20002588:	0141                	addi	sp,sp,16
2000258a:	8082                	ret
2000258c:	8932                	mv	s2,a2
/jenkins/node-gerritverify/workspace/gerrit_review_verification/.workspace/os/FreeRTOS/Kernel/queue.c:2154
2000258e:	e61d                	bnez	a2,200025bc <prvCopyDataToQueue+0x58>
/jenkins/node-gerritverify/workspace/gerrit_review_verification/.workspace/os/FreeRTOS/Kernel/queue.c:2156
20002590:	4148                	lw	a0,4(a0)
20002592:	863e                	mv	a2,a5
20002594:	032010ef          	jal	ra,200035c6 <memcpy>
/jenkins/node-gerritverify/workspace/gerrit_review_verification/.workspace/os/FreeRTOS/Kernel/queue.c:2157
20002598:	405c                	lw	a5,4(s0)
2000259a:	4034                	lw	a3,64(s0)
/jenkins/node-gerritverify/workspace/gerrit_review_verification/.workspace/os/FreeRTOS/Kernel/queue.c:2159
2000259c:	4418                	lw	a4,8(s0)
/jenkins/node-gerritverify/workspace/gerrit_review_verification/.workspace/os/FreeRTOS/Kernel/queue.c:2157
2000259e:	97b6                	add	a5,a5,a3
200025a0:	c05c                	sw	a5,4(s0)
/jenkins/node-gerritverify/workspace/gerrit_review_verification/.workspace/os/FreeRTOS/Kernel/queue.c:2203
200025a2:	0485                	addi	s1,s1,1
/jenkins/node-gerritverify/workspace/gerrit_review_verification/.workspace/os/FreeRTOS/Kernel/queue.c:2130
200025a4:	4501                	li	a0,0
/jenkins/node-gerritverify/workspace/gerrit_review_verification/.workspace/os/FreeRTOS/Kernel/queue.c:2159
200025a6:	fce7ece3          	bltu	a5,a4,2000257e <prvCopyDataToQueue+0x1a>
/jenkins/node-gerritverify/workspace/gerrit_review_verification/.workspace/os/FreeRTOS/Kernel/queue.c:2161
200025aa:	401c                	lw	a5,0(s0)
/jenkins/node-gerritverify/workspace/gerrit_review_verification/.workspace/os/FreeRTOS/Kernel/queue.c:2203
200025ac:	dc04                	sw	s1,56(s0)
/jenkins/node-gerritverify/workspace/gerrit_review_verification/.workspace/os/FreeRTOS/Kernel/queue.c:2206
200025ae:	40b2                	lw	ra,12(sp)
/jenkins/node-gerritverify/workspace/gerrit_review_verification/.workspace/os/FreeRTOS/Kernel/queue.c:2161
200025b0:	c05c                	sw	a5,4(s0)
/jenkins/node-gerritverify/workspace/gerrit_review_verification/.workspace/os/FreeRTOS/Kernel/queue.c:2206
200025b2:	4422                	lw	s0,8(sp)
200025b4:	4492                	lw	s1,4(sp)
200025b6:	4902                	lw	s2,0(sp)
200025b8:	0141                	addi	sp,sp,16
200025ba:	8082                	ret
/jenkins/node-gerritverify/workspace/gerrit_review_verification/.workspace/os/FreeRTOS/Kernel/queue.c:2170
200025bc:	4548                	lw	a0,12(a0)
200025be:	863e                	mv	a2,a5
200025c0:	006010ef          	jal	ra,200035c6 <memcpy>
/jenkins/node-gerritverify/workspace/gerrit_review_verification/.workspace/os/FreeRTOS/Kernel/queue.c:2171
200025c4:	4038                	lw	a4,64(s0)
200025c6:	445c                	lw	a5,12(s0)
/jenkins/node-gerritverify/workspace/gerrit_review_verification/.workspace/os/FreeRTOS/Kernel/queue.c:2173
200025c8:	4014                	lw	a3,0(s0)
/jenkins/node-gerritverify/workspace/gerrit_review_verification/.workspace/os/FreeRTOS/Kernel/queue.c:2171
200025ca:	8f99                	sub	a5,a5,a4
200025cc:	c45c                	sw	a5,12(s0)
200025ce:	40e00733          	neg	a4,a4
/jenkins/node-gerritverify/workspace/gerrit_review_verification/.workspace/os/FreeRTOS/Kernel/queue.c:2173
200025d2:	00d7f563          	bgeu	a5,a3,200025dc <prvCopyDataToQueue+0x78>
/jenkins/node-gerritverify/workspace/gerrit_review_verification/.workspace/os/FreeRTOS/Kernel/queue.c:2175
200025d6:	441c                	lw	a5,8(s0)
200025d8:	973e                	add	a4,a4,a5
200025da:	c458                	sw	a4,12(s0)
/jenkins/node-gerritverify/workspace/gerrit_review_verification/.workspace/os/FreeRTOS/Kernel/queue.c:2182
200025dc:	4789                	li	a5,2
200025de:	02f90163          	beq	s2,a5,20002600 <prvCopyDataToQueue+0x9c>
/jenkins/node-gerritverify/workspace/gerrit_review_verification/.workspace/os/FreeRTOS/Kernel/queue.c:2203
200025e2:	0485                	addi	s1,s1,1
200025e4:	dc04                	sw	s1,56(s0)
/jenkins/node-gerritverify/workspace/gerrit_review_verification/.workspace/os/FreeRTOS/Kernel/queue.c:2206
200025e6:	40b2                	lw	ra,12(sp)
200025e8:	4422                	lw	s0,8(sp)
200025ea:	4492                	lw	s1,4(sp)
200025ec:	4902                	lw	s2,0(sp)
/jenkins/node-gerritverify/workspace/gerrit_review_verification/.workspace/os/FreeRTOS/Kernel/queue.c:2130
200025ee:	4501                	li	a0,0
/jenkins/node-gerritverify/workspace/gerrit_review_verification/.workspace/os/FreeRTOS/Kernel/queue.c:2206
200025f0:	0141                	addi	sp,sp,16
200025f2:	8082                	ret
/jenkins/node-gerritverify/workspace/gerrit_review_verification/.workspace/os/FreeRTOS/Kernel/queue.c:2144
200025f4:	4408                	lw	a0,8(s0)
200025f6:	f2cff0ef          	jal	ra,20001d22 <xTaskPriorityDisinherit>
/jenkins/node-gerritverify/workspace/gerrit_review_verification/.workspace/os/FreeRTOS/Kernel/queue.c:2145
200025fa:	00042423          	sw	zero,8(s0)
200025fe:	b741                	j	2000257e <prvCopyDataToQueue+0x1a>
/jenkins/node-gerritverify/workspace/gerrit_review_verification/.workspace/os/FreeRTOS/Kernel/queue.c:2184
20002600:	c099                	beqz	s1,20002606 <prvCopyDataToQueue+0xa2>
/jenkins/node-gerritverify/workspace/gerrit_review_verification/.workspace/os/FreeRTOS/Kernel/queue.c:2130
20002602:	4501                	li	a0,0
20002604:	bfad                	j	2000257e <prvCopyDataToQueue+0x1a>
20002606:	4485                	li	s1,1
20002608:	4501                	li	a0,0
2000260a:	bf95                	j	2000257e <prvCopyDataToQueue+0x1a>

2000260c <prvNotifyQueueSetContainer>:
prvNotifyQueueSetContainer():
/jenkins/node-gerritverify/workspace/gerrit_review_verification/.workspace/os/FreeRTOS/Kernel/queue.c:2964
2000260c:	1101                	addi	sp,sp,-32
2000260e:	cc22                	sw	s0,24(sp)
/jenkins/node-gerritverify/workspace/gerrit_review_verification/.workspace/os/FreeRTOS/Kernel/queue.c:2965
20002610:	4520                	lw	s0,72(a0)
/jenkins/node-gerritverify/workspace/gerrit_review_verification/.workspace/os/FreeRTOS/Kernel/queue.c:2964
20002612:	ce06                	sw	ra,28(sp)
20002614:	ca26                	sw	s1,20(sp)
20002616:	c84a                	sw	s2,16(sp)
20002618:	c62a                	sw	a0,12(sp)
/jenkins/node-gerritverify/workspace/gerrit_review_verification/.workspace/os/FreeRTOS/Kernel/queue.c:2970
2000261a:	c81d                	beqz	s0,20002650 <prvNotifyQueueSetContainer+0x44>
/jenkins/node-gerritverify/workspace/gerrit_review_verification/.workspace/os/FreeRTOS/Kernel/queue.c:2971 (discriminator 2)
2000261c:	5c18                	lw	a4,56(s0)
2000261e:	5c5c                	lw	a5,60(s0)
20002620:	00f77d63          	bgeu	a4,a5,2000263a <prvNotifyQueueSetContainer+0x2e>
/jenkins/node-gerritverify/workspace/gerrit_review_verification/.workspace/os/FreeRTOS/Kernel/queue.c:2973 (discriminator 2)
20002624:	5c18                	lw	a4,56(s0)
/jenkins/node-gerritverify/workspace/gerrit_review_verification/.workspace/os/FreeRTOS/Kernel/queue.c:2966 (discriminator 2)
20002626:	4481                	li	s1,0
/jenkins/node-gerritverify/workspace/gerrit_review_verification/.workspace/os/FreeRTOS/Kernel/queue.c:2973 (discriminator 2)
20002628:	02f76f63          	bltu	a4,a5,20002666 <prvNotifyQueueSetContainer+0x5a>
/jenkins/node-gerritverify/workspace/gerrit_review_verification/.workspace/os/FreeRTOS/Kernel/queue.c:3014
2000262c:	40f2                	lw	ra,28(sp)
2000262e:	4462                	lw	s0,24(sp)
20002630:	4942                	lw	s2,16(sp)
20002632:	8526                	mv	a0,s1
20002634:	44d2                	lw	s1,20(sp)
20002636:	6105                	addi	sp,sp,32
20002638:	8082                	ret
vPortRaiseBASEPRI():
/jenkins/node-gerritverify/workspace/gerrit_review_verification/.workspace/bsp/arch/riscv/n309/os_portable/freertos/portmacro.h:171
2000263a:	900007b7          	lui	a5,0x90000
2000263e:	0647c703          	lbu	a4,100(a5) # 90000064 <_sp+0xffff0064>
__ECLIC_SetMth():
/jenkins/node-gerritverify/workspace/gerrit_review_verification/.workspace/bsp/arch/riscv/n309/include/core_feature_eclic.h:340
20002642:	0c0007b7          	lui	a5,0xc000
20002646:	00e785a3          	sb	a4,11(a5) # c00000b <__HEAP_SIZE+0xbffb00b>
vPortRaiseBASEPRI():
/jenkins/node-gerritverify/workspace/gerrit_review_verification/.workspace/bsp/arch/riscv/n309/os_portable/freertos/portmacro.h:172
2000264a:	0ff0000f          	fence
prvNotifyQueueSetContainer():
/jenkins/node-gerritverify/workspace/gerrit_review_verification/.workspace/os/FreeRTOS/Kernel/queue.c:2971 (discriminator 2)
2000264e:	a001                	j	2000264e <prvNotifyQueueSetContainer+0x42>
vPortRaiseBASEPRI():
/jenkins/node-gerritverify/workspace/gerrit_review_verification/.workspace/bsp/arch/riscv/n309/os_portable/freertos/portmacro.h:171
20002650:	900007b7          	lui	a5,0x90000
20002654:	0647c703          	lbu	a4,100(a5) # 90000064 <_sp+0xffff0064>
__ECLIC_SetMth():
/jenkins/node-gerritverify/workspace/gerrit_review_verification/.workspace/bsp/arch/riscv/n309/include/core_feature_eclic.h:340
20002658:	0c0007b7          	lui	a5,0xc000
2000265c:	00e785a3          	sb	a4,11(a5) # c00000b <__HEAP_SIZE+0xbffb00b>
vPortRaiseBASEPRI():
/jenkins/node-gerritverify/workspace/gerrit_review_verification/.workspace/bsp/arch/riscv/n309/os_portable/freertos/portmacro.h:172
20002660:	0ff0000f          	fence
prvNotifyQueueSetContainer():
/jenkins/node-gerritverify/workspace/gerrit_review_verification/.workspace/os/FreeRTOS/Kernel/queue.c:2970 (discriminator 1)
20002664:	a001                	j	20002664 <prvNotifyQueueSetContainer+0x58>
/jenkins/node-gerritverify/workspace/gerrit_review_verification/.workspace/os/FreeRTOS/Kernel/queue.c:2975
20002666:	04544903          	lbu	s2,69(s0)
/jenkins/node-gerritverify/workspace/gerrit_review_verification/.workspace/os/FreeRTOS/Kernel/queue.c:2980
2000266a:	4601                	li	a2,0
2000266c:	006c                	addi	a1,sp,12
2000266e:	8522                	mv	a0,s0
20002670:	3dd5                	jal	20002564 <prvCopyDataToQueue>
/jenkins/node-gerritverify/workspace/gerrit_review_verification/.workspace/os/FreeRTOS/Kernel/queue.c:2975
20002672:	01891793          	slli	a5,s2,0x18
20002676:	87e1                	srai	a5,a5,0x18
/jenkins/node-gerritverify/workspace/gerrit_review_verification/.workspace/os/FreeRTOS/Kernel/queue.c:2982
20002678:	577d                	li	a4,-1
/jenkins/node-gerritverify/workspace/gerrit_review_verification/.workspace/os/FreeRTOS/Kernel/queue.c:2980
2000267a:	84aa                	mv	s1,a0
/jenkins/node-gerritverify/workspace/gerrit_review_verification/.workspace/os/FreeRTOS/Kernel/queue.c:2982
2000267c:	00e78d63          	beq	a5,a4,20002696 <prvNotifyQueueSetContainer+0x8a>
/jenkins/node-gerritverify/workspace/gerrit_review_verification/.workspace/os/FreeRTOS/Kernel/queue.c:3003
20002680:	07f00713          	li	a4,127
20002684:	02e78263          	beq	a5,a4,200026a8 <prvNotifyQueueSetContainer+0x9c>
/jenkins/node-gerritverify/workspace/gerrit_review_verification/.workspace/os/FreeRTOS/Kernel/queue.c:3005 (discriminator 2)
20002688:	00190793          	addi	a5,s2,1
2000268c:	07e2                	slli	a5,a5,0x18
2000268e:	87e1                	srai	a5,a5,0x18
20002690:	04f402a3          	sb	a5,69(s0)
20002694:	bf61                	j	2000262c <prvNotifyQueueSetContainer+0x20>
/jenkins/node-gerritverify/workspace/gerrit_review_verification/.workspace/os/FreeRTOS/Kernel/queue.c:2984
20002696:	505c                	lw	a5,36(s0)
20002698:	dbd1                	beqz	a5,2000262c <prvNotifyQueueSetContainer+0x20>
/jenkins/node-gerritverify/workspace/gerrit_review_verification/.workspace/os/FreeRTOS/Kernel/queue.c:2986
2000269a:	02440513          	addi	a0,s0,36
2000269e:	d0cff0ef          	jal	ra,20001baa <xTaskRemoveFromEventList>
200026a2:	d549                	beqz	a0,2000262c <prvNotifyQueueSetContainer+0x20>
/jenkins/node-gerritverify/workspace/gerrit_review_verification/.workspace/os/FreeRTOS/Kernel/queue.c:2989
200026a4:	4485                	li	s1,1
200026a6:	b759                	j	2000262c <prvNotifyQueueSetContainer+0x20>
vPortRaiseBASEPRI():
/jenkins/node-gerritverify/workspace/gerrit_review_verification/.workspace/bsp/arch/riscv/n309/os_portable/freertos/portmacro.h:171
200026a8:	900007b7          	lui	a5,0x90000
200026ac:	0647c703          	lbu	a4,100(a5) # 90000064 <_sp+0xffff0064>
__ECLIC_SetMth():
/jenkins/node-gerritverify/workspace/gerrit_review_verification/.workspace/bsp/arch/riscv/n309/include/core_feature_eclic.h:340
200026b0:	0c0007b7          	lui	a5,0xc000
200026b4:	00e785a3          	sb	a4,11(a5) # c00000b <__HEAP_SIZE+0xbffb00b>
vPortRaiseBASEPRI():
/jenkins/node-gerritverify/workspace/gerrit_review_verification/.workspace/bsp/arch/riscv/n309/os_portable/freertos/portmacro.h:172
200026b8:	0ff0000f          	fence
prvNotifyQueueSetContainer():
/jenkins/node-gerritverify/workspace/gerrit_review_verification/.workspace/os/FreeRTOS/Kernel/queue.c:3003 (discriminator 5)
200026bc:	a001                	j	200026bc <prvNotifyQueueSetContainer+0xb0>

200026be <prvUnlockQueue>:
prvUnlockQueue():
/jenkins/node-gerritverify/workspace/gerrit_review_verification/.workspace/os/FreeRTOS/Kernel/queue.c:2231
200026be:	1141                	addi	sp,sp,-16
200026c0:	c422                	sw	s0,8(sp)
200026c2:	c226                	sw	s1,4(sp)
200026c4:	c606                	sw	ra,12(sp)
200026c6:	84aa                	mv	s1,a0
200026c8:	c04a                	sw	s2,0(sp)
/jenkins/node-gerritverify/workspace/gerrit_review_verification/.workspace/os/FreeRTOS/Kernel/queue.c:2238
200026ca:	8b6fe0ef          	jal	ra,20000780 <vPortEnterCritical>
/jenkins/node-gerritverify/workspace/gerrit_review_verification/.workspace/os/FreeRTOS/Kernel/queue.c:2240
200026ce:	0454c783          	lbu	a5,69(s1) # 80000045 <_sp+0xefff0045>
200026d2:	01879413          	slli	s0,a5,0x18
200026d6:	8461                	srai	s0,s0,0x18
/jenkins/node-gerritverify/workspace/gerrit_review_verification/.workspace/os/FreeRTOS/Kernel/queue.c:2243
200026d8:	04805263          	blez	s0,2000271c <prvUnlockQueue+0x5e>
/jenkins/node-gerritverify/workspace/gerrit_review_verification/.workspace/os/FreeRTOS/Kernel/queue.c:2270
200026dc:	02448913          	addi	s2,s1,36
200026e0:	a819                	j	200026f6 <prvUnlockQueue+0x38>
/jenkins/node-gerritverify/workspace/gerrit_review_verification/.workspace/os/FreeRTOS/Kernel/queue.c:2251
200026e2:	372d                	jal	2000260c <prvNotifyQueueSetContainer>
200026e4:	e115                	bnez	a0,20002708 <prvUnlockQueue+0x4a>
/jenkins/node-gerritverify/workspace/gerrit_review_verification/.workspace/os/FreeRTOS/Kernel/queue.c:2311
200026e6:	fff40793          	addi	a5,s0,-1
200026ea:	01879413          	slli	s0,a5,0x18
200026ee:	0ff7f713          	zext.b	a4,a5
200026f2:	8461                	srai	s0,s0,0x18
/jenkins/node-gerritverify/workspace/gerrit_review_verification/.workspace/os/FreeRTOS/Kernel/queue.c:2243
200026f4:	c705                	beqz	a4,2000271c <prvUnlockQueue+0x5e>
/jenkins/node-gerritverify/workspace/gerrit_review_verification/.workspace/os/FreeRTOS/Kernel/queue.c:2249
200026f6:	44bc                	lw	a5,72(s1)
/jenkins/node-gerritverify/workspace/gerrit_review_verification/.workspace/os/FreeRTOS/Kernel/queue.c:2251
200026f8:	8526                	mv	a0,s1
/jenkins/node-gerritverify/workspace/gerrit_review_verification/.workspace/os/FreeRTOS/Kernel/queue.c:2249
200026fa:	f7e5                	bnez	a5,200026e2 <prvUnlockQueue+0x24>
/jenkins/node-gerritverify/workspace/gerrit_review_verification/.workspace/os/FreeRTOS/Kernel/queue.c:2268
200026fc:	50dc                	lw	a5,36(s1)
/jenkins/node-gerritverify/workspace/gerrit_review_verification/.workspace/os/FreeRTOS/Kernel/queue.c:2270
200026fe:	854a                	mv	a0,s2
/jenkins/node-gerritverify/workspace/gerrit_review_verification/.workspace/os/FreeRTOS/Kernel/queue.c:2268
20002700:	cf91                	beqz	a5,2000271c <prvUnlockQueue+0x5e>
/jenkins/node-gerritverify/workspace/gerrit_review_verification/.workspace/os/FreeRTOS/Kernel/queue.c:2270
20002702:	ca8ff0ef          	jal	ra,20001baa <xTaskRemoveFromEventList>
20002706:	d165                	beqz	a0,200026e6 <prvUnlockQueue+0x28>
/jenkins/node-gerritverify/workspace/gerrit_review_verification/.workspace/os/FreeRTOS/Kernel/queue.c:2256
20002708:	df2ff0ef          	jal	ra,20001cfa <vTaskMissedYield>
/jenkins/node-gerritverify/workspace/gerrit_review_verification/.workspace/os/FreeRTOS/Kernel/queue.c:2311
2000270c:	fff40793          	addi	a5,s0,-1
20002710:	01879413          	slli	s0,a5,0x18
20002714:	0ff7f713          	zext.b	a4,a5
20002718:	8461                	srai	s0,s0,0x18
/jenkins/node-gerritverify/workspace/gerrit_review_verification/.workspace/os/FreeRTOS/Kernel/queue.c:2243
2000271a:	ff71                	bnez	a4,200026f6 <prvUnlockQueue+0x38>
/jenkins/node-gerritverify/workspace/gerrit_review_verification/.workspace/os/FreeRTOS/Kernel/queue.c:2314
2000271c:	57fd                	li	a5,-1
2000271e:	04f482a3          	sb	a5,69(s1)
/jenkins/node-gerritverify/workspace/gerrit_review_verification/.workspace/os/FreeRTOS/Kernel/queue.c:2316
20002722:	8a6fe0ef          	jal	ra,200007c8 <vPortExitCritical>
/jenkins/node-gerritverify/workspace/gerrit_review_verification/.workspace/os/FreeRTOS/Kernel/queue.c:2319
20002726:	85afe0ef          	jal	ra,20000780 <vPortEnterCritical>
/jenkins/node-gerritverify/workspace/gerrit_review_verification/.workspace/os/FreeRTOS/Kernel/queue.c:2321
2000272a:	0444c783          	lbu	a5,68(s1)
2000272e:	01879413          	slli	s0,a5,0x18
20002732:	8461                	srai	s0,s0,0x18
/jenkins/node-gerritverify/workspace/gerrit_review_verification/.workspace/os/FreeRTOS/Kernel/queue.c:2323
20002734:	02805d63          	blez	s0,2000276e <prvUnlockQueue+0xb0>
/jenkins/node-gerritverify/workspace/gerrit_review_verification/.workspace/os/FreeRTOS/Kernel/queue.c:2327
20002738:	01048913          	addi	s2,s1,16
2000273c:	a809                	j	2000274e <prvUnlockQueue+0x90>
/jenkins/node-gerritverify/workspace/gerrit_review_verification/.workspace/os/FreeRTOS/Kernel/queue.c:2336
2000273e:	fff40793          	addi	a5,s0,-1
20002742:	01879413          	slli	s0,a5,0x18
20002746:	0ff7f713          	zext.b	a4,a5
2000274a:	8461                	srai	s0,s0,0x18
/jenkins/node-gerritverify/workspace/gerrit_review_verification/.workspace/os/FreeRTOS/Kernel/queue.c:2323
2000274c:	c30d                	beqz	a4,2000276e <prvUnlockQueue+0xb0>
/jenkins/node-gerritverify/workspace/gerrit_review_verification/.workspace/os/FreeRTOS/Kernel/queue.c:2325
2000274e:	489c                	lw	a5,16(s1)
/jenkins/node-gerritverify/workspace/gerrit_review_verification/.workspace/os/FreeRTOS/Kernel/queue.c:2327
20002750:	854a                	mv	a0,s2
/jenkins/node-gerritverify/workspace/gerrit_review_verification/.workspace/os/FreeRTOS/Kernel/queue.c:2325
20002752:	cf91                	beqz	a5,2000276e <prvUnlockQueue+0xb0>
/jenkins/node-gerritverify/workspace/gerrit_review_verification/.workspace/os/FreeRTOS/Kernel/queue.c:2327
20002754:	c56ff0ef          	jal	ra,20001baa <xTaskRemoveFromEventList>
20002758:	d17d                	beqz	a0,2000273e <prvUnlockQueue+0x80>
/jenkins/node-gerritverify/workspace/gerrit_review_verification/.workspace/os/FreeRTOS/Kernel/queue.c:2329
2000275a:	da0ff0ef          	jal	ra,20001cfa <vTaskMissedYield>
/jenkins/node-gerritverify/workspace/gerrit_review_verification/.workspace/os/FreeRTOS/Kernel/queue.c:2336
2000275e:	fff40793          	addi	a5,s0,-1
20002762:	01879413          	slli	s0,a5,0x18
20002766:	0ff7f713          	zext.b	a4,a5
2000276a:	8461                	srai	s0,s0,0x18
/jenkins/node-gerritverify/workspace/gerrit_review_verification/.workspace/os/FreeRTOS/Kernel/queue.c:2323
2000276c:	f36d                	bnez	a4,2000274e <prvUnlockQueue+0x90>
/jenkins/node-gerritverify/workspace/gerrit_review_verification/.workspace/os/FreeRTOS/Kernel/queue.c:2344
2000276e:	57fd                	li	a5,-1
20002770:	04f48223          	sb	a5,68(s1)
/jenkins/node-gerritverify/workspace/gerrit_review_verification/.workspace/os/FreeRTOS/Kernel/queue.c:2347
20002774:	4422                	lw	s0,8(sp)
20002776:	40b2                	lw	ra,12(sp)
20002778:	4492                	lw	s1,4(sp)
2000277a:	4902                	lw	s2,0(sp)
2000277c:	0141                	addi	sp,sp,16
/jenkins/node-gerritverify/workspace/gerrit_review_verification/.workspace/os/FreeRTOS/Kernel/queue.c:2346
2000277e:	84afe06f          	j	200007c8 <vPortExitCritical>

20002782 <xQueueGenericReset>:
xQueueGenericReset():
/jenkins/node-gerritverify/workspace/gerrit_review_verification/.workspace/os/FreeRTOS/Kernel/queue.c:269
20002782:	c539                	beqz	a0,200027d0 <xQueueGenericReset+0x4e>
/jenkins/node-gerritverify/workspace/gerrit_review_verification/.workspace/os/FreeRTOS/Kernel/queue.c:266
20002784:	1141                	addi	sp,sp,-16
20002786:	c422                	sw	s0,8(sp)
20002788:	c226                	sw	s1,4(sp)
2000278a:	842a                	mv	s0,a0
2000278c:	c606                	sw	ra,12(sp)
2000278e:	84ae                	mv	s1,a1
/jenkins/node-gerritverify/workspace/gerrit_review_verification/.workspace/os/FreeRTOS/Kernel/queue.c:271
20002790:	ff1fd0ef          	jal	ra,20000780 <vPortEnterCritical>
/jenkins/node-gerritverify/workspace/gerrit_review_verification/.workspace/os/FreeRTOS/Kernel/queue.c:273
20002794:	403c                	lw	a5,64(s0)
20002796:	5c58                	lw	a4,60(s0)
20002798:	4014                	lw	a3,0(s0)
2000279a:	02e78733          	mul	a4,a5,a4
/jenkins/node-gerritverify/workspace/gerrit_review_verification/.workspace/os/FreeRTOS/Kernel/queue.c:274
2000279e:	02042c23          	sw	zero,56(s0)
/jenkins/node-gerritverify/workspace/gerrit_review_verification/.workspace/os/FreeRTOS/Kernel/queue.c:277
200027a2:	567d                	li	a2,-1
/jenkins/node-gerritverify/workspace/gerrit_review_verification/.workspace/os/FreeRTOS/Kernel/queue.c:276
200027a4:	40f707b3          	sub	a5,a4,a5
200027a8:	97b6                	add	a5,a5,a3
/jenkins/node-gerritverify/workspace/gerrit_review_verification/.workspace/os/FreeRTOS/Kernel/queue.c:273
200027aa:	9736                	add	a4,a4,a3
/jenkins/node-gerritverify/workspace/gerrit_review_verification/.workspace/os/FreeRTOS/Kernel/queue.c:277
200027ac:	04c40223          	sb	a2,68(s0)
/jenkins/node-gerritverify/workspace/gerrit_review_verification/.workspace/os/FreeRTOS/Kernel/queue.c:273
200027b0:	c418                	sw	a4,8(s0)
/jenkins/node-gerritverify/workspace/gerrit_review_verification/.workspace/os/FreeRTOS/Kernel/queue.c:275
200027b2:	c054                	sw	a3,4(s0)
/jenkins/node-gerritverify/workspace/gerrit_review_verification/.workspace/os/FreeRTOS/Kernel/queue.c:276
200027b4:	c45c                	sw	a5,12(s0)
/jenkins/node-gerritverify/workspace/gerrit_review_verification/.workspace/os/FreeRTOS/Kernel/queue.c:278
200027b6:	04c402a3          	sb	a2,69(s0)
/jenkins/node-gerritverify/workspace/gerrit_review_verification/.workspace/os/FreeRTOS/Kernel/queue.c:280
200027ba:	e495                	bnez	s1,200027e6 <xQueueGenericReset+0x64>
/jenkins/node-gerritverify/workspace/gerrit_review_verification/.workspace/os/FreeRTOS/Kernel/queue.c:287
200027bc:	481c                	lw	a5,16(s0)
200027be:	e7a1                	bnez	a5,20002806 <xQueueGenericReset+0x84>
/jenkins/node-gerritverify/workspace/gerrit_review_verification/.workspace/os/FreeRTOS/Kernel/queue.c:310
200027c0:	808fe0ef          	jal	ra,200007c8 <vPortExitCritical>
/jenkins/node-gerritverify/workspace/gerrit_review_verification/.workspace/os/FreeRTOS/Kernel/queue.c:315
200027c4:	40b2                	lw	ra,12(sp)
200027c6:	4422                	lw	s0,8(sp)
200027c8:	4492                	lw	s1,4(sp)
200027ca:	4505                	li	a0,1
200027cc:	0141                	addi	sp,sp,16
200027ce:	8082                	ret
vPortRaiseBASEPRI():
/jenkins/node-gerritverify/workspace/gerrit_review_verification/.workspace/bsp/arch/riscv/n309/os_portable/freertos/portmacro.h:171
200027d0:	900007b7          	lui	a5,0x90000
200027d4:	0647c703          	lbu	a4,100(a5) # 90000064 <_sp+0xffff0064>
__ECLIC_SetMth():
/jenkins/node-gerritverify/workspace/gerrit_review_verification/.workspace/bsp/arch/riscv/n309/include/core_feature_eclic.h:340
200027d8:	0c0007b7          	lui	a5,0xc000
200027dc:	00e785a3          	sb	a4,11(a5) # c00000b <__HEAP_SIZE+0xbffb00b>
vPortRaiseBASEPRI():
/jenkins/node-gerritverify/workspace/gerrit_review_verification/.workspace/bsp/arch/riscv/n309/os_portable/freertos/portmacro.h:172
200027e0:	0ff0000f          	fence
xQueueGenericReset():
/jenkins/node-gerritverify/workspace/gerrit_review_verification/.workspace/os/FreeRTOS/Kernel/queue.c:269 (discriminator 1)
200027e4:	a001                	j	200027e4 <xQueueGenericReset+0x62>
/jenkins/node-gerritverify/workspace/gerrit_review_verification/.workspace/os/FreeRTOS/Kernel/queue.c:306
200027e6:	01040513          	addi	a0,s0,16
200027ea:	dd6ff0ef          	jal	ra,20001dc0 <vListInitialise>
/jenkins/node-gerritverify/workspace/gerrit_review_verification/.workspace/os/FreeRTOS/Kernel/queue.c:307
200027ee:	02440513          	addi	a0,s0,36
200027f2:	dceff0ef          	jal	ra,20001dc0 <vListInitialise>
/jenkins/node-gerritverify/workspace/gerrit_review_verification/.workspace/os/FreeRTOS/Kernel/queue.c:310
200027f6:	fd3fd0ef          	jal	ra,200007c8 <vPortExitCritical>
/jenkins/node-gerritverify/workspace/gerrit_review_verification/.workspace/os/FreeRTOS/Kernel/queue.c:315
200027fa:	40b2                	lw	ra,12(sp)
200027fc:	4422                	lw	s0,8(sp)
200027fe:	4492                	lw	s1,4(sp)
20002800:	4505                	li	a0,1
20002802:	0141                	addi	sp,sp,16
20002804:	8082                	ret
/jenkins/node-gerritverify/workspace/gerrit_review_verification/.workspace/os/FreeRTOS/Kernel/queue.c:289
20002806:	01040513          	addi	a0,s0,16
2000280a:	ba0ff0ef          	jal	ra,20001baa <xTaskRemoveFromEventList>
2000280e:	d94d                	beqz	a0,200027c0 <xQueueGenericReset+0x3e>
SysTimer_SetSWIRQ():
/jenkins/node-gerritverify/workspace/gerrit_review_verification/.workspace/bsp/arch/riscv/n309/include/core_feature_timer.h:293
20002810:	f14027f3          	csrr	a5,mhartid
/jenkins/node-gerritverify/workspace/gerrit_review_verification/.workspace/bsp/arch/riscv/n309/include/core_feature_timer.h:294
20002814:	ef81                	bnez	a5,2000282c <xQueueGenericReset+0xaa>
/jenkins/node-gerritverify/workspace/gerrit_review_verification/.workspace/bsp/arch/riscv/n309/include/core_feature_timer.h:295
20002816:	02001737          	lui	a4,0x2001
2000281a:	ffc72783          	lw	a5,-4(a4) # 2000ffc <__HEAP_SIZE+0x1ffbffc>
2000281e:	0017e793          	ori	a5,a5,1
20002822:	fef72e23          	sw	a5,-4(a4)
xQueueGenericReset():
/jenkins/node-gerritverify/workspace/gerrit_review_verification/.workspace/os/FreeRTOS/Kernel/queue.c:291
20002826:	0ff0000f          	fence
2000282a:	bf59                	j	200027c0 <xQueueGenericReset+0x3e>
SysTimer_SetSWIRQ():
/jenkins/node-gerritverify/workspace/gerrit_review_verification/.workspace/bsp/arch/riscv/n309/include/core_feature_timer.h:297
2000282c:	02001737          	lui	a4,0x2001
20002830:	078a                	slli	a5,a5,0x2
20002832:	97ba                	add	a5,a5,a4
__SW():
/jenkins/node-gerritverify/workspace/gerrit_review_verification/.workspace/bsp/arch/riscv/n309/include/core_feature_base.h:1460
20002834:	4705                	li	a4,1
20002836:	c398                	sw	a4,0(a5)
xQueueGenericReset():
/jenkins/node-gerritverify/workspace/gerrit_review_verification/.workspace/os/FreeRTOS/Kernel/queue.c:291
20002838:	0ff0000f          	fence
2000283c:	b751                	j	200027c0 <xQueueGenericReset+0x3e>

2000283e <xQueueGenericCreateStatic>:
xQueueGenericCreateStatic():
/jenkins/node-gerritverify/workspace/gerrit_review_verification/.workspace/os/FreeRTOS/Kernel/queue.c:328
2000283e:	ed01                	bnez	a0,20002856 <xQueueGenericCreateStatic+0x18>
vPortRaiseBASEPRI():
/jenkins/node-gerritverify/workspace/gerrit_review_verification/.workspace/bsp/arch/riscv/n309/os_portable/freertos/portmacro.h:171
20002840:	900007b7          	lui	a5,0x90000
20002844:	0647c703          	lbu	a4,100(a5) # 90000064 <_sp+0xffff0064>
__ECLIC_SetMth():
/jenkins/node-gerritverify/workspace/gerrit_review_verification/.workspace/bsp/arch/riscv/n309/include/core_feature_eclic.h:340
20002848:	0c0007b7          	lui	a5,0xc000
2000284c:	00e785a3          	sb	a4,11(a5) # c00000b <__HEAP_SIZE+0xbffb00b>
vPortRaiseBASEPRI():
/jenkins/node-gerritverify/workspace/gerrit_review_verification/.workspace/bsp/arch/riscv/n309/os_portable/freertos/portmacro.h:172
20002850:	0ff0000f          	fence
xQueueGenericCreateStatic():
/jenkins/node-gerritverify/workspace/gerrit_review_verification/.workspace/os/FreeRTOS/Kernel/queue.c:328 (discriminator 1)
20002854:	a001                	j	20002854 <xQueueGenericCreateStatic+0x16>
/jenkins/node-gerritverify/workspace/gerrit_review_verification/.workspace/os/FreeRTOS/Kernel/queue.c:332 (discriminator 2)
20002856:	c695                	beqz	a3,20002882 <xQueueGenericCreateStatic+0x44>
/jenkins/node-gerritverify/workspace/gerrit_review_verification/.workspace/os/FreeRTOS/Kernel/queue.c:325 (discriminator 2)
20002858:	7179                	addi	sp,sp,-48
2000285a:	d606                	sw	ra,44(sp)
/jenkins/node-gerritverify/workspace/gerrit_review_verification/.workspace/os/FreeRTOS/Kernel/queue.c:336 (discriminator 2)
2000285c:	ca29                	beqz	a2,200028ae <xQueueGenericCreateStatic+0x70>
2000285e:	cd8d                	beqz	a1,20002898 <xQueueGenericCreateStatic+0x5a>
/jenkins/node-gerritverify/workspace/gerrit_review_verification/.workspace/os/FreeRTOS/Kernel/queue.c:344
20002860:	05400793          	li	a5,84
20002864:	ce3e                	sw	a5,28(sp)
/jenkins/node-gerritverify/workspace/gerrit_review_verification/.workspace/os/FreeRTOS/Kernel/queue.c:345
20002866:	4872                	lw	a6,28(sp)
20002868:	06f80063          	beq	a6,a5,200028c8 <xQueueGenericCreateStatic+0x8a>
vPortRaiseBASEPRI():
/jenkins/node-gerritverify/workspace/gerrit_review_verification/.workspace/bsp/arch/riscv/n309/os_portable/freertos/portmacro.h:171
2000286c:	900007b7          	lui	a5,0x90000
20002870:	0647c703          	lbu	a4,100(a5) # 90000064 <_sp+0xffff0064>
__ECLIC_SetMth():
/jenkins/node-gerritverify/workspace/gerrit_review_verification/.workspace/bsp/arch/riscv/n309/include/core_feature_eclic.h:340
20002874:	0c0007b7          	lui	a5,0xc000
20002878:	00e785a3          	sb	a4,11(a5) # c00000b <__HEAP_SIZE+0xbffb00b>
vPortRaiseBASEPRI():
/jenkins/node-gerritverify/workspace/gerrit_review_verification/.workspace/bsp/arch/riscv/n309/os_portable/freertos/portmacro.h:172
2000287c:	0ff0000f          	fence
xQueueGenericCreateStatic():
/jenkins/node-gerritverify/workspace/gerrit_review_verification/.workspace/os/FreeRTOS/Kernel/queue.c:345
20002880:	a001                	j	20002880 <xQueueGenericCreateStatic+0x42>
vPortRaiseBASEPRI():
/jenkins/node-gerritverify/workspace/gerrit_review_verification/.workspace/bsp/arch/riscv/n309/os_portable/freertos/portmacro.h:171
20002882:	900007b7          	lui	a5,0x90000
20002886:	0647c703          	lbu	a4,100(a5) # 90000064 <_sp+0xffff0064>
__ECLIC_SetMth():
/jenkins/node-gerritverify/workspace/gerrit_review_verification/.workspace/bsp/arch/riscv/n309/include/core_feature_eclic.h:340
2000288a:	0c0007b7          	lui	a5,0xc000
2000288e:	00e785a3          	sb	a4,11(a5) # c00000b <__HEAP_SIZE+0xbffb00b>
vPortRaiseBASEPRI():
/jenkins/node-gerritverify/workspace/gerrit_review_verification/.workspace/bsp/arch/riscv/n309/os_portable/freertos/portmacro.h:172
20002892:	0ff0000f          	fence
xQueueGenericCreateStatic():
/jenkins/node-gerritverify/workspace/gerrit_review_verification/.workspace/os/FreeRTOS/Kernel/queue.c:332 (discriminator 2)
20002896:	a001                	j	20002896 <xQueueGenericCreateStatic+0x58>
vPortRaiseBASEPRI():
/jenkins/node-gerritverify/workspace/gerrit_review_verification/.workspace/bsp/arch/riscv/n309/os_portable/freertos/portmacro.h:171
20002898:	900007b7          	lui	a5,0x90000
2000289c:	0647c703          	lbu	a4,100(a5) # 90000064 <_sp+0xffff0064>
__ECLIC_SetMth():
/jenkins/node-gerritverify/workspace/gerrit_review_verification/.workspace/bsp/arch/riscv/n309/include/core_feature_eclic.h:340
200028a0:	0c0007b7          	lui	a5,0xc000
200028a4:	00e785a3          	sb	a4,11(a5) # c00000b <__HEAP_SIZE+0xbffb00b>
vPortRaiseBASEPRI():
/jenkins/node-gerritverify/workspace/gerrit_review_verification/.workspace/bsp/arch/riscv/n309/os_portable/freertos/portmacro.h:172
200028a8:	0ff0000f          	fence
xQueueGenericCreateStatic():
/jenkins/node-gerritverify/workspace/gerrit_review_verification/.workspace/os/FreeRTOS/Kernel/queue.c:336 (discriminator 3)
200028ac:	a001                	j	200028ac <xQueueGenericCreateStatic+0x6e>
/jenkins/node-gerritverify/workspace/gerrit_review_verification/.workspace/os/FreeRTOS/Kernel/queue.c:337
200028ae:	e1b9                	bnez	a1,200028f4 <xQueueGenericCreateStatic+0xb6>
/jenkins/node-gerritverify/workspace/gerrit_review_verification/.workspace/os/FreeRTOS/Kernel/queue.c:344
200028b0:	05400793          	li	a5,84
200028b4:	ce3e                	sw	a5,28(sp)
/jenkins/node-gerritverify/workspace/gerrit_review_verification/.workspace/os/FreeRTOS/Kernel/queue.c:345
200028b6:	4672                	lw	a2,28(sp)
200028b8:	faf61ae3          	bne	a2,a5,2000286c <xQueueGenericCreateStatic+0x2e>
/jenkins/node-gerritverify/workspace/gerrit_review_verification/.workspace/os/FreeRTOS/Kernel/queue.c:346
200028bc:	47f2                	lw	a5,28(sp)
/jenkins/node-gerritverify/workspace/gerrit_review_verification/.workspace/os/FreeRTOS/Kernel/queue.c:362
200028be:	4785                	li	a5,1
200028c0:	04f68323          	sb	a5,70(a3)
200028c4:	8636                	mv	a2,a3
200028c6:	a029                	j	200028d0 <xQueueGenericCreateStatic+0x92>
/jenkins/node-gerritverify/workspace/gerrit_review_verification/.workspace/os/FreeRTOS/Kernel/queue.c:346
200028c8:	47f2                	lw	a5,28(sp)
/jenkins/node-gerritverify/workspace/gerrit_review_verification/.workspace/os/FreeRTOS/Kernel/queue.c:362
200028ca:	4785                	li	a5,1
200028cc:	04f68323          	sb	a5,70(a3)
prvInitialiseNewQueue():
/jenkins/node-gerritverify/workspace/gerrit_review_verification/.workspace/os/FreeRTOS/Kernel/queue.c:470
200028d0:	dec8                	sw	a0,60(a3)
/jenkins/node-gerritverify/workspace/gerrit_review_verification/.workspace/os/FreeRTOS/Kernel/queue.c:471
200028d2:	c2ac                	sw	a1,64(a3)
200028d4:	c290                	sw	a2,0(a3)
/jenkins/node-gerritverify/workspace/gerrit_review_verification/.workspace/os/FreeRTOS/Kernel/queue.c:472
200028d6:	8536                	mv	a0,a3
200028d8:	4585                	li	a1,1
200028da:	c63a                	sw	a4,12(sp)
200028dc:	c436                	sw	a3,8(sp)
200028de:	3555                	jal	20002782 <xQueueGenericReset>
/jenkins/node-gerritverify/workspace/gerrit_review_verification/.workspace/os/FreeRTOS/Kernel/queue.c:476
200028e0:	46a2                	lw	a3,8(sp)
200028e2:	4732                	lw	a4,12(sp)
/jenkins/node-gerritverify/workspace/gerrit_review_verification/.workspace/os/FreeRTOS/Kernel/queue.c:482
200028e4:	0406a423          	sw	zero,72(a3)
/jenkins/node-gerritverify/workspace/gerrit_review_verification/.workspace/os/FreeRTOS/Kernel/queue.c:476
200028e8:	04e68823          	sb	a4,80(a3)
xQueueGenericCreateStatic():
/jenkins/node-gerritverify/workspace/gerrit_review_verification/.workspace/os/FreeRTOS/Kernel/queue.c:375
200028ec:	50b2                	lw	ra,44(sp)
200028ee:	8536                	mv	a0,a3
200028f0:	6145                	addi	sp,sp,48
200028f2:	8082                	ret
vPortRaiseBASEPRI():
/jenkins/node-gerritverify/workspace/gerrit_review_verification/.workspace/bsp/arch/riscv/n309/os_portable/freertos/portmacro.h:171
200028f4:	900007b7          	lui	a5,0x90000
200028f8:	0647c703          	lbu	a4,100(a5) # 90000064 <_sp+0xffff0064>
__ECLIC_SetMth():
/jenkins/node-gerritverify/workspace/gerrit_review_verification/.workspace/bsp/arch/riscv/n309/include/core_feature_eclic.h:340
200028fc:	0c0007b7          	lui	a5,0xc000
20002900:	00e785a3          	sb	a4,11(a5) # c00000b <__HEAP_SIZE+0xbffb00b>
vPortRaiseBASEPRI():
/jenkins/node-gerritverify/workspace/gerrit_review_verification/.workspace/bsp/arch/riscv/n309/os_portable/freertos/portmacro.h:172
20002904:	0ff0000f          	fence
xQueueGenericCreateStatic():
/jenkins/node-gerritverify/workspace/gerrit_review_verification/.workspace/os/FreeRTOS/Kernel/queue.c:337
20002908:	a001                	j	20002908 <xQueueGenericCreateStatic+0xca>

2000290a <xQueueGenericSend>:
xQueueGenericSend():
/jenkins/node-gerritverify/workspace/gerrit_review_verification/.workspace/os/FreeRTOS/Kernel/queue.c:775
2000290a:	715d                	addi	sp,sp,-80
2000290c:	c686                	sw	ra,76(sp)
2000290e:	c4a2                	sw	s0,72(sp)
20002910:	c2a6                	sw	s1,68(sp)
20002912:	c0ca                	sw	s2,64(sp)
20002914:	de4e                	sw	s3,60(sp)
20002916:	dc52                	sw	s4,56(sp)
20002918:	da56                	sw	s5,52(sp)
2000291a:	d85a                	sw	s6,48(sp)
2000291c:	d65e                	sw	s7,44(sp)
2000291e:	d462                	sw	s8,40(sp)
20002920:	c632                	sw	a2,12(sp)
/jenkins/node-gerritverify/workspace/gerrit_review_verification/.workspace/os/FreeRTOS/Kernel/queue.c:780
20002922:	0c050a63          	beqz	a0,200029f6 <xQueueGenericSend+0xec>
20002926:	842a                	mv	s0,a0
20002928:	89ae                	mv	s3,a1
2000292a:	84b6                	mv	s1,a3
/jenkins/node-gerritverify/workspace/gerrit_review_verification/.workspace/os/FreeRTOS/Kernel/queue.c:781 (discriminator 2)
2000292c:	c9c5                	beqz	a1,200029dc <xQueueGenericSend+0xd2>
/jenkins/node-gerritverify/workspace/gerrit_review_verification/.workspace/os/FreeRTOS/Kernel/queue.c:782 (discriminator 8)
2000292e:	4789                	li	a5,2
20002930:	02f49163          	bne	s1,a5,20002952 <xQueueGenericSend+0x48>
/jenkins/node-gerritverify/workspace/gerrit_review_verification/.workspace/os/FreeRTOS/Kernel/queue.c:782 (discriminator 2)
20002934:	5c58                	lw	a4,60(s0)
20002936:	4785                	li	a5,1
20002938:	00f70d63          	beq	a4,a5,20002952 <xQueueGenericSend+0x48>
vPortRaiseBASEPRI():
/jenkins/node-gerritverify/workspace/gerrit_review_verification/.workspace/bsp/arch/riscv/n309/os_portable/freertos/portmacro.h:171
2000293c:	900007b7          	lui	a5,0x90000
20002940:	0647c703          	lbu	a4,100(a5) # 90000064 <_sp+0xffff0064>
__ECLIC_SetMth():
/jenkins/node-gerritverify/workspace/gerrit_review_verification/.workspace/bsp/arch/riscv/n309/include/core_feature_eclic.h:340
20002944:	0c0007b7          	lui	a5,0xc000
20002948:	00e785a3          	sb	a4,11(a5) # c00000b <__HEAP_SIZE+0xbffb00b>
vPortRaiseBASEPRI():
/jenkins/node-gerritverify/workspace/gerrit_review_verification/.workspace/bsp/arch/riscv/n309/os_portable/freertos/portmacro.h:172
2000294c:	0ff0000f          	fence
xQueueGenericSend():
/jenkins/node-gerritverify/workspace/gerrit_review_verification/.workspace/os/FreeRTOS/Kernel/queue.c:782 (discriminator 3)
20002950:	a001                	j	20002950 <xQueueGenericSend+0x46>
/jenkins/node-gerritverify/workspace/gerrit_review_verification/.workspace/os/FreeRTOS/Kernel/queue.c:785 (discriminator 8)
20002952:	bb4ff0ef          	jal	ra,20001d06 <xTaskGetSchedulerState>
20002956:	8c2a                	mv	s8,a0
20002958:	c955                	beqz	a0,20002a0c <xQueueGenericSend+0x102>
2000295a:	4c01                	li	s8,0
/jenkins/node-gerritverify/workspace/gerrit_review_verification/.workspace/os/FreeRTOS/Kernel/queue.c:800 (discriminator 8)
2000295c:	4a09                	li	s4,2
/jenkins/node-gerritverify/workspace/gerrit_review_verification/.workspace/os/FreeRTOS/Kernel/queue.c:936 (discriminator 8)
2000295e:	597d                	li	s2,-1
/jenkins/node-gerritverify/workspace/gerrit_review_verification/.workspace/os/FreeRTOS/Kernel/queue.c:944 (discriminator 8)
20002960:	01040a93          	addi	s5,s0,16
__SW():
/jenkins/node-gerritverify/workspace/gerrit_review_verification/.workspace/bsp/arch/riscv/n309/include/core_feature_base.h:1460 (discriminator 8)
20002964:	4b85                	li	s7,1
SysTimer_SetSWIRQ():
/jenkins/node-gerritverify/workspace/gerrit_review_verification/.workspace/bsp/arch/riscv/n309/include/core_feature_timer.h:297 (discriminator 8)
20002966:	02001b37          	lui	s6,0x2001
xQueueGenericSend():
/jenkins/node-gerritverify/workspace/gerrit_review_verification/.workspace/os/FreeRTOS/Kernel/queue.c:794 (discriminator 8)
2000296a:	e17fd0ef          	jal	ra,20000780 <vPortEnterCritical>
/jenkins/node-gerritverify/workspace/gerrit_review_verification/.workspace/os/FreeRTOS/Kernel/queue.c:800 (discriminator 8)
2000296e:	5c18                	lw	a4,56(s0)
20002970:	5c5c                	lw	a5,60(s0)
20002972:	0ef76d63          	bltu	a4,a5,20002a6c <xQueueGenericSend+0x162>
/jenkins/node-gerritverify/workspace/gerrit_review_verification/.workspace/os/FreeRTOS/Kernel/queue.c:800 (discriminator 1)
20002976:	13448963          	beq	s1,s4,20002aa8 <xQueueGenericSend+0x19e>
/jenkins/node-gerritverify/workspace/gerrit_review_verification/.workspace/os/FreeRTOS/Kernel/queue.c:905
2000297a:	47b2                	lw	a5,12(sp)
2000297c:	16078363          	beqz	a5,20002ae2 <xQueueGenericSend+0x1d8>
/jenkins/node-gerritverify/workspace/gerrit_review_verification/.workspace/os/FreeRTOS/Kernel/queue.c:916
20002980:	0a0c0363          	beqz	s8,20002a26 <xQueueGenericSend+0x11c>
/jenkins/node-gerritverify/workspace/gerrit_review_verification/.workspace/os/FreeRTOS/Kernel/queue.c:930
20002984:	e45fd0ef          	jal	ra,200007c8 <vPortExitCritical>
/jenkins/node-gerritverify/workspace/gerrit_review_verification/.workspace/os/FreeRTOS/Kernel/queue.c:935
20002988:	91aff0ef          	jal	ra,20001aa2 <vTaskSuspendAll>
/jenkins/node-gerritverify/workspace/gerrit_review_verification/.workspace/os/FreeRTOS/Kernel/queue.c:936
2000298c:	df5fd0ef          	jal	ra,20000780 <vPortEnterCritical>
20002990:	04444783          	lbu	a5,68(s0)
20002994:	07e2                	slli	a5,a5,0x18
20002996:	87e1                	srai	a5,a5,0x18
20002998:	01279463          	bne	a5,s2,200029a0 <xQueueGenericSend+0x96>
/jenkins/node-gerritverify/workspace/gerrit_review_verification/.workspace/os/FreeRTOS/Kernel/queue.c:936 (discriminator 1)
2000299c:	04040223          	sb	zero,68(s0)
/jenkins/node-gerritverify/workspace/gerrit_review_verification/.workspace/os/FreeRTOS/Kernel/queue.c:936 (discriminator 3)
200029a0:	04544783          	lbu	a5,69(s0)
200029a4:	07e2                	slli	a5,a5,0x18
200029a6:	87e1                	srai	a5,a5,0x18
200029a8:	01279463          	bne	a5,s2,200029b0 <xQueueGenericSend+0xa6>
/jenkins/node-gerritverify/workspace/gerrit_review_verification/.workspace/os/FreeRTOS/Kernel/queue.c:936 (discriminator 4)
200029ac:	040402a3          	sb	zero,69(s0)
/jenkins/node-gerritverify/workspace/gerrit_review_verification/.workspace/os/FreeRTOS/Kernel/queue.c:936 (discriminator 6)
200029b0:	e19fd0ef          	jal	ra,200007c8 <vPortExitCritical>
/jenkins/node-gerritverify/workspace/gerrit_review_verification/.workspace/os/FreeRTOS/Kernel/queue.c:939 (discriminator 6)
200029b4:	006c                	addi	a1,sp,12
200029b6:	0828                	addi	a0,sp,24
200029b8:	aa2ff0ef          	jal	ra,20001c5a <xTaskCheckForTimeOut>
200029bc:	12051763          	bnez	a0,20002aea <xQueueGenericSend+0x1e0>
prvIsQueueFull():
/jenkins/node-gerritverify/workspace/gerrit_review_verification/.workspace/os/FreeRTOS/Kernel/queue.c:2395
200029c0:	dc1fd0ef          	jal	ra,20000780 <vPortEnterCritical>
/jenkins/node-gerritverify/workspace/gerrit_review_verification/.workspace/os/FreeRTOS/Kernel/queue.c:2397
200029c4:	5c18                	lw	a4,56(s0)
200029c6:	5c5c                	lw	a5,60(s0)
200029c8:	06f70363          	beq	a4,a5,20002a2e <xQueueGenericSend+0x124>
/jenkins/node-gerritverify/workspace/gerrit_review_verification/.workspace/os/FreeRTOS/Kernel/queue.c:2406
200029cc:	dfdfd0ef          	jal	ra,200007c8 <vPortExitCritical>
xQueueGenericSend():
/jenkins/node-gerritverify/workspace/gerrit_review_verification/.workspace/os/FreeRTOS/Kernel/queue.c:966
200029d0:	8522                	mv	a0,s0
200029d2:	31f5                	jal	200026be <prvUnlockQueue>
/jenkins/node-gerritverify/workspace/gerrit_review_verification/.workspace/os/FreeRTOS/Kernel/queue.c:967
200029d4:	8deff0ef          	jal	ra,20001ab2 <xTaskResumeAll>
200029d8:	4c05                	li	s8,1
200029da:	bf41                	j	2000296a <xQueueGenericSend+0x60>
/jenkins/node-gerritverify/workspace/gerrit_review_verification/.workspace/os/FreeRTOS/Kernel/queue.c:781 (discriminator 2)
200029dc:	413c                	lw	a5,64(a0)
200029de:	dba1                	beqz	a5,2000292e <xQueueGenericSend+0x24>
vPortRaiseBASEPRI():
/jenkins/node-gerritverify/workspace/gerrit_review_verification/.workspace/bsp/arch/riscv/n309/os_portable/freertos/portmacro.h:171
200029e0:	900007b7          	lui	a5,0x90000
200029e4:	0647c703          	lbu	a4,100(a5) # 90000064 <_sp+0xffff0064>
__ECLIC_SetMth():
/jenkins/node-gerritverify/workspace/gerrit_review_verification/.workspace/bsp/arch/riscv/n309/include/core_feature_eclic.h:340
200029e8:	0c0007b7          	lui	a5,0xc000
200029ec:	00e785a3          	sb	a4,11(a5) # c00000b <__HEAP_SIZE+0xbffb00b>
vPortRaiseBASEPRI():
/jenkins/node-gerritverify/workspace/gerrit_review_verification/.workspace/bsp/arch/riscv/n309/os_portable/freertos/portmacro.h:172
200029f0:	0ff0000f          	fence
xQueueGenericSend():
/jenkins/node-gerritverify/workspace/gerrit_review_verification/.workspace/os/FreeRTOS/Kernel/queue.c:781 (discriminator 2)
200029f4:	a001                	j	200029f4 <xQueueGenericSend+0xea>
vPortRaiseBASEPRI():
/jenkins/node-gerritverify/workspace/gerrit_review_verification/.workspace/bsp/arch/riscv/n309/os_portable/freertos/portmacro.h:171
200029f6:	900007b7          	lui	a5,0x90000
200029fa:	0647c703          	lbu	a4,100(a5) # 90000064 <_sp+0xffff0064>
__ECLIC_SetMth():
/jenkins/node-gerritverify/workspace/gerrit_review_verification/.workspace/bsp/arch/riscv/n309/include/core_feature_eclic.h:340
200029fe:	0c0007b7          	lui	a5,0xc000
20002a02:	00e785a3          	sb	a4,11(a5) # c00000b <__HEAP_SIZE+0xbffb00b>
vPortRaiseBASEPRI():
/jenkins/node-gerritverify/workspace/gerrit_review_verification/.workspace/bsp/arch/riscv/n309/os_portable/freertos/portmacro.h:172
20002a06:	0ff0000f          	fence
xQueueGenericSend():
/jenkins/node-gerritverify/workspace/gerrit_review_verification/.workspace/os/FreeRTOS/Kernel/queue.c:780 (discriminator 1)
20002a0a:	a001                	j	20002a0a <xQueueGenericSend+0x100>
/jenkins/node-gerritverify/workspace/gerrit_review_verification/.workspace/os/FreeRTOS/Kernel/queue.c:785 (discriminator 2)
20002a0c:	47b2                	lw	a5,12(sp)
20002a0e:	d7b9                	beqz	a5,2000295c <xQueueGenericSend+0x52>
vPortRaiseBASEPRI():
/jenkins/node-gerritverify/workspace/gerrit_review_verification/.workspace/bsp/arch/riscv/n309/os_portable/freertos/portmacro.h:171
20002a10:	900007b7          	lui	a5,0x90000
20002a14:	0647c703          	lbu	a4,100(a5) # 90000064 <_sp+0xffff0064>
__ECLIC_SetMth():
/jenkins/node-gerritverify/workspace/gerrit_review_verification/.workspace/bsp/arch/riscv/n309/include/core_feature_eclic.h:340
20002a18:	0c0007b7          	lui	a5,0xc000
20002a1c:	00e785a3          	sb	a4,11(a5) # c00000b <__HEAP_SIZE+0xbffb00b>
vPortRaiseBASEPRI():
/jenkins/node-gerritverify/workspace/gerrit_review_verification/.workspace/bsp/arch/riscv/n309/os_portable/freertos/portmacro.h:172
20002a20:	0ff0000f          	fence
xQueueGenericSend():
/jenkins/node-gerritverify/workspace/gerrit_review_verification/.workspace/os/FreeRTOS/Kernel/queue.c:785 (discriminator 4)
20002a24:	a001                	j	20002a24 <xQueueGenericSend+0x11a>
/jenkins/node-gerritverify/workspace/gerrit_review_verification/.workspace/os/FreeRTOS/Kernel/queue.c:920
20002a26:	0828                	addi	a0,sp,24
20002a28:	a1cff0ef          	jal	ra,20001c44 <vTaskInternalSetTimeOutState>
/jenkins/node-gerritverify/workspace/gerrit_review_verification/.workspace/os/FreeRTOS/Kernel/queue.c:921
20002a2c:	bfa1                	j	20002984 <xQueueGenericSend+0x7a>
prvIsQueueFull():
/jenkins/node-gerritverify/workspace/gerrit_review_verification/.workspace/os/FreeRTOS/Kernel/queue.c:2406
20002a2e:	d9bfd0ef          	jal	ra,200007c8 <vPortExitCritical>
xQueueGenericSend():
/jenkins/node-gerritverify/workspace/gerrit_review_verification/.workspace/os/FreeRTOS/Kernel/queue.c:944
20002a32:	45b2                	lw	a1,12(sp)
20002a34:	8556                	mv	a0,s5
20002a36:	8f6ff0ef          	jal	ra,20001b2c <vTaskPlaceOnEventList>
/jenkins/node-gerritverify/workspace/gerrit_review_verification/.workspace/os/FreeRTOS/Kernel/queue.c:951
20002a3a:	8522                	mv	a0,s0
20002a3c:	3149                	jal	200026be <prvUnlockQueue>
/jenkins/node-gerritverify/workspace/gerrit_review_verification/.workspace/os/FreeRTOS/Kernel/queue.c:958
20002a3e:	874ff0ef          	jal	ra,20001ab2 <xTaskResumeAll>
20002a42:	f959                	bnez	a0,200029d8 <xQueueGenericSend+0xce>
SysTimer_SetSWIRQ():
/jenkins/node-gerritverify/workspace/gerrit_review_verification/.workspace/bsp/arch/riscv/n309/include/core_feature_timer.h:293
20002a44:	f14027f3          	csrr	a5,mhartid
/jenkins/node-gerritverify/workspace/gerrit_review_verification/.workspace/bsp/arch/riscv/n309/include/core_feature_timer.h:294
20002a48:	eb99                	bnez	a5,20002a5e <xQueueGenericSend+0x154>
/jenkins/node-gerritverify/workspace/gerrit_review_verification/.workspace/bsp/arch/riscv/n309/include/core_feature_timer.h:295
20002a4a:	ffcb2783          	lw	a5,-4(s6) # 2000ffc <__HEAP_SIZE+0x1ffbffc>
20002a4e:	0017e793          	ori	a5,a5,1
20002a52:	fefb2e23          	sw	a5,-4(s6)
xQueueGenericSend():
/jenkins/node-gerritverify/workspace/gerrit_review_verification/.workspace/os/FreeRTOS/Kernel/queue.c:960
20002a56:	0ff0000f          	fence
20002a5a:	4c05                	li	s8,1
20002a5c:	b739                	j	2000296a <xQueueGenericSend+0x60>
SysTimer_SetSWIRQ():
/jenkins/node-gerritverify/workspace/gerrit_review_verification/.workspace/bsp/arch/riscv/n309/include/core_feature_timer.h:297
20002a5e:	078a                	slli	a5,a5,0x2
20002a60:	97da                	add	a5,a5,s6
__SW():
/jenkins/node-gerritverify/workspace/gerrit_review_verification/.workspace/bsp/arch/riscv/n309/include/core_feature_base.h:1460
20002a62:	0177a023          	sw	s7,0(a5)
xQueueGenericSend():
/jenkins/node-gerritverify/workspace/gerrit_review_verification/.workspace/os/FreeRTOS/Kernel/queue.c:960
20002a66:	0ff0000f          	fence
20002a6a:	bfc5                	j	20002a5a <xQueueGenericSend+0x150>
/jenkins/node-gerritverify/workspace/gerrit_review_verification/.workspace/os/FreeRTOS/Kernel/queue.c:808
20002a6c:	8626                	mv	a2,s1
20002a6e:	85ce                	mv	a1,s3
20002a70:	8522                	mv	a0,s0
/jenkins/node-gerritverify/workspace/gerrit_review_verification/.workspace/os/FreeRTOS/Kernel/queue.c:806
20002a72:	03842903          	lw	s2,56(s0)
/jenkins/node-gerritverify/workspace/gerrit_review_verification/.workspace/os/FreeRTOS/Kernel/queue.c:808
20002a76:	aefff0ef          	jal	ra,20002564 <prvCopyDataToQueue>
/jenkins/node-gerritverify/workspace/gerrit_review_verification/.workspace/os/FreeRTOS/Kernel/queue.c:810
20002a7a:	443c                	lw	a5,72(s0)
20002a7c:	cf9d                	beqz	a5,20002aba <xQueueGenericSend+0x1b0>
/jenkins/node-gerritverify/workspace/gerrit_review_verification/.workspace/os/FreeRTOS/Kernel/queue.c:812
20002a7e:	4789                	li	a5,2
20002a80:	04f48e63          	beq	s1,a5,20002adc <xQueueGenericSend+0x1d2>
/jenkins/node-gerritverify/workspace/gerrit_review_verification/.workspace/os/FreeRTOS/Kernel/queue.c:819
20002a84:	8522                	mv	a0,s0
20002a86:	3659                	jal	2000260c <prvNotifyQueueSetContainer>
20002a88:	ed05                	bnez	a0,20002ac0 <xQueueGenericSend+0x1b6>
/jenkins/node-gerritverify/workspace/gerrit_review_verification/.workspace/os/FreeRTOS/Kernel/queue.c:900
20002a8a:	d3ffd0ef          	jal	ra,200007c8 <vPortExitCritical>
/jenkins/node-gerritverify/workspace/gerrit_review_verification/.workspace/os/FreeRTOS/Kernel/queue.c:901
20002a8e:	4505                	li	a0,1
/jenkins/node-gerritverify/workspace/gerrit_review_verification/.workspace/os/FreeRTOS/Kernel/queue.c:980
20002a90:	40b6                	lw	ra,76(sp)
20002a92:	4426                	lw	s0,72(sp)
20002a94:	4496                	lw	s1,68(sp)
20002a96:	4906                	lw	s2,64(sp)
20002a98:	59f2                	lw	s3,60(sp)
20002a9a:	5a62                	lw	s4,56(sp)
20002a9c:	5ad2                	lw	s5,52(sp)
20002a9e:	5b42                	lw	s6,48(sp)
20002aa0:	5bb2                	lw	s7,44(sp)
20002aa2:	5c22                	lw	s8,40(sp)
20002aa4:	6161                	addi	sp,sp,80
20002aa6:	8082                	ret
/jenkins/node-gerritverify/workspace/gerrit_review_verification/.workspace/os/FreeRTOS/Kernel/queue.c:808
20002aa8:	4609                	li	a2,2
20002aaa:	85ce                	mv	a1,s3
20002aac:	8522                	mv	a0,s0
/jenkins/node-gerritverify/workspace/gerrit_review_verification/.workspace/os/FreeRTOS/Kernel/queue.c:806
20002aae:	03842903          	lw	s2,56(s0)
/jenkins/node-gerritverify/workspace/gerrit_review_verification/.workspace/os/FreeRTOS/Kernel/queue.c:808
20002ab2:	ab3ff0ef          	jal	ra,20002564 <prvCopyDataToQueue>
/jenkins/node-gerritverify/workspace/gerrit_review_verification/.workspace/os/FreeRTOS/Kernel/queue.c:810
20002ab6:	443c                	lw	a5,72(s0)
20002ab8:	e395                	bnez	a5,20002adc <xQueueGenericSend+0x1d2>
/jenkins/node-gerritverify/workspace/gerrit_review_verification/.workspace/os/FreeRTOS/Kernel/queue.c:835
20002aba:	505c                	lw	a5,36(s0)
20002abc:	e7b1                	bnez	a5,20002b08 <xQueueGenericSend+0x1fe>
/jenkins/node-gerritverify/workspace/gerrit_review_verification/.workspace/os/FreeRTOS/Kernel/queue.c:850
20002abe:	d571                	beqz	a0,20002a8a <xQueueGenericSend+0x180>
SysTimer_SetSWIRQ():
/jenkins/node-gerritverify/workspace/gerrit_review_verification/.workspace/bsp/arch/riscv/n309/include/core_feature_timer.h:293
20002ac0:	f14027f3          	csrr	a5,mhartid
/jenkins/node-gerritverify/workspace/gerrit_review_verification/.workspace/bsp/arch/riscv/n309/include/core_feature_timer.h:294
20002ac4:	eb8d                	bnez	a5,20002af6 <xQueueGenericSend+0x1ec>
/jenkins/node-gerritverify/workspace/gerrit_review_verification/.workspace/bsp/arch/riscv/n309/include/core_feature_timer.h:295
20002ac6:	02001737          	lui	a4,0x2001
20002aca:	ffc72783          	lw	a5,-4(a4) # 2000ffc <__HEAP_SIZE+0x1ffbffc>
20002ace:	0017e793          	ori	a5,a5,1
20002ad2:	fef72e23          	sw	a5,-4(a4)
xQueueGenericSend():
/jenkins/node-gerritverify/workspace/gerrit_review_verification/.workspace/os/FreeRTOS/Kernel/queue.c:856
20002ad6:	0ff0000f          	fence
20002ada:	bf45                	j	20002a8a <xQueueGenericSend+0x180>
/jenkins/node-gerritverify/workspace/gerrit_review_verification/.workspace/os/FreeRTOS/Kernel/queue.c:812 (discriminator 1)
20002adc:	fa0904e3          	beqz	s2,20002a84 <xQueueGenericSend+0x17a>
20002ae0:	b76d                	j	20002a8a <xQueueGenericSend+0x180>
/jenkins/node-gerritverify/workspace/gerrit_review_verification/.workspace/os/FreeRTOS/Kernel/queue.c:909
20002ae2:	ce7fd0ef          	jal	ra,200007c8 <vPortExitCritical>
/jenkins/node-gerritverify/workspace/gerrit_review_verification/.workspace/os/FreeRTOS/Kernel/queue.c:914
20002ae6:	4501                	li	a0,0
20002ae8:	b765                	j	20002a90 <xQueueGenericSend+0x186>
/jenkins/node-gerritverify/workspace/gerrit_review_verification/.workspace/os/FreeRTOS/Kernel/queue.c:973
20002aea:	8522                	mv	a0,s0
20002aec:	3ec9                	jal	200026be <prvUnlockQueue>
/jenkins/node-gerritverify/workspace/gerrit_review_verification/.workspace/os/FreeRTOS/Kernel/queue.c:974
20002aee:	fc5fe0ef          	jal	ra,20001ab2 <xTaskResumeAll>
/jenkins/node-gerritverify/workspace/gerrit_review_verification/.workspace/os/FreeRTOS/Kernel/queue.c:977
20002af2:	4501                	li	a0,0
20002af4:	bf71                	j	20002a90 <xQueueGenericSend+0x186>
SysTimer_SetSWIRQ():
/jenkins/node-gerritverify/workspace/gerrit_review_verification/.workspace/bsp/arch/riscv/n309/include/core_feature_timer.h:297
20002af6:	02001737          	lui	a4,0x2001
20002afa:	078a                	slli	a5,a5,0x2
20002afc:	97ba                	add	a5,a5,a4
__SW():
/jenkins/node-gerritverify/workspace/gerrit_review_verification/.workspace/bsp/arch/riscv/n309/include/core_feature_base.h:1460
20002afe:	4705                	li	a4,1
20002b00:	c398                	sw	a4,0(a5)
xQueueGenericSend():
/jenkins/node-gerritverify/workspace/gerrit_review_verification/.workspace/os/FreeRTOS/Kernel/queue.c:856
20002b02:	0ff0000f          	fence
20002b06:	b751                	j	20002a8a <xQueueGenericSend+0x180>
/jenkins/node-gerritverify/workspace/gerrit_review_verification/.workspace/os/FreeRTOS/Kernel/queue.c:837
20002b08:	02440513          	addi	a0,s0,36
20002b0c:	89eff0ef          	jal	ra,20001baa <xTaskRemoveFromEventList>
20002b10:	dd2d                	beqz	a0,20002a8a <xQueueGenericSend+0x180>
20002b12:	b77d                	j	20002ac0 <xQueueGenericSend+0x1b6>

20002b14 <xQueueGenericSendFromISR>:
xQueueGenericSendFromISR():
/jenkins/node-gerritverify/workspace/gerrit_review_verification/.workspace/os/FreeRTOS/Kernel/queue.c:992
20002b14:	c565                	beqz	a0,20002bfc <xQueueGenericSendFromISR+0xe8>
/jenkins/node-gerritverify/workspace/gerrit_review_verification/.workspace/os/FreeRTOS/Kernel/queue.c:987 (discriminator 2)
20002b16:	7179                	addi	sp,sp,-48
20002b18:	d422                	sw	s0,40(sp)
20002b1a:	d226                	sw	s1,36(sp)
20002b1c:	d04a                	sw	s2,32(sp)
20002b1e:	c85a                	sw	s6,16(sp)
20002b20:	d606                	sw	ra,44(sp)
20002b22:	ce4e                	sw	s3,28(sp)
20002b24:	cc52                	sw	s4,24(sp)
20002b26:	ca56                	sw	s5,20(sp)
20002b28:	c65e                	sw	s7,12(sp)
20002b2a:	842a                	mv	s0,a0
20002b2c:	8b2e                	mv	s6,a1
20002b2e:	8932                	mv	s2,a2
20002b30:	84b6                	mv	s1,a3
/jenkins/node-gerritverify/workspace/gerrit_review_verification/.workspace/os/FreeRTOS/Kernel/queue.c:993 (discriminator 2)
20002b32:	cda5                	beqz	a1,20002baa <xQueueGenericSendFromISR+0x96>
/jenkins/node-gerritverify/workspace/gerrit_review_verification/.workspace/os/FreeRTOS/Kernel/queue.c:994 (discriminator 8)
20002b34:	4789                	li	a5,2
20002b36:	02f49163          	bne	s1,a5,20002b58 <xQueueGenericSendFromISR+0x44>
/jenkins/node-gerritverify/workspace/gerrit_review_verification/.workspace/os/FreeRTOS/Kernel/queue.c:994 (discriminator 2)
20002b3a:	5c58                	lw	a4,60(s0)
20002b3c:	4785                	li	a5,1
20002b3e:	00f70d63          	beq	a4,a5,20002b58 <xQueueGenericSendFromISR+0x44>
vPortRaiseBASEPRI():
/jenkins/node-gerritverify/workspace/gerrit_review_verification/.workspace/bsp/arch/riscv/n309/os_portable/freertos/portmacro.h:171
20002b42:	900007b7          	lui	a5,0x90000
20002b46:	0647c703          	lbu	a4,100(a5) # 90000064 <_sp+0xffff0064>
__ECLIC_SetMth():
/jenkins/node-gerritverify/workspace/gerrit_review_verification/.workspace/bsp/arch/riscv/n309/include/core_feature_eclic.h:340
20002b4a:	0c0007b7          	lui	a5,0xc000
20002b4e:	00e785a3          	sb	a4,11(a5) # c00000b <__HEAP_SIZE+0xbffb00b>
vPortRaiseBASEPRI():
/jenkins/node-gerritverify/workspace/gerrit_review_verification/.workspace/bsp/arch/riscv/n309/os_portable/freertos/portmacro.h:172
20002b52:	0ff0000f          	fence
xQueueGenericSendFromISR():
/jenkins/node-gerritverify/workspace/gerrit_review_verification/.workspace/os/FreeRTOS/Kernel/queue.c:994 (discriminator 3)
20002b56:	a001                	j	20002b56 <xQueueGenericSendFromISR+0x42>
/jenkins/node-gerritverify/workspace/gerrit_review_verification/.workspace/os/FreeRTOS/Kernel/queue.c:1010 (discriminator 8)
20002b58:	920fe0ef          	jal	ra,20000c78 <vPortValidateInterruptPriority>
__ECLIC_GetMth():
/jenkins/node-gerritverify/workspace/gerrit_review_verification/.workspace/bsp/arch/riscv/n309/include/core_feature_eclic.h:353 (discriminator 8)
20002b5c:	0c0007b7          	lui	a5,0xc000
ulPortRaiseBASEPRI():
/jenkins/node-gerritverify/workspace/gerrit_review_verification/.workspace/bsp/arch/riscv/n309/os_portable/freertos/portmacro.h:182 (discriminator 8)
20002b60:	90000a37          	lui	s4,0x90000
__ECLIC_GetMth():
/jenkins/node-gerritverify/workspace/gerrit_review_verification/.workspace/bsp/arch/riscv/n309/include/core_feature_eclic.h:353 (discriminator 8)
20002b64:	00b7c683          	lbu	a3,11(a5) # c00000b <__HEAP_SIZE+0xbffb00b>
ulPortRaiseBASEPRI():
/jenkins/node-gerritverify/workspace/gerrit_review_verification/.workspace/bsp/arch/riscv/n309/os_portable/freertos/portmacro.h:182 (discriminator 8)
20002b68:	064a4703          	lbu	a4,100(s4) # 90000064 <_sp+0xffff0064>
__ECLIC_GetMth():
/jenkins/node-gerritverify/workspace/gerrit_review_verification/.workspace/bsp/arch/riscv/n309/include/core_feature_eclic.h:353 (discriminator 8)
20002b6c:	0ff6fa93          	zext.b	s5,a3
__ECLIC_SetMth():
/jenkins/node-gerritverify/workspace/gerrit_review_verification/.workspace/bsp/arch/riscv/n309/include/core_feature_eclic.h:340 (discriminator 8)
20002b70:	00e785a3          	sb	a4,11(a5)
ulPortRaiseBASEPRI():
/jenkins/node-gerritverify/workspace/gerrit_review_verification/.workspace/bsp/arch/riscv/n309/os_portable/freertos/portmacro.h:183 (discriminator 8)
20002b74:	0ff0000f          	fence
xQueueGenericSendFromISR():
/jenkins/node-gerritverify/workspace/gerrit_review_verification/.workspace/os/FreeRTOS/Kernel/queue.c:1019 (discriminator 8)
20002b78:	5c18                	lw	a4,56(s0)
20002b7a:	5c5c                	lw	a5,60(s0)
20002b7c:	04f76463          	bltu	a4,a5,20002bc4 <xQueueGenericSendFromISR+0xb0>
/jenkins/node-gerritverify/workspace/gerrit_review_verification/.workspace/os/FreeRTOS/Kernel/queue.c:1019 (discriminator 1)
20002b80:	4789                	li	a5,2
/jenkins/node-gerritverify/workspace/gerrit_review_verification/.workspace/os/FreeRTOS/Kernel/queue.c:1141 (discriminator 1)
20002b82:	4501                	li	a0,0
/jenkins/node-gerritverify/workspace/gerrit_review_verification/.workspace/os/FreeRTOS/Kernel/queue.c:1019 (discriminator 1)
20002b84:	04f48063          	beq	s1,a5,20002bc4 <xQueueGenericSendFromISR+0xb0>
__ECLIC_SetMth():
/jenkins/node-gerritverify/workspace/gerrit_review_verification/.workspace/bsp/arch/riscv/n309/include/core_feature_eclic.h:340
20002b88:	0c0007b7          	lui	a5,0xc000
20002b8c:	015785a3          	sb	s5,11(a5) # c00000b <__HEAP_SIZE+0xbffb00b>
vPortSetBASEPRI():
/jenkins/node-gerritverify/workspace/gerrit_review_verification/.workspace/bsp/arch/riscv/n309/os_portable/freertos/portmacro.h:194
20002b90:	0ff0000f          	fence
xQueueGenericSendFromISR():
/jenkins/node-gerritverify/workspace/gerrit_review_verification/.workspace/os/FreeRTOS/Kernel/queue.c:1147
20002b94:	50b2                	lw	ra,44(sp)
20002b96:	5422                	lw	s0,40(sp)
20002b98:	5492                	lw	s1,36(sp)
20002b9a:	5902                	lw	s2,32(sp)
20002b9c:	49f2                	lw	s3,28(sp)
20002b9e:	4a62                	lw	s4,24(sp)
20002ba0:	4ad2                	lw	s5,20(sp)
20002ba2:	4b42                	lw	s6,16(sp)
20002ba4:	4bb2                	lw	s7,12(sp)
20002ba6:	6145                	addi	sp,sp,48
20002ba8:	8082                	ret
/jenkins/node-gerritverify/workspace/gerrit_review_verification/.workspace/os/FreeRTOS/Kernel/queue.c:993 (discriminator 2)
20002baa:	413c                	lw	a5,64(a0)
20002bac:	d7c1                	beqz	a5,20002b34 <xQueueGenericSendFromISR+0x20>
vPortRaiseBASEPRI():
/jenkins/node-gerritverify/workspace/gerrit_review_verification/.workspace/bsp/arch/riscv/n309/os_portable/freertos/portmacro.h:171
20002bae:	900007b7          	lui	a5,0x90000
20002bb2:	0647c703          	lbu	a4,100(a5) # 90000064 <_sp+0xffff0064>
__ECLIC_SetMth():
/jenkins/node-gerritverify/workspace/gerrit_review_verification/.workspace/bsp/arch/riscv/n309/include/core_feature_eclic.h:340
20002bb6:	0c0007b7          	lui	a5,0xc000
20002bba:	00e785a3          	sb	a4,11(a5) # c00000b <__HEAP_SIZE+0xbffb00b>
vPortRaiseBASEPRI():
/jenkins/node-gerritverify/workspace/gerrit_review_verification/.workspace/bsp/arch/riscv/n309/os_portable/freertos/portmacro.h:172
20002bbe:	0ff0000f          	fence
xQueueGenericSendFromISR():
/jenkins/node-gerritverify/workspace/gerrit_review_verification/.workspace/os/FreeRTOS/Kernel/queue.c:993 (discriminator 2)
20002bc2:	a001                	j	20002bc2 <xQueueGenericSendFromISR+0xae>
/jenkins/node-gerritverify/workspace/gerrit_review_verification/.workspace/os/FreeRTOS/Kernel/queue.c:1021
20002bc4:	04544983          	lbu	s3,69(s0)
/jenkins/node-gerritverify/workspace/gerrit_review_verification/.workspace/os/FreeRTOS/Kernel/queue.c:1031
20002bc8:	85da                	mv	a1,s6
20002bca:	8626                	mv	a2,s1
20002bcc:	8522                	mv	a0,s0
/jenkins/node-gerritverify/workspace/gerrit_review_verification/.workspace/os/FreeRTOS/Kernel/queue.c:1022
20002bce:	03842b83          	lw	s7,56(s0)
/jenkins/node-gerritverify/workspace/gerrit_review_verification/.workspace/os/FreeRTOS/Kernel/queue.c:1021
20002bd2:	01899b13          	slli	s6,s3,0x18
/jenkins/node-gerritverify/workspace/gerrit_review_verification/.workspace/os/FreeRTOS/Kernel/queue.c:1031
20002bd6:	98fff0ef          	jal	ra,20002564 <prvCopyDataToQueue>
/jenkins/node-gerritverify/workspace/gerrit_review_verification/.workspace/os/FreeRTOS/Kernel/queue.c:1021
20002bda:	418b5b13          	srai	s6,s6,0x18
/jenkins/node-gerritverify/workspace/gerrit_review_verification/.workspace/os/FreeRTOS/Kernel/queue.c:1035
20002bde:	57fd                	li	a5,-1
20002be0:	02fb0963          	beq	s6,a5,20002c12 <xQueueGenericSendFromISR+0xfe>
/jenkins/node-gerritverify/workspace/gerrit_review_verification/.workspace/os/FreeRTOS/Kernel/queue.c:1131
20002be4:	07f00793          	li	a5,127
20002be8:	04fb0763          	beq	s6,a5,20002c36 <xQueueGenericSendFromISR+0x122>
/jenkins/node-gerritverify/workspace/gerrit_review_verification/.workspace/os/FreeRTOS/Kernel/queue.c:1133 (discriminator 2)
20002bec:	00198793          	addi	a5,s3,1
20002bf0:	07e2                	slli	a5,a5,0x18
20002bf2:	87e1                	srai	a5,a5,0x18
20002bf4:	04f402a3          	sb	a5,69(s0)
/jenkins/node-gerritverify/workspace/gerrit_review_verification/.workspace/os/FreeRTOS/Kernel/queue.c:1136 (discriminator 2)
20002bf8:	4505                	li	a0,1
20002bfa:	b779                	j	20002b88 <xQueueGenericSendFromISR+0x74>
vPortRaiseBASEPRI():
/jenkins/node-gerritverify/workspace/gerrit_review_verification/.workspace/bsp/arch/riscv/n309/os_portable/freertos/portmacro.h:171
20002bfc:	900007b7          	lui	a5,0x90000
20002c00:	0647c703          	lbu	a4,100(a5) # 90000064 <_sp+0xffff0064>
__ECLIC_SetMth():
/jenkins/node-gerritverify/workspace/gerrit_review_verification/.workspace/bsp/arch/riscv/n309/include/core_feature_eclic.h:340
20002c04:	0c0007b7          	lui	a5,0xc000
20002c08:	00e785a3          	sb	a4,11(a5) # c00000b <__HEAP_SIZE+0xbffb00b>
vPortRaiseBASEPRI():
/jenkins/node-gerritverify/workspace/gerrit_review_verification/.workspace/bsp/arch/riscv/n309/os_portable/freertos/portmacro.h:172
20002c0c:	0ff0000f          	fence
xQueueGenericSendFromISR():
/jenkins/node-gerritverify/workspace/gerrit_review_verification/.workspace/os/FreeRTOS/Kernel/queue.c:992 (discriminator 1)
20002c10:	a001                	j	20002c10 <xQueueGenericSendFromISR+0xfc>
/jenkins/node-gerritverify/workspace/gerrit_review_verification/.workspace/os/FreeRTOS/Kernel/queue.c:1039
20002c12:	443c                	lw	a5,72(s0)
20002c14:	cb95                	beqz	a5,20002c48 <xQueueGenericSendFromISR+0x134>
/jenkins/node-gerritverify/workspace/gerrit_review_verification/.workspace/os/FreeRTOS/Kernel/queue.c:1041
20002c16:	4789                	li	a5,2
20002c18:	00f49463          	bne	s1,a5,20002c20 <xQueueGenericSendFromISR+0x10c>
/jenkins/node-gerritverify/workspace/gerrit_review_verification/.workspace/os/FreeRTOS/Kernel/queue.c:1041 (discriminator 1)
20002c1c:	fc0b9ee3          	bnez	s7,20002bf8 <xQueueGenericSendFromISR+0xe4>
/jenkins/node-gerritverify/workspace/gerrit_review_verification/.workspace/os/FreeRTOS/Kernel/queue.c:1048
20002c20:	8522                	mv	a0,s0
20002c22:	9ebff0ef          	jal	ra,2000260c <prvNotifyQueueSetContainer>
20002c26:	d969                	beqz	a0,20002bf8 <xQueueGenericSendFromISR+0xe4>
/jenkins/node-gerritverify/workspace/gerrit_review_verification/.workspace/os/FreeRTOS/Kernel/queue.c:1053
20002c28:	fc0908e3          	beqz	s2,20002bf8 <xQueueGenericSendFromISR+0xe4>
/jenkins/node-gerritverify/workspace/gerrit_review_verification/.workspace/os/FreeRTOS/Kernel/queue.c:1055
20002c2c:	4785                	li	a5,1
20002c2e:	00f92023          	sw	a5,0(s2)
/jenkins/node-gerritverify/workspace/gerrit_review_verification/.workspace/os/FreeRTOS/Kernel/queue.c:1136
20002c32:	4505                	li	a0,1
20002c34:	bf91                	j	20002b88 <xQueueGenericSendFromISR+0x74>
vPortRaiseBASEPRI():
/jenkins/node-gerritverify/workspace/gerrit_review_verification/.workspace/bsp/arch/riscv/n309/os_portable/freertos/portmacro.h:171
20002c36:	064a4703          	lbu	a4,100(s4)
__ECLIC_SetMth():
/jenkins/node-gerritverify/workspace/gerrit_review_verification/.workspace/bsp/arch/riscv/n309/include/core_feature_eclic.h:340
20002c3a:	0c0007b7          	lui	a5,0xc000
20002c3e:	00e785a3          	sb	a4,11(a5) # c00000b <__HEAP_SIZE+0xbffb00b>
vPortRaiseBASEPRI():
/jenkins/node-gerritverify/workspace/gerrit_review_verification/.workspace/bsp/arch/riscv/n309/os_portable/freertos/portmacro.h:172
20002c42:	0ff0000f          	fence
xQueueGenericSendFromISR():
/jenkins/node-gerritverify/workspace/gerrit_review_verification/.workspace/os/FreeRTOS/Kernel/queue.c:1131 (discriminator 9)
20002c46:	a001                	j	20002c46 <xQueueGenericSendFromISR+0x132>
/jenkins/node-gerritverify/workspace/gerrit_review_verification/.workspace/os/FreeRTOS/Kernel/queue.c:1069
20002c48:	505c                	lw	a5,36(s0)
20002c4a:	d7dd                	beqz	a5,20002bf8 <xQueueGenericSendFromISR+0xe4>
/jenkins/node-gerritverify/workspace/gerrit_review_verification/.workspace/os/FreeRTOS/Kernel/queue.c:1071
20002c4c:	02440513          	addi	a0,s0,36
20002c50:	f5bfe0ef          	jal	ra,20001baa <xTaskRemoveFromEventList>
20002c54:	f971                	bnez	a0,20002c28 <xQueueGenericSendFromISR+0x114>
/jenkins/node-gerritverify/workspace/gerrit_review_verification/.workspace/os/FreeRTOS/Kernel/queue.c:1136
20002c56:	4505                	li	a0,1
20002c58:	bf05                	j	20002b88 <xQueueGenericSendFromISR+0x74>

20002c5a <xQueueReceive>:
xQueueReceive():
/jenkins/node-gerritverify/workspace/gerrit_review_verification/.workspace/os/FreeRTOS/Kernel/queue.c:1321
20002c5a:	7139                	addi	sp,sp,-64
20002c5c:	de06                	sw	ra,60(sp)
20002c5e:	dc22                	sw	s0,56(sp)
20002c60:	da26                	sw	s1,52(sp)
20002c62:	d84a                	sw	s2,48(sp)
20002c64:	d64e                	sw	s3,44(sp)
20002c66:	d452                	sw	s4,40(sp)
20002c68:	d256                	sw	s5,36(sp)
20002c6a:	d05a                	sw	s6,32(sp)
20002c6c:	c632                	sw	a2,12(sp)
/jenkins/node-gerritverify/workspace/gerrit_review_verification/.workspace/os/FreeRTOS/Kernel/queue.c:1327
20002c6e:	14050963          	beqz	a0,20002dc0 <xQueueReceive+0x166>
20002c72:	842a                	mv	s0,a0
20002c74:	892e                	mv	s2,a1
/jenkins/node-gerritverify/workspace/gerrit_review_verification/.workspace/os/FreeRTOS/Kernel/queue.c:1331 (discriminator 2)
20002c76:	cdd9                	beqz	a1,20002d14 <xQueueReceive+0xba>
/jenkins/node-gerritverify/workspace/gerrit_review_verification/.workspace/os/FreeRTOS/Kernel/queue.c:1336 (discriminator 8)
20002c78:	88eff0ef          	jal	ra,20001d06 <xTaskGetSchedulerState>
20002c7c:	c94d                	beqz	a0,20002d2e <xQueueReceive+0xd4>
/jenkins/node-gerritverify/workspace/gerrit_review_verification/.workspace/os/FreeRTOS/Kernel/queue.c:1345 (discriminator 8)
20002c7e:	b03fd0ef          	jal	ra,20000780 <vPortEnterCritical>
/jenkins/node-gerritverify/workspace/gerrit_review_verification/.workspace/os/FreeRTOS/Kernel/queue.c:1347 (discriminator 8)
20002c82:	5c04                	lw	s1,56(s0)
/jenkins/node-gerritverify/workspace/gerrit_review_verification/.workspace/os/FreeRTOS/Kernel/queue.c:1351 (discriminator 8)
20002c84:	0e049163          	bnez	s1,20002d66 <xQueueReceive+0x10c>
/jenkins/node-gerritverify/workspace/gerrit_review_verification/.workspace/os/FreeRTOS/Kernel/queue.c:1382
20002c88:	47b2                	lw	a5,12(sp)
20002c8a:	cba5                	beqz	a5,20002cfa <xQueueReceive+0xa0>
/jenkins/node-gerritverify/workspace/gerrit_review_verification/.workspace/os/FreeRTOS/Kernel/queue.c:1394
20002c8c:	0828                	addi	a0,sp,24
20002c8e:	fb7fe0ef          	jal	ra,20001c44 <vTaskInternalSetTimeOutState>
/jenkins/node-gerritverify/workspace/gerrit_review_verification/.workspace/os/FreeRTOS/Kernel/queue.c:1410
20002c92:	59fd                	li	s3,-1
/jenkins/node-gerritverify/workspace/gerrit_review_verification/.workspace/os/FreeRTOS/Kernel/queue.c:1420
20002c94:	02440a13          	addi	s4,s0,36
__SW():
/jenkins/node-gerritverify/workspace/gerrit_review_verification/.workspace/bsp/arch/riscv/n309/include/core_feature_base.h:1460
20002c98:	4b05                	li	s6,1
SysTimer_SetSWIRQ():
/jenkins/node-gerritverify/workspace/gerrit_review_verification/.workspace/bsp/arch/riscv/n309/include/core_feature_timer.h:297
20002c9a:	02001ab7          	lui	s5,0x2001
xQueueReceive():
/jenkins/node-gerritverify/workspace/gerrit_review_verification/.workspace/os/FreeRTOS/Kernel/queue.c:1404
20002c9e:	b2bfd0ef          	jal	ra,200007c8 <vPortExitCritical>
/jenkins/node-gerritverify/workspace/gerrit_review_verification/.workspace/os/FreeRTOS/Kernel/queue.c:1409
20002ca2:	e01fe0ef          	jal	ra,20001aa2 <vTaskSuspendAll>
/jenkins/node-gerritverify/workspace/gerrit_review_verification/.workspace/os/FreeRTOS/Kernel/queue.c:1410
20002ca6:	adbfd0ef          	jal	ra,20000780 <vPortEnterCritical>
20002caa:	04444783          	lbu	a5,68(s0)
20002cae:	07e2                	slli	a5,a5,0x18
20002cb0:	87e1                	srai	a5,a5,0x18
20002cb2:	01379463          	bne	a5,s3,20002cba <xQueueReceive+0x60>
/jenkins/node-gerritverify/workspace/gerrit_review_verification/.workspace/os/FreeRTOS/Kernel/queue.c:1410 (discriminator 1)
20002cb6:	04040223          	sb	zero,68(s0)
/jenkins/node-gerritverify/workspace/gerrit_review_verification/.workspace/os/FreeRTOS/Kernel/queue.c:1410 (discriminator 3)
20002cba:	04544783          	lbu	a5,69(s0)
20002cbe:	07e2                	slli	a5,a5,0x18
20002cc0:	87e1                	srai	a5,a5,0x18
20002cc2:	01379463          	bne	a5,s3,20002cca <xQueueReceive+0x70>
/jenkins/node-gerritverify/workspace/gerrit_review_verification/.workspace/os/FreeRTOS/Kernel/queue.c:1410 (discriminator 4)
20002cc6:	040402a3          	sb	zero,69(s0)
/jenkins/node-gerritverify/workspace/gerrit_review_verification/.workspace/os/FreeRTOS/Kernel/queue.c:1410 (discriminator 6)
20002cca:	afffd0ef          	jal	ra,200007c8 <vPortExitCritical>
/jenkins/node-gerritverify/workspace/gerrit_review_verification/.workspace/os/FreeRTOS/Kernel/queue.c:1413 (discriminator 6)
20002cce:	006c                	addi	a1,sp,12
20002cd0:	0828                	addi	a0,sp,24
20002cd2:	f89fe0ef          	jal	ra,20001c5a <xTaskCheckForTimeOut>
20002cd6:	e92d                	bnez	a0,20002d48 <xQueueReceive+0xee>
prvIsQueueEmpty():
/jenkins/node-gerritverify/workspace/gerrit_review_verification/.workspace/os/FreeRTOS/Kernel/queue.c:2354
20002cd8:	aa9fd0ef          	jal	ra,20000780 <vPortEnterCritical>
/jenkins/node-gerritverify/workspace/gerrit_review_verification/.workspace/os/FreeRTOS/Kernel/queue.c:2356
20002cdc:	5c1c                	lw	a5,56(s0)
20002cde:	cbcd                	beqz	a5,20002d90 <xQueueReceive+0x136>
/jenkins/node-gerritverify/workspace/gerrit_review_verification/.workspace/os/FreeRTOS/Kernel/queue.c:2365
20002ce0:	ae9fd0ef          	jal	ra,200007c8 <vPortExitCritical>
xQueueReceive():
/jenkins/node-gerritverify/workspace/gerrit_review_verification/.workspace/os/FreeRTOS/Kernel/queue.c:1436
20002ce4:	8522                	mv	a0,s0
20002ce6:	9d9ff0ef          	jal	ra,200026be <prvUnlockQueue>
/jenkins/node-gerritverify/workspace/gerrit_review_verification/.workspace/os/FreeRTOS/Kernel/queue.c:1437
20002cea:	dc9fe0ef          	jal	ra,20001ab2 <xTaskResumeAll>
/jenkins/node-gerritverify/workspace/gerrit_review_verification/.workspace/os/FreeRTOS/Kernel/queue.c:1345
20002cee:	a93fd0ef          	jal	ra,20000780 <vPortEnterCritical>
/jenkins/node-gerritverify/workspace/gerrit_review_verification/.workspace/os/FreeRTOS/Kernel/queue.c:1347
20002cf2:	5c04                	lw	s1,56(s0)
/jenkins/node-gerritverify/workspace/gerrit_review_verification/.workspace/os/FreeRTOS/Kernel/queue.c:1351
20002cf4:	e8ad                	bnez	s1,20002d66 <xQueueReceive+0x10c>
/jenkins/node-gerritverify/workspace/gerrit_review_verification/.workspace/os/FreeRTOS/Kernel/queue.c:1382
20002cf6:	47b2                	lw	a5,12(sp)
20002cf8:	f3dd                	bnez	a5,20002c9e <xQueueReceive+0x44>
/jenkins/node-gerritverify/workspace/gerrit_review_verification/.workspace/os/FreeRTOS/Kernel/queue.c:1386
20002cfa:	acffd0ef          	jal	ra,200007c8 <vPortExitCritical>
/jenkins/node-gerritverify/workspace/gerrit_review_verification/.workspace/os/FreeRTOS/Kernel/queue.c:1388
20002cfe:	4501                	li	a0,0
/jenkins/node-gerritverify/workspace/gerrit_review_verification/.workspace/os/FreeRTOS/Kernel/queue.c:1458
20002d00:	50f2                	lw	ra,60(sp)
20002d02:	5462                	lw	s0,56(sp)
20002d04:	54d2                	lw	s1,52(sp)
20002d06:	5942                	lw	s2,48(sp)
20002d08:	59b2                	lw	s3,44(sp)
20002d0a:	5a22                	lw	s4,40(sp)
20002d0c:	5a92                	lw	s5,36(sp)
20002d0e:	5b02                	lw	s6,32(sp)
20002d10:	6121                	addi	sp,sp,64
20002d12:	8082                	ret
/jenkins/node-gerritverify/workspace/gerrit_review_verification/.workspace/os/FreeRTOS/Kernel/queue.c:1331 (discriminator 2)
20002d14:	413c                	lw	a5,64(a0)
20002d16:	d3ad                	beqz	a5,20002c78 <xQueueReceive+0x1e>
vPortRaiseBASEPRI():
/jenkins/node-gerritverify/workspace/gerrit_review_verification/.workspace/bsp/arch/riscv/n309/os_portable/freertos/portmacro.h:171
20002d18:	900007b7          	lui	a5,0x90000
20002d1c:	0647c703          	lbu	a4,100(a5) # 90000064 <_sp+0xffff0064>
__ECLIC_SetMth():
/jenkins/node-gerritverify/workspace/gerrit_review_verification/.workspace/bsp/arch/riscv/n309/include/core_feature_eclic.h:340
20002d20:	0c0007b7          	lui	a5,0xc000
20002d24:	00e785a3          	sb	a4,11(a5) # c00000b <__HEAP_SIZE+0xbffb00b>
vPortRaiseBASEPRI():
/jenkins/node-gerritverify/workspace/gerrit_review_verification/.workspace/bsp/arch/riscv/n309/os_portable/freertos/portmacro.h:172
20002d28:	0ff0000f          	fence
xQueueReceive():
/jenkins/node-gerritverify/workspace/gerrit_review_verification/.workspace/os/FreeRTOS/Kernel/queue.c:1331 (discriminator 2)
20002d2c:	a001                	j	20002d2c <xQueueReceive+0xd2>
/jenkins/node-gerritverify/workspace/gerrit_review_verification/.workspace/os/FreeRTOS/Kernel/queue.c:1336 (discriminator 2)
20002d2e:	47b2                	lw	a5,12(sp)
20002d30:	d7b9                	beqz	a5,20002c7e <xQueueReceive+0x24>
vPortRaiseBASEPRI():
/jenkins/node-gerritverify/workspace/gerrit_review_verification/.workspace/bsp/arch/riscv/n309/os_portable/freertos/portmacro.h:171
20002d32:	900007b7          	lui	a5,0x90000
20002d36:	0647c703          	lbu	a4,100(a5) # 90000064 <_sp+0xffff0064>
__ECLIC_SetMth():
/jenkins/node-gerritverify/workspace/gerrit_review_verification/.workspace/bsp/arch/riscv/n309/include/core_feature_eclic.h:340
20002d3a:	0c0007b7          	lui	a5,0xc000
20002d3e:	00e785a3          	sb	a4,11(a5) # c00000b <__HEAP_SIZE+0xbffb00b>
vPortRaiseBASEPRI():
/jenkins/node-gerritverify/workspace/gerrit_review_verification/.workspace/bsp/arch/riscv/n309/os_portable/freertos/portmacro.h:172
20002d42:	0ff0000f          	fence
xQueueReceive():
/jenkins/node-gerritverify/workspace/gerrit_review_verification/.workspace/os/FreeRTOS/Kernel/queue.c:1336 (discriminator 3)
20002d46:	a001                	j	20002d46 <xQueueReceive+0xec>
/jenkins/node-gerritverify/workspace/gerrit_review_verification/.workspace/os/FreeRTOS/Kernel/queue.c:1444
20002d48:	8522                	mv	a0,s0
20002d4a:	975ff0ef          	jal	ra,200026be <prvUnlockQueue>
/jenkins/node-gerritverify/workspace/gerrit_review_verification/.workspace/os/FreeRTOS/Kernel/queue.c:1445
20002d4e:	d65fe0ef          	jal	ra,20001ab2 <xTaskResumeAll>
prvIsQueueEmpty():
/jenkins/node-gerritverify/workspace/gerrit_review_verification/.workspace/os/FreeRTOS/Kernel/queue.c:2354
20002d52:	a2ffd0ef          	jal	ra,20000780 <vPortEnterCritical>
/jenkins/node-gerritverify/workspace/gerrit_review_verification/.workspace/os/FreeRTOS/Kernel/queue.c:2356
20002d56:	5c1c                	lw	a5,56(s0)
20002d58:	d3cd                	beqz	a5,20002cfa <xQueueReceive+0xa0>
/jenkins/node-gerritverify/workspace/gerrit_review_verification/.workspace/os/FreeRTOS/Kernel/queue.c:2365
20002d5a:	a6ffd0ef          	jal	ra,200007c8 <vPortExitCritical>
xQueueReceive():
/jenkins/node-gerritverify/workspace/gerrit_review_verification/.workspace/os/FreeRTOS/Kernel/queue.c:1345
20002d5e:	a23fd0ef          	jal	ra,20000780 <vPortEnterCritical>
/jenkins/node-gerritverify/workspace/gerrit_review_verification/.workspace/os/FreeRTOS/Kernel/queue.c:1347
20002d62:	5c04                	lw	s1,56(s0)
/jenkins/node-gerritverify/workspace/gerrit_review_verification/.workspace/os/FreeRTOS/Kernel/queue.c:1351
20002d64:	d8c9                	beqz	s1,20002cf6 <xQueueReceive+0x9c>
prvCopyDataFromQueue():
/jenkins/node-gerritverify/workspace/gerrit_review_verification/.workspace/os/FreeRTOS/Kernel/queue.c:2212
20002d66:	4030                	lw	a2,64(s0)
20002d68:	ce01                	beqz	a2,20002d80 <xQueueReceive+0x126>
/jenkins/node-gerritverify/workspace/gerrit_review_verification/.workspace/os/FreeRTOS/Kernel/queue.c:2214
20002d6a:	444c                	lw	a1,12(s0)
/jenkins/node-gerritverify/workspace/gerrit_review_verification/.workspace/os/FreeRTOS/Kernel/queue.c:2216
20002d6c:	441c                	lw	a5,8(s0)
/jenkins/node-gerritverify/workspace/gerrit_review_verification/.workspace/os/FreeRTOS/Kernel/queue.c:2214
20002d6e:	95b2                	add	a1,a1,a2
20002d70:	c44c                	sw	a1,12(s0)
/jenkins/node-gerritverify/workspace/gerrit_review_verification/.workspace/os/FreeRTOS/Kernel/queue.c:2216
20002d72:	00f5e463          	bltu	a1,a5,20002d7a <xQueueReceive+0x120>
/jenkins/node-gerritverify/workspace/gerrit_review_verification/.workspace/os/FreeRTOS/Kernel/queue.c:2218
20002d76:	400c                	lw	a1,0(s0)
20002d78:	c44c                	sw	a1,12(s0)
/jenkins/node-gerritverify/workspace/gerrit_review_verification/.workspace/os/FreeRTOS/Kernel/queue.c:2225
20002d7a:	854a                	mv	a0,s2
20002d7c:	04b000ef          	jal	ra,200035c6 <memcpy>
xQueueReceive():
/jenkins/node-gerritverify/workspace/gerrit_review_verification/.workspace/os/FreeRTOS/Kernel/queue.c:1356
20002d80:	14fd                	addi	s1,s1,-1
20002d82:	dc04                	sw	s1,56(s0)
/jenkins/node-gerritverify/workspace/gerrit_review_verification/.workspace/os/FreeRTOS/Kernel/queue.c:1361
20002d84:	481c                	lw	a5,16(s0)
20002d86:	efb9                	bnez	a5,20002de4 <xQueueReceive+0x18a>
/jenkins/node-gerritverify/workspace/gerrit_review_verification/.workspace/os/FreeRTOS/Kernel/queue.c:1377
20002d88:	a41fd0ef          	jal	ra,200007c8 <vPortExitCritical>
/jenkins/node-gerritverify/workspace/gerrit_review_verification/.workspace/os/FreeRTOS/Kernel/queue.c:1378
20002d8c:	4505                	li	a0,1
20002d8e:	bf8d                	j	20002d00 <xQueueReceive+0xa6>
prvIsQueueEmpty():
/jenkins/node-gerritverify/workspace/gerrit_review_verification/.workspace/os/FreeRTOS/Kernel/queue.c:2365
20002d90:	a39fd0ef          	jal	ra,200007c8 <vPortExitCritical>
xQueueReceive():
/jenkins/node-gerritverify/workspace/gerrit_review_verification/.workspace/os/FreeRTOS/Kernel/queue.c:1420
20002d94:	45b2                	lw	a1,12(sp)
20002d96:	8552                	mv	a0,s4
20002d98:	d95fe0ef          	jal	ra,20001b2c <vTaskPlaceOnEventList>
/jenkins/node-gerritverify/workspace/gerrit_review_verification/.workspace/os/FreeRTOS/Kernel/queue.c:1421
20002d9c:	8522                	mv	a0,s0
20002d9e:	921ff0ef          	jal	ra,200026be <prvUnlockQueue>
/jenkins/node-gerritverify/workspace/gerrit_review_verification/.workspace/os/FreeRTOS/Kernel/queue.c:1423
20002da2:	d11fe0ef          	jal	ra,20001ab2 <xTaskResumeAll>
20002da6:	fd45                	bnez	a0,20002d5e <xQueueReceive+0x104>
SysTimer_SetSWIRQ():
/jenkins/node-gerritverify/workspace/gerrit_review_verification/.workspace/bsp/arch/riscv/n309/include/core_feature_timer.h:293
20002da8:	f14027f3          	csrr	a5,mhartid
/jenkins/node-gerritverify/workspace/gerrit_review_verification/.workspace/bsp/arch/riscv/n309/include/core_feature_timer.h:294
20002dac:	e78d                	bnez	a5,20002dd6 <xQueueReceive+0x17c>
/jenkins/node-gerritverify/workspace/gerrit_review_verification/.workspace/bsp/arch/riscv/n309/include/core_feature_timer.h:295
20002dae:	ffcaa783          	lw	a5,-4(s5) # 2000ffc <__HEAP_SIZE+0x1ffbffc>
20002db2:	0017e793          	ori	a5,a5,1
20002db6:	fefaae23          	sw	a5,-4(s5)
xQueueReceive():
/jenkins/node-gerritverify/workspace/gerrit_review_verification/.workspace/os/FreeRTOS/Kernel/queue.c:1425
20002dba:	0ff0000f          	fence
/jenkins/node-gerritverify/workspace/gerrit_review_verification/.workspace/os/FreeRTOS/Kernel/queue.c:1345
20002dbe:	b745                	j	20002d5e <xQueueReceive+0x104>
vPortRaiseBASEPRI():
/jenkins/node-gerritverify/workspace/gerrit_review_verification/.workspace/bsp/arch/riscv/n309/os_portable/freertos/portmacro.h:171
20002dc0:	900007b7          	lui	a5,0x90000
20002dc4:	0647c703          	lbu	a4,100(a5) # 90000064 <_sp+0xffff0064>
__ECLIC_SetMth():
/jenkins/node-gerritverify/workspace/gerrit_review_verification/.workspace/bsp/arch/riscv/n309/include/core_feature_eclic.h:340
20002dc8:	0c0007b7          	lui	a5,0xc000
20002dcc:	00e785a3          	sb	a4,11(a5) # c00000b <__HEAP_SIZE+0xbffb00b>
vPortRaiseBASEPRI():
/jenkins/node-gerritverify/workspace/gerrit_review_verification/.workspace/bsp/arch/riscv/n309/os_portable/freertos/portmacro.h:172
20002dd0:	0ff0000f          	fence
xQueueReceive():
/jenkins/node-gerritverify/workspace/gerrit_review_verification/.workspace/os/FreeRTOS/Kernel/queue.c:1327 (discriminator 1)
20002dd4:	a001                	j	20002dd4 <xQueueReceive+0x17a>
SysTimer_SetSWIRQ():
/jenkins/node-gerritverify/workspace/gerrit_review_verification/.workspace/bsp/arch/riscv/n309/include/core_feature_timer.h:297
20002dd6:	078a                	slli	a5,a5,0x2
20002dd8:	97d6                	add	a5,a5,s5
__SW():
/jenkins/node-gerritverify/workspace/gerrit_review_verification/.workspace/bsp/arch/riscv/n309/include/core_feature_base.h:1460
20002dda:	0167a023          	sw	s6,0(a5)
xQueueReceive():
/jenkins/node-gerritverify/workspace/gerrit_review_verification/.workspace/os/FreeRTOS/Kernel/queue.c:1425
20002dde:	0ff0000f          	fence
/jenkins/node-gerritverify/workspace/gerrit_review_verification/.workspace/os/FreeRTOS/Kernel/queue.c:1345
20002de2:	bfb5                	j	20002d5e <xQueueReceive+0x104>
/jenkins/node-gerritverify/workspace/gerrit_review_verification/.workspace/os/FreeRTOS/Kernel/queue.c:1363
20002de4:	01040513          	addi	a0,s0,16
20002de8:	dc3fe0ef          	jal	ra,20001baa <xTaskRemoveFromEventList>
20002dec:	dd51                	beqz	a0,20002d88 <xQueueReceive+0x12e>
SysTimer_SetSWIRQ():
/jenkins/node-gerritverify/workspace/gerrit_review_verification/.workspace/bsp/arch/riscv/n309/include/core_feature_timer.h:293
20002dee:	f14027f3          	csrr	a5,mhartid
/jenkins/node-gerritverify/workspace/gerrit_review_verification/.workspace/bsp/arch/riscv/n309/include/core_feature_timer.h:294
20002df2:	ef81                	bnez	a5,20002e0a <xQueueReceive+0x1b0>
/jenkins/node-gerritverify/workspace/gerrit_review_verification/.workspace/bsp/arch/riscv/n309/include/core_feature_timer.h:295
20002df4:	02001737          	lui	a4,0x2001
20002df8:	ffc72783          	lw	a5,-4(a4) # 2000ffc <__HEAP_SIZE+0x1ffbffc>
20002dfc:	0017e793          	ori	a5,a5,1
20002e00:	fef72e23          	sw	a5,-4(a4)
xQueueReceive():
/jenkins/node-gerritverify/workspace/gerrit_review_verification/.workspace/os/FreeRTOS/Kernel/queue.c:1365
20002e04:	0ff0000f          	fence
20002e08:	b741                	j	20002d88 <xQueueReceive+0x12e>
SysTimer_SetSWIRQ():
/jenkins/node-gerritverify/workspace/gerrit_review_verification/.workspace/bsp/arch/riscv/n309/include/core_feature_timer.h:297
20002e0a:	02001737          	lui	a4,0x2001
20002e0e:	078a                	slli	a5,a5,0x2
20002e10:	97ba                	add	a5,a5,a4
__SW():
/jenkins/node-gerritverify/workspace/gerrit_review_verification/.workspace/bsp/arch/riscv/n309/include/core_feature_base.h:1460
20002e12:	4705                	li	a4,1
20002e14:	c398                	sw	a4,0(a5)
xQueueReceive():
/jenkins/node-gerritverify/workspace/gerrit_review_verification/.workspace/os/FreeRTOS/Kernel/queue.c:1365
20002e16:	0ff0000f          	fence
20002e1a:	b7bd                	j	20002d88 <xQueueReceive+0x12e>

20002e1c <vQueueWaitForMessageRestricted>:
vQueueWaitForMessageRestricted():
/jenkins/node-gerritverify/workspace/gerrit_review_verification/.workspace/os/FreeRTOS/Kernel/queue.c:2814
20002e1c:	1141                	addi	sp,sp,-16
20002e1e:	c422                	sw	s0,8(sp)
20002e20:	c226                	sw	s1,4(sp)
20002e22:	c04a                	sw	s2,0(sp)
20002e24:	842a                	mv	s0,a0
20002e26:	c606                	sw	ra,12(sp)
20002e28:	84ae                	mv	s1,a1
20002e2a:	8932                	mv	s2,a2
/jenkins/node-gerritverify/workspace/gerrit_review_verification/.workspace/os/FreeRTOS/Kernel/queue.c:2831
20002e2c:	955fd0ef          	jal	ra,20000780 <vPortEnterCritical>
20002e30:	04444783          	lbu	a5,68(s0)
20002e34:	577d                	li	a4,-1
20002e36:	07e2                	slli	a5,a5,0x18
20002e38:	87e1                	srai	a5,a5,0x18
20002e3a:	00e79463          	bne	a5,a4,20002e42 <vQueueWaitForMessageRestricted+0x26>
/jenkins/node-gerritverify/workspace/gerrit_review_verification/.workspace/os/FreeRTOS/Kernel/queue.c:2831 (discriminator 1)
20002e3e:	04040223          	sb	zero,68(s0)
/jenkins/node-gerritverify/workspace/gerrit_review_verification/.workspace/os/FreeRTOS/Kernel/queue.c:2831 (discriminator 3)
20002e42:	04544783          	lbu	a5,69(s0)
20002e46:	577d                	li	a4,-1
20002e48:	07e2                	slli	a5,a5,0x18
20002e4a:	87e1                	srai	a5,a5,0x18
20002e4c:	00e79463          	bne	a5,a4,20002e54 <vQueueWaitForMessageRestricted+0x38>
/jenkins/node-gerritverify/workspace/gerrit_review_verification/.workspace/os/FreeRTOS/Kernel/queue.c:2831 (discriminator 4)
20002e50:	040402a3          	sb	zero,69(s0)
/jenkins/node-gerritverify/workspace/gerrit_review_verification/.workspace/os/FreeRTOS/Kernel/queue.c:2831 (discriminator 6)
20002e54:	975fd0ef          	jal	ra,200007c8 <vPortExitCritical>
/jenkins/node-gerritverify/workspace/gerrit_review_verification/.workspace/os/FreeRTOS/Kernel/queue.c:2833 (discriminator 6)
20002e58:	5c1c                	lw	a5,56(s0)
20002e5a:	cb89                	beqz	a5,20002e6c <vQueueWaitForMessageRestricted+0x50>
/jenkins/node-gerritverify/workspace/gerrit_review_verification/.workspace/os/FreeRTOS/Kernel/queue.c:2843
20002e5c:	8522                	mv	a0,s0
/jenkins/node-gerritverify/workspace/gerrit_review_verification/.workspace/os/FreeRTOS/Kernel/queue.c:2844
20002e5e:	4422                	lw	s0,8(sp)
20002e60:	40b2                	lw	ra,12(sp)
20002e62:	4492                	lw	s1,4(sp)
20002e64:	4902                	lw	s2,0(sp)
20002e66:	0141                	addi	sp,sp,16
/jenkins/node-gerritverify/workspace/gerrit_review_verification/.workspace/os/FreeRTOS/Kernel/queue.c:2843
20002e68:	857ff06f          	j	200026be <prvUnlockQueue>
/jenkins/node-gerritverify/workspace/gerrit_review_verification/.workspace/os/FreeRTOS/Kernel/queue.c:2836
20002e6c:	02440513          	addi	a0,s0,36
20002e70:	864a                	mv	a2,s2
20002e72:	85a6                	mv	a1,s1
20002e74:	cf3fe0ef          	jal	ra,20001b66 <vTaskPlaceOnEventListRestricted>
/jenkins/node-gerritverify/workspace/gerrit_review_verification/.workspace/os/FreeRTOS/Kernel/queue.c:2843
20002e78:	8522                	mv	a0,s0
/jenkins/node-gerritverify/workspace/gerrit_review_verification/.workspace/os/FreeRTOS/Kernel/queue.c:2844
20002e7a:	4422                	lw	s0,8(sp)
20002e7c:	40b2                	lw	ra,12(sp)
20002e7e:	4492                	lw	s1,4(sp)
20002e80:	4902                	lw	s2,0(sp)
20002e82:	0141                	addi	sp,sp,16
/jenkins/node-gerritverify/workspace/gerrit_review_verification/.workspace/os/FreeRTOS/Kernel/queue.c:2843
20002e84:	83bff06f          	j	200026be <prvUnlockQueue>

20002e88 <__udivdi3>:
__udivdi3():
/Local/xl_ci/toolchain/riscv-gnu-toolchain/riscv-gcc/libgcc/libgcc2.c:1319
20002e88:	88aa                	mv	a7,a0
20002e8a:	87ae                	mv	a5,a1
__udivmoddi4():
/Local/xl_ci/toolchain/riscv-gnu-toolchain/riscv-gcc/libgcc/libgcc2.c:1024
20002e8c:	8832                	mv	a6,a2
/Local/xl_ci/toolchain/riscv-gnu-toolchain/riscv-gcc/libgcc/libgcc2.c:1025
20002e8e:	8536                	mv	a0,a3
/Local/xl_ci/toolchain/riscv-gnu-toolchain/riscv-gcc/libgcc/libgcc2.c:1026
20002e90:	8346                	mv	t1,a7
/Local/xl_ci/toolchain/riscv-gnu-toolchain/riscv-gcc/libgcc/libgcc2.c:1064
20002e92:	20069663          	bnez	a3,2000309e <__udivdi3+0x216>
/Local/xl_ci/toolchain/riscv-gnu-toolchain/riscv-gcc/libgcc/libgcc2.c:1066
20002e96:	00002697          	auipc	a3,0x2
20002e9a:	c9668693          	addi	a3,a3,-874 # 20004b2c <__clz_tab>
20002e9e:	0ac5ff63          	bgeu	a1,a2,20002f5c <__udivdi3+0xd4>
/Local/xl_ci/toolchain/riscv-gnu-toolchain/riscv-gcc/libgcc/libgcc2.c:1070
20002ea2:	6741                	lui	a4,0x10
20002ea4:	0ae67563          	bgeu	a2,a4,20002f4e <__udivdi3+0xc6>
20002ea8:	0ff00713          	li	a4,255
20002eac:	00c73733          	sltu	a4,a4,a2
20002eb0:	070e                	slli	a4,a4,0x3
20002eb2:	00e65533          	srl	a0,a2,a4
20002eb6:	96aa                	add	a3,a3,a0
20002eb8:	0006c683          	lbu	a3,0(a3)
20002ebc:	02000513          	li	a0,32
20002ec0:	9736                	add	a4,a4,a3
20002ec2:	40e506b3          	sub	a3,a0,a4
/Local/xl_ci/toolchain/riscv-gnu-toolchain/riscv-gcc/libgcc/libgcc2.c:1072
20002ec6:	00e50b63          	beq	a0,a4,20002edc <__udivdi3+0x54>
/Local/xl_ci/toolchain/riscv-gnu-toolchain/riscv-gcc/libgcc/libgcc2.c:1078
20002eca:	00d795b3          	sll	a1,a5,a3
20002ece:	00e8d733          	srl	a4,a7,a4
/Local/xl_ci/toolchain/riscv-gnu-toolchain/riscv-gcc/libgcc/libgcc2.c:1077
20002ed2:	00d61833          	sll	a6,a2,a3
/Local/xl_ci/toolchain/riscv-gnu-toolchain/riscv-gcc/libgcc/libgcc2.c:1078
20002ed6:	8dd9                	or	a1,a1,a4
/Local/xl_ci/toolchain/riscv-gnu-toolchain/riscv-gcc/libgcc/libgcc2.c:1079
20002ed8:	00d89333          	sll	t1,a7,a3
/Local/xl_ci/toolchain/riscv-gnu-toolchain/riscv-gcc/libgcc/libgcc2.c:1082
20002edc:	01085893          	srli	a7,a6,0x10
20002ee0:	0315d6b3          	divu	a3,a1,a7
20002ee4:	01081613          	slli	a2,a6,0x10
20002ee8:	8241                	srli	a2,a2,0x10
20002eea:	01035793          	srli	a5,t1,0x10
20002eee:	0315f733          	remu	a4,a1,a7
20002ef2:	8536                	mv	a0,a3
20002ef4:	02d605b3          	mul	a1,a2,a3
20002ef8:	0742                	slli	a4,a4,0x10
20002efa:	8fd9                	or	a5,a5,a4
20002efc:	00b7fc63          	bgeu	a5,a1,20002f14 <__udivdi3+0x8c>
20002f00:	97c2                	add	a5,a5,a6
20002f02:	fff68513          	addi	a0,a3,-1
20002f06:	0107e763          	bltu	a5,a6,20002f14 <__udivdi3+0x8c>
20002f0a:	00b7f563          	bgeu	a5,a1,20002f14 <__udivdi3+0x8c>
20002f0e:	ffe68513          	addi	a0,a3,-2
20002f12:	97c2                	add	a5,a5,a6
20002f14:	8f8d                	sub	a5,a5,a1
20002f16:	0317f733          	remu	a4,a5,a7
20002f1a:	0342                	slli	t1,t1,0x10
20002f1c:	01035313          	srli	t1,t1,0x10
20002f20:	0317d7b3          	divu	a5,a5,a7
20002f24:	0742                	slli	a4,a4,0x10
20002f26:	00676333          	or	t1,a4,t1
20002f2a:	02f606b3          	mul	a3,a2,a5
20002f2e:	863e                	mv	a2,a5
20002f30:	00d37b63          	bgeu	t1,a3,20002f46 <__udivdi3+0xbe>
20002f34:	9342                	add	t1,t1,a6
20002f36:	fff78613          	addi	a2,a5,-1
20002f3a:	01036663          	bltu	t1,a6,20002f46 <__udivdi3+0xbe>
20002f3e:	00d37463          	bgeu	t1,a3,20002f46 <__udivdi3+0xbe>
20002f42:	ffe78613          	addi	a2,a5,-2
20002f46:	0542                	slli	a0,a0,0x10
20002f48:	8d51                	or	a0,a0,a2
/Local/xl_ci/toolchain/riscv-gnu-toolchain/riscv-gcc/libgcc/libgcc2.c:1209
20002f4a:	4581                	li	a1,0
20002f4c:	a85d                	j	20003002 <__udivdi3+0x17a>
/Local/xl_ci/toolchain/riscv-gnu-toolchain/riscv-gcc/libgcc/libgcc2.c:1070
20002f4e:	01000537          	lui	a0,0x1000
20002f52:	4741                	li	a4,16
20002f54:	f4a66fe3          	bltu	a2,a0,20002eb2 <__udivdi3+0x2a>
20002f58:	4761                	li	a4,24
20002f5a:	bfa1                	j	20002eb2 <__udivdi3+0x2a>
/Local/xl_ci/toolchain/riscv-gnu-toolchain/riscv-gcc/libgcc/libgcc2.c:1091
20002f5c:	e601                	bnez	a2,20002f64 <__udivdi3+0xdc>
/Local/xl_ci/toolchain/riscv-gnu-toolchain/riscv-gcc/libgcc/libgcc2.c:1092
20002f5e:	4705                	li	a4,1
20002f60:	02c75833          	divu	a6,a4,a2
/Local/xl_ci/toolchain/riscv-gnu-toolchain/riscv-gcc/libgcc/libgcc2.c:1094
20002f64:	6741                	lui	a4,0x10
20002f66:	08e87f63          	bgeu	a6,a4,20003004 <__udivdi3+0x17c>
20002f6a:	0ff00713          	li	a4,255
20002f6e:	01077363          	bgeu	a4,a6,20002f74 <__udivdi3+0xec>
20002f72:	4521                	li	a0,8
20002f74:	00a85733          	srl	a4,a6,a0
20002f78:	96ba                	add	a3,a3,a4
20002f7a:	0006c703          	lbu	a4,0(a3)
20002f7e:	02000613          	li	a2,32
20002f82:	972a                	add	a4,a4,a0
20002f84:	40e606b3          	sub	a3,a2,a4
/Local/xl_ci/toolchain/riscv-gnu-toolchain/riscv-gcc/libgcc/libgcc2.c:1096
20002f88:	08e61563          	bne	a2,a4,20003012 <__udivdi3+0x18a>
/Local/xl_ci/toolchain/riscv-gnu-toolchain/riscv-gcc/libgcc/libgcc2.c:1105
20002f8c:	410787b3          	sub	a5,a5,a6
/Local/xl_ci/toolchain/riscv-gnu-toolchain/riscv-gcc/libgcc/libgcc2.c:1106
20002f90:	4585                	li	a1,1
/Local/xl_ci/toolchain/riscv-gnu-toolchain/riscv-gcc/libgcc/libgcc2.c:1124
20002f92:	01085893          	srli	a7,a6,0x10
20002f96:	01081613          	slli	a2,a6,0x10
20002f9a:	8241                	srli	a2,a2,0x10
20002f9c:	01035713          	srli	a4,t1,0x10
20002fa0:	0317f6b3          	remu	a3,a5,a7
20002fa4:	0317d7b3          	divu	a5,a5,a7
20002fa8:	06c2                	slli	a3,a3,0x10
20002faa:	8f55                	or	a4,a4,a3
20002fac:	02f60e33          	mul	t3,a2,a5
20002fb0:	853e                	mv	a0,a5
20002fb2:	01c77c63          	bgeu	a4,t3,20002fca <__udivdi3+0x142>
20002fb6:	9742                	add	a4,a4,a6
20002fb8:	fff78513          	addi	a0,a5,-1
20002fbc:	01076763          	bltu	a4,a6,20002fca <__udivdi3+0x142>
20002fc0:	01c77563          	bgeu	a4,t3,20002fca <__udivdi3+0x142>
20002fc4:	ffe78513          	addi	a0,a5,-2
20002fc8:	9742                	add	a4,a4,a6
20002fca:	41c70733          	sub	a4,a4,t3
20002fce:	031777b3          	remu	a5,a4,a7
20002fd2:	0342                	slli	t1,t1,0x10
20002fd4:	01035313          	srli	t1,t1,0x10
20002fd8:	03175733          	divu	a4,a4,a7
20002fdc:	07c2                	slli	a5,a5,0x10
20002fde:	0067e333          	or	t1,a5,t1
20002fe2:	02e606b3          	mul	a3,a2,a4
20002fe6:	863a                	mv	a2,a4
20002fe8:	00d37b63          	bgeu	t1,a3,20002ffe <__udivdi3+0x176>
20002fec:	9342                	add	t1,t1,a6
20002fee:	fff70613          	addi	a2,a4,-1 # ffff <__HEAP_SIZE+0xafff>
20002ff2:	01036663          	bltu	t1,a6,20002ffe <__udivdi3+0x176>
20002ff6:	00d37463          	bgeu	t1,a3,20002ffe <__udivdi3+0x176>
20002ffa:	ffe70613          	addi	a2,a4,-2
20002ffe:	0542                	slli	a0,a0,0x10
20003000:	8d51                	or	a0,a0,a2
__udivdi3():
/Local/xl_ci/toolchain/riscv-gnu-toolchain/riscv-gcc/libgcc/libgcc2.c:1321
20003002:	8082                	ret
__udivmoddi4():
/Local/xl_ci/toolchain/riscv-gnu-toolchain/riscv-gcc/libgcc/libgcc2.c:1094
20003004:	01000737          	lui	a4,0x1000
20003008:	4541                	li	a0,16
2000300a:	f6e865e3          	bltu	a6,a4,20002f74 <__udivdi3+0xec>
2000300e:	4561                	li	a0,24
20003010:	b795                	j	20002f74 <__udivdi3+0xec>
/Local/xl_ci/toolchain/riscv-gnu-toolchain/riscv-gcc/libgcc/libgcc2.c:1114
20003012:	00d81833          	sll	a6,a6,a3
/Local/xl_ci/toolchain/riscv-gnu-toolchain/riscv-gcc/libgcc/libgcc2.c:1115
20003016:	00e7d533          	srl	a0,a5,a4
/Local/xl_ci/toolchain/riscv-gnu-toolchain/riscv-gcc/libgcc/libgcc2.c:1117
2000301a:	00d89333          	sll	t1,a7,a3
/Local/xl_ci/toolchain/riscv-gnu-toolchain/riscv-gcc/libgcc/libgcc2.c:1116
2000301e:	00d797b3          	sll	a5,a5,a3
20003022:	00e8d733          	srl	a4,a7,a4
/Local/xl_ci/toolchain/riscv-gnu-toolchain/riscv-gcc/libgcc/libgcc2.c:1119
20003026:	01085893          	srli	a7,a6,0x10
/Local/xl_ci/toolchain/riscv-gnu-toolchain/riscv-gcc/libgcc/libgcc2.c:1116
2000302a:	00f76633          	or	a2,a4,a5
/Local/xl_ci/toolchain/riscv-gnu-toolchain/riscv-gcc/libgcc/libgcc2.c:1119
2000302e:	03157733          	remu	a4,a0,a7
20003032:	01081793          	slli	a5,a6,0x10
20003036:	83c1                	srli	a5,a5,0x10
20003038:	01065593          	srli	a1,a2,0x10
2000303c:	03155533          	divu	a0,a0,a7
20003040:	0742                	slli	a4,a4,0x10
20003042:	8f4d                	or	a4,a4,a1
20003044:	02a786b3          	mul	a3,a5,a0
20003048:	85aa                	mv	a1,a0
2000304a:	00d77c63          	bgeu	a4,a3,20003062 <__udivdi3+0x1da>
2000304e:	9742                	add	a4,a4,a6
20003050:	fff50593          	addi	a1,a0,-1 # ffffff <__HEAP_SIZE+0xffafff>
20003054:	01076763          	bltu	a4,a6,20003062 <__udivdi3+0x1da>
20003058:	00d77563          	bgeu	a4,a3,20003062 <__udivdi3+0x1da>
2000305c:	ffe50593          	addi	a1,a0,-2
20003060:	9742                	add	a4,a4,a6
20003062:	40d706b3          	sub	a3,a4,a3
20003066:	0316f733          	remu	a4,a3,a7
2000306a:	0642                	slli	a2,a2,0x10
2000306c:	8241                	srli	a2,a2,0x10
2000306e:	0316d6b3          	divu	a3,a3,a7
20003072:	0742                	slli	a4,a4,0x10
20003074:	02d78533          	mul	a0,a5,a3
20003078:	00c767b3          	or	a5,a4,a2
2000307c:	8736                	mv	a4,a3
2000307e:	00a7fc63          	bgeu	a5,a0,20003096 <__udivdi3+0x20e>
20003082:	97c2                	add	a5,a5,a6
20003084:	fff68713          	addi	a4,a3,-1
20003088:	0107e763          	bltu	a5,a6,20003096 <__udivdi3+0x20e>
2000308c:	00a7f563          	bgeu	a5,a0,20003096 <__udivdi3+0x20e>
20003090:	ffe68713          	addi	a4,a3,-2
20003094:	97c2                	add	a5,a5,a6
20003096:	05c2                	slli	a1,a1,0x10
20003098:	8f89                	sub	a5,a5,a0
2000309a:	8dd9                	or	a1,a1,a4
2000309c:	bddd                	j	20002f92 <__udivdi3+0x10a>
/Local/xl_ci/toolchain/riscv-gnu-toolchain/riscv-gcc/libgcc/libgcc2.c:1140
2000309e:	14d5e263          	bltu	a1,a3,200031e2 <__udivdi3+0x35a>
/Local/xl_ci/toolchain/riscv-gnu-toolchain/riscv-gcc/libgcc/libgcc2.c:1159
200030a2:	6741                	lui	a4,0x10
200030a4:	02e6ff63          	bgeu	a3,a4,200030e2 <__udivdi3+0x25a>
200030a8:	0ff00713          	li	a4,255
200030ac:	00d735b3          	sltu	a1,a4,a3
200030b0:	058e                	slli	a1,a1,0x3
200030b2:	00b6d533          	srl	a0,a3,a1
200030b6:	00002717          	auipc	a4,0x2
200030ba:	a7670713          	addi	a4,a4,-1418 # 20004b2c <__clz_tab>
200030be:	972a                	add	a4,a4,a0
200030c0:	00074703          	lbu	a4,0(a4)
200030c4:	02000513          	li	a0,32
200030c8:	972e                	add	a4,a4,a1
200030ca:	40e505b3          	sub	a1,a0,a4
/Local/xl_ci/toolchain/riscv-gnu-toolchain/riscv-gcc/libgcc/libgcc2.c:1160
200030ce:	02e51163          	bne	a0,a4,200030f0 <__udivdi3+0x268>
/Local/xl_ci/toolchain/riscv-gnu-toolchain/riscv-gcc/libgcc/libgcc2.c:1172
200030d2:	4505                	li	a0,1
/Local/xl_ci/toolchain/riscv-gnu-toolchain/riscv-gcc/libgcc/libgcc2.c:1170
200030d4:	f2f6e7e3          	bltu	a3,a5,20003002 <__udivdi3+0x17a>
200030d8:	00c8b533          	sltu	a0,a7,a2
200030dc:	00154513          	xori	a0,a0,1
200030e0:	b70d                	j	20003002 <__udivdi3+0x17a>
/Local/xl_ci/toolchain/riscv-gnu-toolchain/riscv-gcc/libgcc/libgcc2.c:1159
200030e2:	01000737          	lui	a4,0x1000
200030e6:	45c1                	li	a1,16
200030e8:	fce6e5e3          	bltu	a3,a4,200030b2 <__udivdi3+0x22a>
200030ec:	45e1                	li	a1,24
200030ee:	b7d1                	j	200030b2 <__udivdi3+0x22a>
/Local/xl_ci/toolchain/riscv-gnu-toolchain/riscv-gcc/libgcc/libgcc2.c:1194
200030f0:	00e65833          	srl	a6,a2,a4
200030f4:	00b696b3          	sll	a3,a3,a1
200030f8:	00d86833          	or	a6,a6,a3
/Local/xl_ci/toolchain/riscv-gnu-toolchain/riscv-gcc/libgcc/libgcc2.c:1196
200030fc:	00e7d333          	srl	t1,a5,a4
/Local/xl_ci/toolchain/riscv-gnu-toolchain/riscv-gcc/libgcc/libgcc2.c:1200
20003100:	01085e93          	srli	t4,a6,0x10
20003104:	03d376b3          	remu	a3,t1,t4
/Local/xl_ci/toolchain/riscv-gnu-toolchain/riscv-gcc/libgcc/libgcc2.c:1197
20003108:	00b797b3          	sll	a5,a5,a1
2000310c:	00e8d733          	srl	a4,a7,a4
/Local/xl_ci/toolchain/riscv-gnu-toolchain/riscv-gcc/libgcc/libgcc2.c:1195
20003110:	00b61e33          	sll	t3,a2,a1
/Local/xl_ci/toolchain/riscv-gnu-toolchain/riscv-gcc/libgcc/libgcc2.c:1197
20003114:	00f76633          	or	a2,a4,a5
/Local/xl_ci/toolchain/riscv-gnu-toolchain/riscv-gcc/libgcc/libgcc2.c:1200
20003118:	01081793          	slli	a5,a6,0x10
2000311c:	83c1                	srli	a5,a5,0x10
2000311e:	01065713          	srli	a4,a2,0x10
20003122:	03d35333          	divu	t1,t1,t4
20003126:	06c2                	slli	a3,a3,0x10
20003128:	8f55                	or	a4,a4,a3
2000312a:	02678f33          	mul	t5,a5,t1
2000312e:	851a                	mv	a0,t1
20003130:	01e77c63          	bgeu	a4,t5,20003148 <__udivdi3+0x2c0>
20003134:	9742                	add	a4,a4,a6
20003136:	fff30513          	addi	a0,t1,-1
2000313a:	01076763          	bltu	a4,a6,20003148 <__udivdi3+0x2c0>
2000313e:	01e77563          	bgeu	a4,t5,20003148 <__udivdi3+0x2c0>
20003142:	ffe30513          	addi	a0,t1,-2
20003146:	9742                	add	a4,a4,a6
20003148:	41e70733          	sub	a4,a4,t5
2000314c:	03d776b3          	remu	a3,a4,t4
20003150:	03d75733          	divu	a4,a4,t4
20003154:	06c2                	slli	a3,a3,0x10
20003156:	02e78333          	mul	t1,a5,a4
2000315a:	01061793          	slli	a5,a2,0x10
2000315e:	83c1                	srli	a5,a5,0x10
20003160:	8fd5                	or	a5,a5,a3
20003162:	863a                	mv	a2,a4
20003164:	0067fc63          	bgeu	a5,t1,2000317c <__udivdi3+0x2f4>
20003168:	97c2                	add	a5,a5,a6
2000316a:	fff70613          	addi	a2,a4,-1 # ffffff <__HEAP_SIZE+0xffafff>
2000316e:	0107e763          	bltu	a5,a6,2000317c <__udivdi3+0x2f4>
20003172:	0067f563          	bgeu	a5,t1,2000317c <__udivdi3+0x2f4>
20003176:	ffe70613          	addi	a2,a4,-2
2000317a:	97c2                	add	a5,a5,a6
2000317c:	0542                	slli	a0,a0,0x10
/Local/xl_ci/toolchain/riscv-gnu-toolchain/riscv-gcc/libgcc/libgcc2.c:1201
2000317e:	6ec1                	lui	t4,0x10
/Local/xl_ci/toolchain/riscv-gnu-toolchain/riscv-gcc/libgcc/libgcc2.c:1200
20003180:	8d51                	or	a0,a0,a2
/Local/xl_ci/toolchain/riscv-gnu-toolchain/riscv-gcc/libgcc/libgcc2.c:1201
20003182:	fffe8693          	addi	a3,t4,-1 # ffff <__HEAP_SIZE+0xafff>
20003186:	010e5613          	srli	a2,t3,0x10
2000318a:	01055813          	srli	a6,a0,0x10
/Local/xl_ci/toolchain/riscv-gnu-toolchain/riscv-gcc/libgcc/libgcc2.c:1200
2000318e:	406787b3          	sub	a5,a5,t1
/Local/xl_ci/toolchain/riscv-gnu-toolchain/riscv-gcc/libgcc/libgcc2.c:1201
20003192:	00d57333          	and	t1,a0,a3
20003196:	00de76b3          	and	a3,t3,a3
2000319a:	02d30e33          	mul	t3,t1,a3
2000319e:	02d806b3          	mul	a3,a6,a3
200031a2:	010e5713          	srli	a4,t3,0x10
200031a6:	02c30333          	mul	t1,t1,a2
200031aa:	9336                	add	t1,t1,a3
200031ac:	971a                	add	a4,a4,t1
200031ae:	02c80833          	mul	a6,a6,a2
200031b2:	00d77363          	bgeu	a4,a3,200031b8 <__udivdi3+0x330>
200031b6:	9876                	add	a6,a6,t4
200031b8:	01075693          	srli	a3,a4,0x10
200031bc:	9836                	add	a6,a6,a3
/Local/xl_ci/toolchain/riscv-gnu-toolchain/riscv-gcc/libgcc/libgcc2.c:1203
200031be:	0307e063          	bltu	a5,a6,200031de <__udivdi3+0x356>
200031c2:	d90794e3          	bne	a5,a6,20002f4a <__udivdi3+0xc2>
/Local/xl_ci/toolchain/riscv-gnu-toolchain/riscv-gcc/libgcc/libgcc2.c:1201
200031c6:	67c1                	lui	a5,0x10
200031c8:	17fd                	addi	a5,a5,-1
200031ca:	8f7d                	and	a4,a4,a5
200031cc:	0742                	slli	a4,a4,0x10
200031ce:	00fe7e33          	and	t3,t3,a5
/Local/xl_ci/toolchain/riscv-gnu-toolchain/riscv-gcc/libgcc/libgcc2.c:1198
200031d2:	00b898b3          	sll	a7,a7,a1
/Local/xl_ci/toolchain/riscv-gnu-toolchain/riscv-gcc/libgcc/libgcc2.c:1201
200031d6:	9772                	add	a4,a4,t3
/Local/xl_ci/toolchain/riscv-gnu-toolchain/riscv-gcc/libgcc/libgcc2.c:1209
200031d8:	4581                	li	a1,0
/Local/xl_ci/toolchain/riscv-gnu-toolchain/riscv-gcc/libgcc/libgcc2.c:1203
200031da:	e2e8f4e3          	bgeu	a7,a4,20003002 <__udivdi3+0x17a>
/Local/xl_ci/toolchain/riscv-gnu-toolchain/riscv-gcc/libgcc/libgcc2.c:1205
200031de:	157d                	addi	a0,a0,-1
__udivdi3():
/Local/xl_ci/toolchain/riscv-gnu-toolchain/riscv-gcc/libgcc/libgcc2.c:1206
200031e0:	b3ad                	j	20002f4a <__udivdi3+0xc2>
__udivmoddi4():
/Local/xl_ci/toolchain/riscv-gnu-toolchain/riscv-gcc/libgcc/libgcc2.c:1145
200031e2:	4581                	li	a1,0
/Local/xl_ci/toolchain/riscv-gnu-toolchain/riscv-gcc/libgcc/libgcc2.c:1144
200031e4:	4501                	li	a0,0
200031e6:	bd31                	j	20003002 <__udivdi3+0x17a>

200031e8 <__umoddi3>:
__umoddi3():
/Local/xl_ci/toolchain/riscv-gnu-toolchain/riscv-gcc/libgcc/libgcc2.c:1307
200031e8:	832a                	mv	t1,a0
__udivmoddi4():
/Local/xl_ci/toolchain/riscv-gnu-toolchain/riscv-gcc/libgcc/libgcc2.c:1024
200031ea:	8832                	mv	a6,a2
/Local/xl_ci/toolchain/riscv-gnu-toolchain/riscv-gcc/libgcc/libgcc2.c:1025
200031ec:	87b6                	mv	a5,a3
/Local/xl_ci/toolchain/riscv-gnu-toolchain/riscv-gcc/libgcc/libgcc2.c:1027
200031ee:	872e                	mv	a4,a1
/Local/xl_ci/toolchain/riscv-gnu-toolchain/riscv-gcc/libgcc/libgcc2.c:1064
200031f0:	1c069563          	bnez	a3,200033ba <__umoddi3+0x1d2>
/Local/xl_ci/toolchain/riscv-gnu-toolchain/riscv-gcc/libgcc/libgcc2.c:1066
200031f4:	00002697          	auipc	a3,0x2
200031f8:	93868693          	addi	a3,a3,-1736 # 20004b2c <__clz_tab>
200031fc:	0ac5f663          	bgeu	a1,a2,200032a8 <__umoddi3+0xc0>
/Local/xl_ci/toolchain/riscv-gnu-toolchain/riscv-gcc/libgcc/libgcc2.c:1070
20003200:	68c1                	lui	a7,0x10
20003202:	09167c63          	bgeu	a2,a7,2000329a <__umoddi3+0xb2>
20003206:	0ff00893          	li	a7,255
2000320a:	00c8f363          	bgeu	a7,a2,20003210 <__umoddi3+0x28>
2000320e:	47a1                	li	a5,8
20003210:	00f658b3          	srl	a7,a2,a5
20003214:	96c6                	add	a3,a3,a7
20003216:	0006c683          	lbu	a3,0(a3)
2000321a:	97b6                	add	a5,a5,a3
2000321c:	02000693          	li	a3,32
20003220:	40f688b3          	sub	a7,a3,a5
/Local/xl_ci/toolchain/riscv-gnu-toolchain/riscv-gcc/libgcc/libgcc2.c:1072
20003224:	00f68c63          	beq	a3,a5,2000323c <__umoddi3+0x54>
/Local/xl_ci/toolchain/riscv-gnu-toolchain/riscv-gcc/libgcc/libgcc2.c:1078
20003228:	011595b3          	sll	a1,a1,a7
2000322c:	00f357b3          	srl	a5,t1,a5
/Local/xl_ci/toolchain/riscv-gnu-toolchain/riscv-gcc/libgcc/libgcc2.c:1077
20003230:	01161833          	sll	a6,a2,a7
/Local/xl_ci/toolchain/riscv-gnu-toolchain/riscv-gcc/libgcc/libgcc2.c:1078
20003234:	00b7e733          	or	a4,a5,a1
/Local/xl_ci/toolchain/riscv-gnu-toolchain/riscv-gcc/libgcc/libgcc2.c:1079
20003238:	01131533          	sll	a0,t1,a7
/Local/xl_ci/toolchain/riscv-gnu-toolchain/riscv-gcc/libgcc/libgcc2.c:1082
2000323c:	01085593          	srli	a1,a6,0x10
20003240:	02b777b3          	remu	a5,a4,a1
20003244:	01081613          	slli	a2,a6,0x10
20003248:	8241                	srli	a2,a2,0x10
2000324a:	01055693          	srli	a3,a0,0x10
2000324e:	02b75733          	divu	a4,a4,a1
20003252:	07c2                	slli	a5,a5,0x10
20003254:	8edd                	or	a3,a3,a5
20003256:	02e60733          	mul	a4,a2,a4
2000325a:	00e6f863          	bgeu	a3,a4,2000326a <__umoddi3+0x82>
2000325e:	96c2                	add	a3,a3,a6
20003260:	0106e563          	bltu	a3,a6,2000326a <__umoddi3+0x82>
20003264:	00e6f363          	bgeu	a3,a4,2000326a <__umoddi3+0x82>
20003268:	96c2                	add	a3,a3,a6
2000326a:	8e99                	sub	a3,a3,a4
2000326c:	02b6f7b3          	remu	a5,a3,a1
20003270:	0542                	slli	a0,a0,0x10
20003272:	8141                	srli	a0,a0,0x10
20003274:	02b6d6b3          	divu	a3,a3,a1
20003278:	07c2                	slli	a5,a5,0x10
2000327a:	8d5d                	or	a0,a0,a5
2000327c:	02d606b3          	mul	a3,a2,a3
20003280:	00d57863          	bgeu	a0,a3,20003290 <__umoddi3+0xa8>
20003284:	9542                	add	a0,a0,a6
20003286:	01056563          	bltu	a0,a6,20003290 <__umoddi3+0xa8>
2000328a:	00d57363          	bgeu	a0,a3,20003290 <__umoddi3+0xa8>
2000328e:	9542                	add	a0,a0,a6
20003290:	8d15                	sub	a0,a0,a3
/Local/xl_ci/toolchain/riscv-gnu-toolchain/riscv-gcc/libgcc/libgcc2.c:1131
20003292:	01155533          	srl	a0,a0,a7
/Local/xl_ci/toolchain/riscv-gnu-toolchain/riscv-gcc/libgcc/libgcc2.c:1133
20003296:	4581                	li	a1,0
__umoddi3():
/Local/xl_ci/toolchain/riscv-gnu-toolchain/riscv-gcc/libgcc/libgcc2.c:1313
20003298:	8082                	ret
__udivmoddi4():
/Local/xl_ci/toolchain/riscv-gnu-toolchain/riscv-gcc/libgcc/libgcc2.c:1070
2000329a:	010008b7          	lui	a7,0x1000
2000329e:	47c1                	li	a5,16
200032a0:	f71668e3          	bltu	a2,a7,20003210 <__umoddi3+0x28>
200032a4:	47e1                	li	a5,24
200032a6:	b7ad                	j	20003210 <__umoddi3+0x28>
/Local/xl_ci/toolchain/riscv-gnu-toolchain/riscv-gcc/libgcc/libgcc2.c:1091
200032a8:	e601                	bnez	a2,200032b0 <__umoddi3+0xc8>
/Local/xl_ci/toolchain/riscv-gnu-toolchain/riscv-gcc/libgcc/libgcc2.c:1092
200032aa:	4705                	li	a4,1
200032ac:	02c75833          	divu	a6,a4,a2
/Local/xl_ci/toolchain/riscv-gnu-toolchain/riscv-gcc/libgcc/libgcc2.c:1094
200032b0:	6741                	lui	a4,0x10
200032b2:	08e87363          	bgeu	a6,a4,20003338 <__umoddi3+0x150>
200032b6:	0ff00713          	li	a4,255
200032ba:	01077363          	bgeu	a4,a6,200032c0 <__umoddi3+0xd8>
200032be:	47a1                	li	a5,8
200032c0:	00f85733          	srl	a4,a6,a5
200032c4:	96ba                	add	a3,a3,a4
200032c6:	0006c603          	lbu	a2,0(a3)
200032ca:	963e                	add	a2,a2,a5
200032cc:	02000793          	li	a5,32
200032d0:	40c788b3          	sub	a7,a5,a2
/Local/xl_ci/toolchain/riscv-gnu-toolchain/riscv-gcc/libgcc/libgcc2.c:1096
200032d4:	06c79963          	bne	a5,a2,20003346 <__umoddi3+0x15e>
/Local/xl_ci/toolchain/riscv-gnu-toolchain/riscv-gcc/libgcc/libgcc2.c:1105
200032d8:	410585b3          	sub	a1,a1,a6
/Local/xl_ci/toolchain/riscv-gnu-toolchain/riscv-gcc/libgcc/libgcc2.c:1124
200032dc:	01085693          	srli	a3,a6,0x10
200032e0:	01081793          	slli	a5,a6,0x10
200032e4:	83c1                	srli	a5,a5,0x10
200032e6:	01055613          	srli	a2,a0,0x10
200032ea:	02d5f733          	remu	a4,a1,a3
200032ee:	02d5d5b3          	divu	a1,a1,a3
200032f2:	0742                	slli	a4,a4,0x10
200032f4:	8f51                	or	a4,a4,a2
200032f6:	02b785b3          	mul	a1,a5,a1
200032fa:	00b77863          	bgeu	a4,a1,2000330a <__umoddi3+0x122>
200032fe:	9742                	add	a4,a4,a6
20003300:	01076563          	bltu	a4,a6,2000330a <__umoddi3+0x122>
20003304:	00b77363          	bgeu	a4,a1,2000330a <__umoddi3+0x122>
20003308:	9742                	add	a4,a4,a6
2000330a:	40b705b3          	sub	a1,a4,a1
2000330e:	02d5f733          	remu	a4,a1,a3
20003312:	0542                	slli	a0,a0,0x10
20003314:	8141                	srli	a0,a0,0x10
20003316:	02d5d5b3          	divu	a1,a1,a3
2000331a:	02b785b3          	mul	a1,a5,a1
2000331e:	01071793          	slli	a5,a4,0x10
20003322:	8d5d                	or	a0,a0,a5
20003324:	00b57863          	bgeu	a0,a1,20003334 <__umoddi3+0x14c>
20003328:	9542                	add	a0,a0,a6
2000332a:	01056563          	bltu	a0,a6,20003334 <__umoddi3+0x14c>
2000332e:	00b57363          	bgeu	a0,a1,20003334 <__umoddi3+0x14c>
20003332:	9542                	add	a0,a0,a6
20003334:	8d0d                	sub	a0,a0,a1
20003336:	bfb1                	j	20003292 <__umoddi3+0xaa>
/Local/xl_ci/toolchain/riscv-gnu-toolchain/riscv-gcc/libgcc/libgcc2.c:1094
20003338:	01000737          	lui	a4,0x1000
2000333c:	47c1                	li	a5,16
2000333e:	f8e861e3          	bltu	a6,a4,200032c0 <__umoddi3+0xd8>
20003342:	47e1                	li	a5,24
20003344:	bfb5                	j	200032c0 <__umoddi3+0xd8>
/Local/xl_ci/toolchain/riscv-gnu-toolchain/riscv-gcc/libgcc/libgcc2.c:1114
20003346:	01181833          	sll	a6,a6,a7
/Local/xl_ci/toolchain/riscv-gnu-toolchain/riscv-gcc/libgcc/libgcc2.c:1115
2000334a:	00c5d6b3          	srl	a3,a1,a2
/Local/xl_ci/toolchain/riscv-gnu-toolchain/riscv-gcc/libgcc/libgcc2.c:1119
2000334e:	01085793          	srli	a5,a6,0x10
20003352:	02f6f733          	remu	a4,a3,a5
/Local/xl_ci/toolchain/riscv-gnu-toolchain/riscv-gcc/libgcc/libgcc2.c:1116
20003356:	011595b3          	sll	a1,a1,a7
2000335a:	00c35633          	srl	a2,t1,a2
2000335e:	8e4d                	or	a2,a2,a1
/Local/xl_ci/toolchain/riscv-gnu-toolchain/riscv-gcc/libgcc/libgcc2.c:1119
20003360:	01081593          	slli	a1,a6,0x10
20003364:	81c1                	srli	a1,a1,0x10
/Local/xl_ci/toolchain/riscv-gnu-toolchain/riscv-gcc/libgcc/libgcc2.c:1117
20003366:	01131533          	sll	a0,t1,a7
/Local/xl_ci/toolchain/riscv-gnu-toolchain/riscv-gcc/libgcc/libgcc2.c:1119
2000336a:	01065313          	srli	t1,a2,0x10
2000336e:	02f6d6b3          	divu	a3,a3,a5
20003372:	0742                	slli	a4,a4,0x10
20003374:	00676733          	or	a4,a4,t1
20003378:	02d586b3          	mul	a3,a1,a3
2000337c:	00d77863          	bgeu	a4,a3,2000338c <__umoddi3+0x1a4>
20003380:	9742                	add	a4,a4,a6
20003382:	01076563          	bltu	a4,a6,2000338c <__umoddi3+0x1a4>
20003386:	00d77363          	bgeu	a4,a3,2000338c <__umoddi3+0x1a4>
2000338a:	9742                	add	a4,a4,a6
2000338c:	40d706b3          	sub	a3,a4,a3
20003390:	02f6f733          	remu	a4,a3,a5
20003394:	0642                	slli	a2,a2,0x10
20003396:	8241                	srli	a2,a2,0x10
20003398:	02f6d6b3          	divu	a3,a3,a5
2000339c:	0742                	slli	a4,a4,0x10
2000339e:	02d586b3          	mul	a3,a1,a3
200033a2:	00c765b3          	or	a1,a4,a2
200033a6:	00d5f863          	bgeu	a1,a3,200033b6 <__umoddi3+0x1ce>
200033aa:	95c2                	add	a1,a1,a6
200033ac:	0105e563          	bltu	a1,a6,200033b6 <__umoddi3+0x1ce>
200033b0:	00d5f363          	bgeu	a1,a3,200033b6 <__umoddi3+0x1ce>
200033b4:	95c2                	add	a1,a1,a6
200033b6:	8d95                	sub	a1,a1,a3
200033b8:	b715                	j	200032dc <__umoddi3+0xf4>
/Local/xl_ci/toolchain/riscv-gnu-toolchain/riscv-gcc/libgcc/libgcc2.c:1140
200033ba:	ecd5efe3          	bltu	a1,a3,20003298 <__umoddi3+0xb0>
/Local/xl_ci/toolchain/riscv-gnu-toolchain/riscv-gcc/libgcc/libgcc2.c:1159
200033be:	67c1                	lui	a5,0x10
200033c0:	04f6f463          	bgeu	a3,a5,20003408 <__umoddi3+0x220>
200033c4:	0ff00893          	li	a7,255
200033c8:	00d8b7b3          	sltu	a5,a7,a3
200033cc:	078e                	slli	a5,a5,0x3
200033ce:	00f6d8b3          	srl	a7,a3,a5
200033d2:	00001817          	auipc	a6,0x1
200033d6:	75a80813          	addi	a6,a6,1882 # 20004b2c <__clz_tab>
200033da:	9846                	add	a6,a6,a7
200033dc:	00084883          	lbu	a7,0(a6)
200033e0:	98be                	add	a7,a7,a5
200033e2:	02000793          	li	a5,32
200033e6:	41178833          	sub	a6,a5,a7
/Local/xl_ci/toolchain/riscv-gnu-toolchain/riscv-gcc/libgcc/libgcc2.c:1160
200033ea:	03179663          	bne	a5,a7,20003416 <__umoddi3+0x22e>
/Local/xl_ci/toolchain/riscv-gnu-toolchain/riscv-gcc/libgcc/libgcc2.c:1170
200033ee:	00b6e463          	bltu	a3,a1,200033f6 <__umoddi3+0x20e>
200033f2:	00c36963          	bltu	t1,a2,20003404 <__umoddi3+0x21c>
/Local/xl_ci/toolchain/riscv-gnu-toolchain/riscv-gcc/libgcc/libgcc2.c:1173
200033f6:	40c30533          	sub	a0,t1,a2
200033fa:	8d95                	sub	a1,a1,a3
200033fc:	00a33733          	sltu	a4,t1,a0
20003400:	40e58733          	sub	a4,a1,a4
/Local/xl_ci/toolchain/riscv-gnu-toolchain/riscv-gcc/libgcc/libgcc2.c:1184
20003404:	85ba                	mv	a1,a4
20003406:	bd49                	j	20003298 <__umoddi3+0xb0>
/Local/xl_ci/toolchain/riscv-gnu-toolchain/riscv-gcc/libgcc/libgcc2.c:1159
20003408:	01000837          	lui	a6,0x1000
2000340c:	47c1                	li	a5,16
2000340e:	fd06e0e3          	bltu	a3,a6,200033ce <__umoddi3+0x1e6>
20003412:	47e1                	li	a5,24
20003414:	bf6d                	j	200033ce <__umoddi3+0x1e6>
/Local/xl_ci/toolchain/riscv-gnu-toolchain/riscv-gcc/libgcc/libgcc2.c:1194
20003416:	011657b3          	srl	a5,a2,a7
2000341a:	010696b3          	sll	a3,a3,a6
2000341e:	00d7ee33          	or	t3,a5,a3
/Local/xl_ci/toolchain/riscv-gnu-toolchain/riscv-gcc/libgcc/libgcc2.c:1196
20003422:	0115d733          	srl	a4,a1,a7
/Local/xl_ci/toolchain/riscv-gnu-toolchain/riscv-gcc/libgcc/libgcc2.c:1200
20003426:	010e5f13          	srli	t5,t3,0x10
/Local/xl_ci/toolchain/riscv-gnu-toolchain/riscv-gcc/libgcc/libgcc2.c:1195
2000342a:	01061eb3          	sll	t4,a2,a6
/Local/xl_ci/toolchain/riscv-gnu-toolchain/riscv-gcc/libgcc/libgcc2.c:1200
2000342e:	03e77633          	remu	a2,a4,t5
/Local/xl_ci/toolchain/riscv-gnu-toolchain/riscv-gcc/libgcc/libgcc2.c:1197
20003432:	010595b3          	sll	a1,a1,a6
20003436:	011357b3          	srl	a5,t1,a7
2000343a:	8fcd                	or	a5,a5,a1
/Local/xl_ci/toolchain/riscv-gnu-toolchain/riscv-gcc/libgcc/libgcc2.c:1200
2000343c:	010e1593          	slli	a1,t3,0x10
20003440:	81c1                	srli	a1,a1,0x10
/Local/xl_ci/toolchain/riscv-gnu-toolchain/riscv-gcc/libgcc/libgcc2.c:1198
20003442:	01031533          	sll	a0,t1,a6
/Local/xl_ci/toolchain/riscv-gnu-toolchain/riscv-gcc/libgcc/libgcc2.c:1200
20003446:	0107d693          	srli	a3,a5,0x10
2000344a:	03e75733          	divu	a4,a4,t5
2000344e:	0642                	slli	a2,a2,0x10
20003450:	8ed1                	or	a3,a3,a2
20003452:	02e58333          	mul	t1,a1,a4
20003456:	863a                	mv	a2,a4
20003458:	0066fc63          	bgeu	a3,t1,20003470 <__umoddi3+0x288>
2000345c:	96f2                	add	a3,a3,t3
2000345e:	fff70613          	addi	a2,a4,-1 # ffffff <__HEAP_SIZE+0xffafff>
20003462:	01c6e763          	bltu	a3,t3,20003470 <__umoddi3+0x288>
20003466:	0066f563          	bgeu	a3,t1,20003470 <__umoddi3+0x288>
2000346a:	ffe70613          	addi	a2,a4,-2
2000346e:	96f2                	add	a3,a3,t3
20003470:	406686b3          	sub	a3,a3,t1
20003474:	03e6f333          	remu	t1,a3,t5
20003478:	03e6d6b3          	divu	a3,a3,t5
2000347c:	0342                	slli	t1,t1,0x10
2000347e:	02d58733          	mul	a4,a1,a3
20003482:	01079593          	slli	a1,a5,0x10
20003486:	81c1                	srli	a1,a1,0x10
20003488:	00b365b3          	or	a1,t1,a1
2000348c:	87b6                	mv	a5,a3
2000348e:	00e5fc63          	bgeu	a1,a4,200034a6 <__umoddi3+0x2be>
20003492:	95f2                	add	a1,a1,t3
20003494:	fff68793          	addi	a5,a3,-1
20003498:	01c5e763          	bltu	a1,t3,200034a6 <__umoddi3+0x2be>
2000349c:	00e5f563          	bgeu	a1,a4,200034a6 <__umoddi3+0x2be>
200034a0:	ffe68793          	addi	a5,a3,-2
200034a4:	95f2                	add	a1,a1,t3
200034a6:	0642                	slli	a2,a2,0x10
/Local/xl_ci/toolchain/riscv-gnu-toolchain/riscv-gcc/libgcc/libgcc2.c:1201
200034a8:	6f41                	lui	t5,0x10
/Local/xl_ci/toolchain/riscv-gnu-toolchain/riscv-gcc/libgcc/libgcc2.c:1200
200034aa:	8e5d                	or	a2,a2,a5
/Local/xl_ci/toolchain/riscv-gnu-toolchain/riscv-gcc/libgcc/libgcc2.c:1201
200034ac:	ffff0693          	addi	a3,t5,-1 # ffff <__HEAP_SIZE+0xafff>
200034b0:	00d67333          	and	t1,a2,a3
/Local/xl_ci/toolchain/riscv-gnu-toolchain/riscv-gcc/libgcc/libgcc2.c:1200
200034b4:	8d99                	sub	a1,a1,a4
/Local/xl_ci/toolchain/riscv-gnu-toolchain/riscv-gcc/libgcc/libgcc2.c:1201
200034b6:	8241                	srli	a2,a2,0x10
200034b8:	010ed713          	srli	a4,t4,0x10
200034bc:	00def6b3          	and	a3,t4,a3
200034c0:	02d307b3          	mul	a5,t1,a3
200034c4:	02d606b3          	mul	a3,a2,a3
200034c8:	02e30333          	mul	t1,t1,a4
200034cc:	02e60633          	mul	a2,a2,a4
200034d0:	9336                	add	t1,t1,a3
200034d2:	0107d713          	srli	a4,a5,0x10
200034d6:	971a                	add	a4,a4,t1
200034d8:	00d77363          	bgeu	a4,a3,200034de <__umoddi3+0x2f6>
200034dc:	967a                	add	a2,a2,t5
200034de:	01075693          	srli	a3,a4,0x10
200034e2:	96b2                	add	a3,a3,a2
200034e4:	6641                	lui	a2,0x10
200034e6:	167d                	addi	a2,a2,-1
200034e8:	8f71                	and	a4,a4,a2
200034ea:	0742                	slli	a4,a4,0x10
200034ec:	8ff1                	and	a5,a5,a2
200034ee:	97ba                	add	a5,a5,a4
/Local/xl_ci/toolchain/riscv-gnu-toolchain/riscv-gcc/libgcc/libgcc2.c:1203
200034f0:	00d5e663          	bltu	a1,a3,200034fc <__umoddi3+0x314>
200034f4:	00d59b63          	bne	a1,a3,2000350a <__umoddi3+0x322>
200034f8:	00f57963          	bgeu	a0,a5,2000350a <__umoddi3+0x322>
/Local/xl_ci/toolchain/riscv-gnu-toolchain/riscv-gcc/libgcc/libgcc2.c:1206
200034fc:	41d78633          	sub	a2,a5,t4
20003500:	00c7b7b3          	sltu	a5,a5,a2
20003504:	97f2                	add	a5,a5,t3
20003506:	8e9d                	sub	a3,a3,a5
20003508:	87b2                	mv	a5,a2
/Local/xl_ci/toolchain/riscv-gnu-toolchain/riscv-gcc/libgcc/libgcc2.c:1214
2000350a:	40f507b3          	sub	a5,a0,a5
2000350e:	00f53533          	sltu	a0,a0,a5
20003512:	8d95                	sub	a1,a1,a3
20003514:	8d89                	sub	a1,a1,a0
/Local/xl_ci/toolchain/riscv-gnu-toolchain/riscv-gcc/libgcc/libgcc2.c:1215
20003516:	011598b3          	sll	a7,a1,a7
2000351a:	0107d533          	srl	a0,a5,a6
/Local/xl_ci/toolchain/riscv-gnu-toolchain/riscv-gcc/libgcc/libgcc2.c:1217
2000351e:	00a8e533          	or	a0,a7,a0
20003522:	0105d5b3          	srl	a1,a1,a6
20003526:	bb8d                	j	20003298 <__umoddi3+0xb0>

20003528 <atexit>:
atexit():
20003528:	85aa                	mv	a1,a0
2000352a:	4681                	li	a3,0
2000352c:	4601                	li	a2,0
2000352e:	4501                	li	a0,0
20003530:	a101                	j	20003930 <__register_exitproc>

20003532 <__libc_fini_array>:
__libc_fini_array():
20003532:	1141                	addi	sp,sp,-16
20003534:	c422                	sw	s0,8(sp)
20003536:	c226                	sw	s1,4(sp)
20003538:	00002417          	auipc	s0,0x2
2000353c:	efa40413          	addi	s0,s0,-262 # 20005432 <_etext>
20003540:	00002497          	auipc	s1,0x2
20003544:	ef248493          	addi	s1,s1,-270 # 20005432 <_etext>
20003548:	8c05                	sub	s0,s0,s1
2000354a:	c606                	sw	ra,12(sp)
2000354c:	8409                	srai	s0,s0,0x2
2000354e:	e411                	bnez	s0,2000355a <__libc_fini_array+0x28>
20003550:	40b2                	lw	ra,12(sp)
20003552:	4422                	lw	s0,8(sp)
20003554:	4492                	lw	s1,4(sp)
20003556:	0141                	addi	sp,sp,16
20003558:	8082                	ret
2000355a:	147d                	addi	s0,s0,-1
2000355c:	00241793          	slli	a5,s0,0x2
20003560:	97a6                	add	a5,a5,s1
20003562:	439c                	lw	a5,0(a5)
20003564:	9782                	jalr	a5
20003566:	b7e5                	j	2000354e <__libc_fini_array+0x1c>

20003568 <__libc_init_array>:
__libc_init_array():
20003568:	1141                	addi	sp,sp,-16
2000356a:	c422                	sw	s0,8(sp)
2000356c:	c226                	sw	s1,4(sp)
2000356e:	00002417          	auipc	s0,0x2
20003572:	ec440413          	addi	s0,s0,-316 # 20005432 <_etext>
20003576:	00002497          	auipc	s1,0x2
2000357a:	ebc48493          	addi	s1,s1,-324 # 20005432 <_etext>
2000357e:	8c81                	sub	s1,s1,s0
20003580:	c04a                	sw	s2,0(sp)
20003582:	c606                	sw	ra,12(sp)
20003584:	8489                	srai	s1,s1,0x2
20003586:	4901                	li	s2,0
20003588:	02991563          	bne	s2,s1,200035b2 <__libc_init_array+0x4a>
2000358c:	00002417          	auipc	s0,0x2
20003590:	ea640413          	addi	s0,s0,-346 # 20005432 <_etext>
20003594:	00002497          	auipc	s1,0x2
20003598:	e9e48493          	addi	s1,s1,-354 # 20005432 <_etext>
2000359c:	8c81                	sub	s1,s1,s0
2000359e:	8489                	srai	s1,s1,0x2
200035a0:	4901                	li	s2,0
200035a2:	00991d63          	bne	s2,s1,200035bc <__libc_init_array+0x54>
200035a6:	40b2                	lw	ra,12(sp)
200035a8:	4422                	lw	s0,8(sp)
200035aa:	4492                	lw	s1,4(sp)
200035ac:	4902                	lw	s2,0(sp)
200035ae:	0141                	addi	sp,sp,16
200035b0:	8082                	ret
200035b2:	401c                	lw	a5,0(s0)
200035b4:	0905                	addi	s2,s2,1
200035b6:	0411                	addi	s0,s0,4
200035b8:	9782                	jalr	a5
200035ba:	b7f9                	j	20003588 <__libc_init_array+0x20>
200035bc:	401c                	lw	a5,0(s0)
200035be:	0905                	addi	s2,s2,1
200035c0:	0411                	addi	s0,s0,4
200035c2:	9782                	jalr	a5
200035c4:	bff9                	j	200035a2 <__libc_init_array+0x3a>

200035c6 <memcpy>:
memcpy():
200035c6:	00a5c7b3          	xor	a5,a1,a0
200035ca:	8b8d                	andi	a5,a5,3
200035cc:	00c506b3          	add	a3,a0,a2
200035d0:	e781                	bnez	a5,200035d8 <memcpy+0x12>
200035d2:	478d                	li	a5,3
200035d4:	00c7ee63          	bltu	a5,a2,200035f0 <memcpy+0x2a>
200035d8:	87aa                	mv	a5,a0
200035da:	06d57163          	bgeu	a0,a3,2000363c <memcpy+0x76>
200035de:	0005c703          	lbu	a4,0(a1)
200035e2:	0785                	addi	a5,a5,1
200035e4:	0585                	addi	a1,a1,1
200035e6:	fee78fa3          	sb	a4,-1(a5) # ffff <__HEAP_SIZE+0xafff>
200035ea:	fed7eae3          	bltu	a5,a3,200035de <memcpy+0x18>
200035ee:	8082                	ret
200035f0:	00357713          	andi	a4,a0,3
200035f4:	87aa                	mv	a5,a0
200035f6:	cb11                	beqz	a4,2000360a <memcpy+0x44>
200035f8:	0005c703          	lbu	a4,0(a1)
200035fc:	0785                	addi	a5,a5,1
200035fe:	0585                	addi	a1,a1,1
20003600:	fee78fa3          	sb	a4,-1(a5)
20003604:	0037f713          	andi	a4,a5,3
20003608:	b7fd                	j	200035f6 <memcpy+0x30>
2000360a:	ffc6f713          	andi	a4,a3,-4
2000360e:	40f70833          	sub	a6,a4,a5
20003612:	02000613          	li	a2,32
20003616:	03064463          	blt	a2,a6,2000363e <memcpy+0x78>
2000361a:	882e                	mv	a6,a1
2000361c:	863e                	mv	a2,a5
2000361e:	06e66b63          	bltu	a2,a4,20003694 <memcpy+0xce>
20003622:	ffd78813          	addi	a6,a5,-3
20003626:	4601                	li	a2,0
20003628:	01076663          	bltu	a4,a6,20003634 <memcpy+0x6e>
2000362c:	070d                	addi	a4,a4,3
2000362e:	8f1d                	sub	a4,a4,a5
20003630:	ffc77613          	andi	a2,a4,-4
20003634:	97b2                	add	a5,a5,a2
20003636:	95b2                	add	a1,a1,a2
20003638:	fad7e3e3          	bltu	a5,a3,200035de <memcpy+0x18>
2000363c:	8082                	ret
2000363e:	0005a383          	lw	t2,0(a1)
20003642:	0045a283          	lw	t0,4(a1)
20003646:	0085af83          	lw	t6,8(a1)
2000364a:	00c5af03          	lw	t5,12(a1)
2000364e:	0105ae83          	lw	t4,16(a1)
20003652:	0145ae03          	lw	t3,20(a1)
20003656:	0185a303          	lw	t1,24(a1)
2000365a:	01c5a883          	lw	a7,28(a1)
2000365e:	0077a023          	sw	t2,0(a5)
20003662:	0057a223          	sw	t0,4(a5)
20003666:	0205a803          	lw	a6,32(a1)
2000366a:	01f7a423          	sw	t6,8(a5)
2000366e:	01e7a623          	sw	t5,12(a5)
20003672:	01d7a823          	sw	t4,16(a5)
20003676:	01c7aa23          	sw	t3,20(a5)
2000367a:	0067ac23          	sw	t1,24(a5)
2000367e:	0117ae23          	sw	a7,28(a5)
20003682:	02478793          	addi	a5,a5,36
20003686:	02458593          	addi	a1,a1,36
2000368a:	ff07ae23          	sw	a6,-4(a5)
2000368e:	40f70833          	sub	a6,a4,a5
20003692:	b751                	j	20003616 <memcpy+0x50>
20003694:	00082883          	lw	a7,0(a6) # 1000000 <__HEAP_SIZE+0xffb000>
20003698:	0611                	addi	a2,a2,4
2000369a:	0811                	addi	a6,a6,4
2000369c:	ff162e23          	sw	a7,-4(a2) # fffc <__HEAP_SIZE+0xaffc>
200036a0:	bfbd                	j	2000361e <memcpy+0x58>

200036a2 <memset>:
memset():
200036a2:	433d                	li	t1,15
200036a4:	872a                	mv	a4,a0
200036a6:	02c37363          	bgeu	t1,a2,200036cc <memset+0x2a>
200036aa:	00f77793          	andi	a5,a4,15
200036ae:	efbd                	bnez	a5,2000372c <memset+0x8a>
200036b0:	e5ad                	bnez	a1,2000371a <memset+0x78>
200036b2:	ff067693          	andi	a3,a2,-16
200036b6:	8a3d                	andi	a2,a2,15
200036b8:	96ba                	add	a3,a3,a4
200036ba:	c30c                	sw	a1,0(a4)
200036bc:	c34c                	sw	a1,4(a4)
200036be:	c70c                	sw	a1,8(a4)
200036c0:	c74c                	sw	a1,12(a4)
200036c2:	0741                	addi	a4,a4,16
200036c4:	fed76be3          	bltu	a4,a3,200036ba <memset+0x18>
200036c8:	e211                	bnez	a2,200036cc <memset+0x2a>
200036ca:	8082                	ret
200036cc:	40c306b3          	sub	a3,t1,a2
200036d0:	068a                	slli	a3,a3,0x2
200036d2:	00000297          	auipc	t0,0x0
200036d6:	9696                	add	a3,a3,t0
200036d8:	00a68067          	jr	10(a3)
200036dc:	00b70723          	sb	a1,14(a4)
200036e0:	00b706a3          	sb	a1,13(a4)
200036e4:	00b70623          	sb	a1,12(a4)
200036e8:	00b705a3          	sb	a1,11(a4)
200036ec:	00b70523          	sb	a1,10(a4)
200036f0:	00b704a3          	sb	a1,9(a4)
200036f4:	00b70423          	sb	a1,8(a4)
200036f8:	00b703a3          	sb	a1,7(a4)
200036fc:	00b70323          	sb	a1,6(a4)
20003700:	00b702a3          	sb	a1,5(a4)
20003704:	00b70223          	sb	a1,4(a4)
20003708:	00b701a3          	sb	a1,3(a4)
2000370c:	00b70123          	sb	a1,2(a4)
20003710:	00b700a3          	sb	a1,1(a4)
20003714:	00b70023          	sb	a1,0(a4)
20003718:	8082                	ret
2000371a:	0ff5f593          	zext.b	a1,a1
2000371e:	00859693          	slli	a3,a1,0x8
20003722:	8dd5                	or	a1,a1,a3
20003724:	01059693          	slli	a3,a1,0x10
20003728:	8dd5                	or	a1,a1,a3
2000372a:	b761                	j	200036b2 <memset+0x10>
2000372c:	00279693          	slli	a3,a5,0x2
20003730:	00000297          	auipc	t0,0x0
20003734:	9696                	add	a3,a3,t0
20003736:	8286                	mv	t0,ra
20003738:	fa8680e7          	jalr	-88(a3)
2000373c:	8096                	mv	ra,t0
2000373e:	17c1                	addi	a5,a5,-16
20003740:	8f1d                	sub	a4,a4,a5
20003742:	963e                	add	a2,a2,a5
20003744:	f8c374e3          	bgeu	t1,a2,200036cc <memset+0x2a>
20003748:	b7a5                	j	200036b0 <memset+0xe>

2000374a <_free_r>:
_free_r():
2000374a:	c1c5                	beqz	a1,200037ea <_free_r+0xa0>
2000374c:	ffc5a783          	lw	a5,-4(a1)
20003750:	1101                	addi	sp,sp,-32
20003752:	cc22                	sw	s0,24(sp)
20003754:	ce06                	sw	ra,28(sp)
20003756:	ffc58413          	addi	s0,a1,-4
2000375a:	0007d363          	bgez	a5,20003760 <_free_r+0x16>
2000375e:	943e                	add	s0,s0,a5
20003760:	c62a                	sw	a0,12(sp)
20003762:	2995                	jal	20003bd6 <__malloc_lock>
20003764:	70005717          	auipc	a4,0x70005
20003768:	a8870713          	addi	a4,a4,-1400 # 900081ec <__malloc_free_list>
2000376c:	431c                	lw	a5,0(a4)
2000376e:	4532                	lw	a0,12(sp)
20003770:	eb81                	bnez	a5,20003780 <_free_r+0x36>
20003772:	00042223          	sw	zero,4(s0)
20003776:	c300                	sw	s0,0(a4)
20003778:	4462                	lw	s0,24(sp)
2000377a:	40f2                	lw	ra,28(sp)
2000377c:	6105                	addi	sp,sp,32
2000377e:	a9a9                	j	20003bd8 <__malloc_unlock>
20003780:	00f47d63          	bgeu	s0,a5,2000379a <_free_r+0x50>
20003784:	4010                	lw	a2,0(s0)
20003786:	00c406b3          	add	a3,s0,a2
2000378a:	00d79663          	bne	a5,a3,20003796 <_free_r+0x4c>
2000378e:	4394                	lw	a3,0(a5)
20003790:	43dc                	lw	a5,4(a5)
20003792:	96b2                	add	a3,a3,a2
20003794:	c014                	sw	a3,0(s0)
20003796:	c05c                	sw	a5,4(s0)
20003798:	bff9                	j	20003776 <_free_r+0x2c>
2000379a:	873e                	mv	a4,a5
2000379c:	43dc                	lw	a5,4(a5)
2000379e:	c399                	beqz	a5,200037a4 <_free_r+0x5a>
200037a0:	fef47de3          	bgeu	s0,a5,2000379a <_free_r+0x50>
200037a4:	4314                	lw	a3,0(a4)
200037a6:	00d70633          	add	a2,a4,a3
200037aa:	00861f63          	bne	a2,s0,200037c8 <_free_r+0x7e>
200037ae:	4010                	lw	a2,0(s0)
200037b0:	96b2                	add	a3,a3,a2
200037b2:	c314                	sw	a3,0(a4)
200037b4:	00d70633          	add	a2,a4,a3
200037b8:	fcc790e3          	bne	a5,a2,20003778 <_free_r+0x2e>
200037bc:	4390                	lw	a2,0(a5)
200037be:	43dc                	lw	a5,4(a5)
200037c0:	96b2                	add	a3,a3,a2
200037c2:	c314                	sw	a3,0(a4)
200037c4:	c35c                	sw	a5,4(a4)
200037c6:	bf4d                	j	20003778 <_free_r+0x2e>
200037c8:	00c47563          	bgeu	s0,a2,200037d2 <_free_r+0x88>
200037cc:	47b1                	li	a5,12
200037ce:	c11c                	sw	a5,0(a0)
200037d0:	b765                	j	20003778 <_free_r+0x2e>
200037d2:	4010                	lw	a2,0(s0)
200037d4:	00c406b3          	add	a3,s0,a2
200037d8:	00d79663          	bne	a5,a3,200037e4 <_free_r+0x9a>
200037dc:	4394                	lw	a3,0(a5)
200037de:	43dc                	lw	a5,4(a5)
200037e0:	96b2                	add	a3,a3,a2
200037e2:	c014                	sw	a3,0(s0)
200037e4:	c05c                	sw	a5,4(s0)
200037e6:	c340                	sw	s0,4(a4)
200037e8:	bf41                	j	20003778 <_free_r+0x2e>
200037ea:	8082                	ret

200037ec <_malloc_r>:
_malloc_r():
200037ec:	1101                	addi	sp,sp,-32
200037ee:	ca26                	sw	s1,20(sp)
200037f0:	00358493          	addi	s1,a1,3
200037f4:	98f1                	andi	s1,s1,-4
200037f6:	c84a                	sw	s2,16(sp)
200037f8:	ce06                	sw	ra,28(sp)
200037fa:	cc22                	sw	s0,24(sp)
200037fc:	c64e                	sw	s3,12(sp)
200037fe:	04a1                	addi	s1,s1,8
20003800:	47b1                	li	a5,12
20003802:	892a                	mv	s2,a0
20003804:	04f4f463          	bgeu	s1,a5,2000384c <_malloc_r+0x60>
20003808:	44b1                	li	s1,12
2000380a:	04b4e363          	bltu	s1,a1,20003850 <_malloc_r+0x64>
2000380e:	854a                	mv	a0,s2
20003810:	26d9                	jal	20003bd6 <__malloc_lock>
20003812:	70005697          	auipc	a3,0x70005
20003816:	9da68693          	addi	a3,a3,-1574 # 900081ec <__malloc_free_list>
2000381a:	4298                	lw	a4,0(a3)
2000381c:	843a                	mv	s0,a4
2000381e:	e421                	bnez	s0,20003866 <_malloc_r+0x7a>
20003820:	70005417          	auipc	s0,0x70005
20003824:	9d040413          	addi	s0,s0,-1584 # 900081f0 <__malloc_sbrk_start>
20003828:	401c                	lw	a5,0(s0)
2000382a:	e789                	bnez	a5,20003834 <_malloc_r+0x48>
2000382c:	4581                	li	a1,0
2000382e:	854a                	mv	a0,s2
20003830:	20f1                	jal	200038fc <_sbrk_r>
20003832:	c008                	sw	a0,0(s0)
20003834:	85a6                	mv	a1,s1
20003836:	854a                	mv	a0,s2
20003838:	20d1                	jal	200038fc <_sbrk_r>
2000383a:	59fd                	li	s3,-1
2000383c:	07351863          	bne	a0,s3,200038ac <_malloc_r+0xc0>
20003840:	47b1                	li	a5,12
20003842:	00f92023          	sw	a5,0(s2)
20003846:	854a                	mv	a0,s2
20003848:	2e41                	jal	20003bd8 <__malloc_unlock>
2000384a:	a031                	j	20003856 <_malloc_r+0x6a>
2000384c:	fa04dfe3          	bgez	s1,2000380a <_malloc_r+0x1e>
20003850:	47b1                	li	a5,12
20003852:	00f92023          	sw	a5,0(s2)
20003856:	4501                	li	a0,0
20003858:	40f2                	lw	ra,28(sp)
2000385a:	4462                	lw	s0,24(sp)
2000385c:	44d2                	lw	s1,20(sp)
2000385e:	4942                	lw	s2,16(sp)
20003860:	49b2                	lw	s3,12(sp)
20003862:	6105                	addi	sp,sp,32
20003864:	8082                	ret
20003866:	401c                	lw	a5,0(s0)
20003868:	8f85                	sub	a5,a5,s1
2000386a:	0207ce63          	bltz	a5,200038a6 <_malloc_r+0xba>
2000386e:	462d                	li	a2,11
20003870:	00f67663          	bgeu	a2,a5,2000387c <_malloc_r+0x90>
20003874:	c01c                	sw	a5,0(s0)
20003876:	943e                	add	s0,s0,a5
20003878:	c004                	sw	s1,0(s0)
2000387a:	a029                	j	20003884 <_malloc_r+0x98>
2000387c:	405c                	lw	a5,4(s0)
2000387e:	02871263          	bne	a4,s0,200038a2 <_malloc_r+0xb6>
20003882:	c29c                	sw	a5,0(a3)
20003884:	854a                	mv	a0,s2
20003886:	2e89                	jal	20003bd8 <__malloc_unlock>
20003888:	00b40513          	addi	a0,s0,11
2000388c:	00440793          	addi	a5,s0,4
20003890:	9961                	andi	a0,a0,-8
20003892:	40f50733          	sub	a4,a0,a5
20003896:	fcf501e3          	beq	a0,a5,20003858 <_malloc_r+0x6c>
2000389a:	943a                	add	s0,s0,a4
2000389c:	8f89                	sub	a5,a5,a0
2000389e:	c01c                	sw	a5,0(s0)
200038a0:	bf65                	j	20003858 <_malloc_r+0x6c>
200038a2:	c35c                	sw	a5,4(a4)
200038a4:	b7c5                	j	20003884 <_malloc_r+0x98>
200038a6:	8722                	mv	a4,s0
200038a8:	4040                	lw	s0,4(s0)
200038aa:	bf95                	j	2000381e <_malloc_r+0x32>
200038ac:	00350413          	addi	s0,a0,3
200038b0:	9871                	andi	s0,s0,-4
200038b2:	fc8503e3          	beq	a0,s0,20003878 <_malloc_r+0x8c>
200038b6:	40a405b3          	sub	a1,s0,a0
200038ba:	854a                	mv	a0,s2
200038bc:	2081                	jal	200038fc <_sbrk_r>
200038be:	fb351de3          	bne	a0,s3,20003878 <_malloc_r+0x8c>
200038c2:	bfbd                	j	20003840 <_malloc_r+0x54>

200038c4 <iprintf>:
printf():
200038c4:	715d                	addi	sp,sp,-80
200038c6:	d422                	sw	s0,40(sp)
200038c8:	d606                	sw	ra,44(sp)
200038ca:	842a                	mv	s0,a0
200038cc:	da2e                	sw	a1,52(sp)
200038ce:	dc32                	sw	a2,56(sp)
200038d0:	de36                	sw	a3,60(sp)
200038d2:	c0ba                	sw	a4,64(sp)
200038d4:	c2be                	sw	a5,68(sp)
200038d6:	c4c2                	sw	a6,72(sp)
200038d8:	c6c6                	sw	a7,76(sp)
200038da:	8101a503          	lw	a0,-2032(gp) # 90000070 <_impure_ptr>
200038de:	c511                	beqz	a0,200038ea <iprintf+0x26>
200038e0:	4d1c                	lw	a5,24(a0)
200038e2:	e781                	bnez	a5,200038ea <iprintf+0x26>
200038e4:	c62a                	sw	a0,12(sp)
200038e6:	2abd                	jal	20003a64 <__sinit>
200038e8:	4532                	lw	a0,12(sp)
200038ea:	450c                	lw	a1,8(a0)
200038ec:	1854                	addi	a3,sp,52
200038ee:	8622                	mv	a2,s0
200038f0:	ce36                	sw	a3,28(sp)
200038f2:	2e89                	jal	20003c44 <_vfiprintf_r>
200038f4:	50b2                	lw	ra,44(sp)
200038f6:	5422                	lw	s0,40(sp)
200038f8:	6161                	addi	sp,sp,80
200038fa:	8082                	ret

200038fc <_sbrk_r>:
_sbrk_r():
200038fc:	1141                	addi	sp,sp,-16
200038fe:	c422                	sw	s0,8(sp)
20003900:	842a                	mv	s0,a0
20003902:	852e                	mv	a0,a1
20003904:	70005797          	auipc	a5,0x70005
20003908:	8e07aa23          	sw	zero,-1804(a5) # 900081f8 <errno>
2000390c:	c606                	sw	ra,12(sp)
2000390e:	7bf000ef          	jal	ra,200048cc <_sbrk>
20003912:	57fd                	li	a5,-1
20003914:	00f51863          	bne	a0,a5,20003924 <_sbrk_r+0x28>
20003918:	70005797          	auipc	a5,0x70005
2000391c:	8e07a783          	lw	a5,-1824(a5) # 900081f8 <errno>
20003920:	c391                	beqz	a5,20003924 <_sbrk_r+0x28>
20003922:	c01c                	sw	a5,0(s0)
20003924:	40b2                	lw	ra,12(sp)
20003926:	4422                	lw	s0,8(sp)
20003928:	0141                	addi	sp,sp,16
2000392a:	8082                	ret

2000392c <isatty>:
isatty():
2000392c:	b95fc06f          	j	200004c0 <_isatty>

20003930 <__register_exitproc>:
__register_exitproc():
20003930:	88aa                	mv	a7,a0
20003932:	70005517          	auipc	a0,0x70005
20003936:	8c250513          	addi	a0,a0,-1854 # 900081f4 <_global_atexit>
2000393a:	411c                	lw	a5,0(a0)
2000393c:	ef91                	bnez	a5,20003958 <__register_exitproc+0x28>
2000393e:	70005717          	auipc	a4,0x70005
20003942:	b7670713          	addi	a4,a4,-1162 # 900084b4 <_global_atexit0>
20003946:	c118                	sw	a4,0(a0)
20003948:	00000513          	li	a0,0
2000394c:	87ba                	mv	a5,a4
2000394e:	c509                	beqz	a0,20003958 <__register_exitproc+0x28>
20003950:	411c                	lw	a5,0(a0)
20003952:	08f72423          	sw	a5,136(a4)
20003956:	87ba                	mv	a5,a4
20003958:	43d8                	lw	a4,4(a5)
2000395a:	487d                	li	a6,31
2000395c:	557d                	li	a0,-1
2000395e:	04e84663          	blt	a6,a4,200039aa <__register_exitproc+0x7a>
20003962:	02088d63          	beqz	a7,2000399c <__register_exitproc+0x6c>
20003966:	0887a803          	lw	a6,136(a5)
2000396a:	04080063          	beqz	a6,200039aa <__register_exitproc+0x7a>
2000396e:	00271513          	slli	a0,a4,0x2
20003972:	9542                	add	a0,a0,a6
20003974:	c110                	sw	a2,0(a0)
20003976:	10082303          	lw	t1,256(a6)
2000397a:	4605                	li	a2,1
2000397c:	00e61633          	sll	a2,a2,a4
20003980:	00c36333          	or	t1,t1,a2
20003984:	10682023          	sw	t1,256(a6)
20003988:	08d52023          	sw	a3,128(a0)
2000398c:	4689                	li	a3,2
2000398e:	00d89763          	bne	a7,a3,2000399c <__register_exitproc+0x6c>
20003992:	10482683          	lw	a3,260(a6)
20003996:	8e55                	or	a2,a2,a3
20003998:	10c82223          	sw	a2,260(a6)
2000399c:	00170693          	addi	a3,a4,1
200039a0:	070a                	slli	a4,a4,0x2
200039a2:	c3d4                	sw	a3,4(a5)
200039a4:	97ba                	add	a5,a5,a4
200039a6:	c78c                	sw	a1,8(a5)
200039a8:	4501                	li	a0,0
200039aa:	8082                	ret

200039ac <std>:
std():
200039ac:	1141                	addi	sp,sp,-16
200039ae:	c422                	sw	s0,8(sp)
200039b0:	c606                	sw	ra,12(sp)
200039b2:	842a                	mv	s0,a0
200039b4:	00b51623          	sh	a1,12(a0)
200039b8:	00c51723          	sh	a2,14(a0)
200039bc:	00052023          	sw	zero,0(a0)
200039c0:	00052223          	sw	zero,4(a0)
200039c4:	00052423          	sw	zero,8(a0)
200039c8:	06052223          	sw	zero,100(a0)
200039cc:	00052823          	sw	zero,16(a0)
200039d0:	00052a23          	sw	zero,20(a0)
200039d4:	00052c23          	sw	zero,24(a0)
200039d8:	4621                	li	a2,8
200039da:	4581                	li	a1,0
200039dc:	05c50513          	addi	a0,a0,92
200039e0:	31c9                	jal	200036a2 <memset>
200039e2:	00001797          	auipc	a5,0x1
200039e6:	87678793          	addi	a5,a5,-1930 # 20004258 <__sread>
200039ea:	d05c                	sw	a5,36(s0)
200039ec:	00001797          	auipc	a5,0x1
200039f0:	89c78793          	addi	a5,a5,-1892 # 20004288 <__swrite>
200039f4:	d41c                	sw	a5,40(s0)
200039f6:	00001797          	auipc	a5,0x1
200039fa:	8e078793          	addi	a5,a5,-1824 # 200042d6 <__sseek>
200039fe:	d45c                	sw	a5,44(s0)
20003a00:	00001797          	auipc	a5,0x1
20003a04:	90c78793          	addi	a5,a5,-1780 # 2000430c <__sclose>
20003a08:	40b2                	lw	ra,12(sp)
20003a0a:	d000                	sw	s0,32(s0)
20003a0c:	d81c                	sw	a5,48(s0)
20003a0e:	4422                	lw	s0,8(sp)
20003a10:	0141                	addi	sp,sp,16
20003a12:	8082                	ret

20003a14 <_cleanup_r>:
_cleanup_r():
20003a14:	00001597          	auipc	a1,0x1
20003a18:	c7658593          	addi	a1,a1,-906 # 2000468a <_fflush_r>
20003a1c:	aa81                	j	20003b6c <_fwalk_reent>

20003a1e <__sfmoreglue>:
__sfmoreglue():
20003a1e:	1141                	addi	sp,sp,-16
20003a20:	c226                	sw	s1,4(sp)
20003a22:	06800613          	li	a2,104
20003a26:	fff58493          	addi	s1,a1,-1
20003a2a:	02c484b3          	mul	s1,s1,a2
20003a2e:	c04a                	sw	s2,0(sp)
20003a30:	892e                	mv	s2,a1
20003a32:	c422                	sw	s0,8(sp)
20003a34:	c606                	sw	ra,12(sp)
20003a36:	07448593          	addi	a1,s1,116
20003a3a:	3b4d                	jal	200037ec <_malloc_r>
20003a3c:	842a                	mv	s0,a0
20003a3e:	cd01                	beqz	a0,20003a56 <__sfmoreglue+0x38>
20003a40:	00052023          	sw	zero,0(a0)
20003a44:	01252223          	sw	s2,4(a0)
20003a48:	0531                	addi	a0,a0,12
20003a4a:	c408                	sw	a0,8(s0)
20003a4c:	06848613          	addi	a2,s1,104
20003a50:	4581                	li	a1,0
20003a52:	c51ff0ef          	jal	ra,200036a2 <memset>
20003a56:	40b2                	lw	ra,12(sp)
20003a58:	8522                	mv	a0,s0
20003a5a:	4422                	lw	s0,8(sp)
20003a5c:	4492                	lw	s1,4(sp)
20003a5e:	4902                	lw	s2,0(sp)
20003a60:	0141                	addi	sp,sp,16
20003a62:	8082                	ret

20003a64 <__sinit>:
__sinit():
20003a64:	4d1c                	lw	a5,24(a0)
20003a66:	e3bd                	bnez	a5,20003acc <__sinit+0x68>
20003a68:	1141                	addi	sp,sp,-16
20003a6a:	c422                	sw	s0,8(sp)
20003a6c:	c606                	sw	ra,12(sp)
20003a6e:	00000797          	auipc	a5,0x0
20003a72:	fa678793          	addi	a5,a5,-90 # 20003a14 <_cleanup_r>
20003a76:	d51c                	sw	a5,40(a0)
20003a78:	04052423          	sw	zero,72(a0)
20003a7c:	04052623          	sw	zero,76(a0)
20003a80:	04052823          	sw	zero,80(a0)
20003a84:	00001797          	auipc	a5,0x1
20003a88:	e6c7a783          	lw	a5,-404(a5) # 200048f0 <_global_impure_ptr>
20003a8c:	842a                	mv	s0,a0
20003a8e:	00f51463          	bne	a0,a5,20003a96 <__sinit+0x32>
20003a92:	4785                	li	a5,1
20003a94:	cd1c                	sw	a5,24(a0)
20003a96:	8522                	mv	a0,s0
20003a98:	281d                	jal	20003ace <__sfp>
20003a9a:	c048                	sw	a0,4(s0)
20003a9c:	8522                	mv	a0,s0
20003a9e:	2805                	jal	20003ace <__sfp>
20003aa0:	c408                	sw	a0,8(s0)
20003aa2:	8522                	mv	a0,s0
20003aa4:	202d                	jal	20003ace <__sfp>
20003aa6:	c448                	sw	a0,12(s0)
20003aa8:	4048                	lw	a0,4(s0)
20003aaa:	4601                	li	a2,0
20003aac:	4591                	li	a1,4
20003aae:	3dfd                	jal	200039ac <std>
20003ab0:	4408                	lw	a0,8(s0)
20003ab2:	4605                	li	a2,1
20003ab4:	45a5                	li	a1,9
20003ab6:	3ddd                	jal	200039ac <std>
20003ab8:	4448                	lw	a0,12(s0)
20003aba:	4609                	li	a2,2
20003abc:	45c9                	li	a1,18
20003abe:	35fd                	jal	200039ac <std>
20003ac0:	4785                	li	a5,1
20003ac2:	40b2                	lw	ra,12(sp)
20003ac4:	cc1c                	sw	a5,24(s0)
20003ac6:	4422                	lw	s0,8(sp)
20003ac8:	0141                	addi	sp,sp,16
20003aca:	8082                	ret
20003acc:	8082                	ret

20003ace <__sfp>:
__sfp():
20003ace:	1141                	addi	sp,sp,-16
20003ad0:	c226                	sw	s1,4(sp)
20003ad2:	00001497          	auipc	s1,0x1
20003ad6:	e1e4a483          	lw	s1,-482(s1) # 200048f0 <_global_impure_ptr>
20003ada:	4c9c                	lw	a5,24(s1)
20003adc:	c04a                	sw	s2,0(sp)
20003ade:	c606                	sw	ra,12(sp)
20003ae0:	c422                	sw	s0,8(sp)
20003ae2:	892a                	mv	s2,a0
20003ae4:	e399                	bnez	a5,20003aea <__sfp+0x1c>
20003ae6:	8526                	mv	a0,s1
20003ae8:	3fb5                	jal	20003a64 <__sinit>
20003aea:	04848493          	addi	s1,s1,72
20003aee:	4480                	lw	s0,8(s1)
20003af0:	40dc                	lw	a5,4(s1)
20003af2:	17fd                	addi	a5,a5,-1
20003af4:	0007d663          	bgez	a5,20003b00 <__sfp+0x32>
20003af8:	409c                	lw	a5,0(s1)
20003afa:	cfb9                	beqz	a5,20003b58 <__sfp+0x8a>
20003afc:	4084                	lw	s1,0(s1)
20003afe:	bfc5                	j	20003aee <__sfp+0x20>
20003b00:	00c41703          	lh	a4,12(s0)
20003b04:	e739                	bnez	a4,20003b52 <__sfp+0x84>
20003b06:	77c1                	lui	a5,0xffff0
20003b08:	0785                	addi	a5,a5,1
20003b0a:	06042223          	sw	zero,100(s0)
20003b0e:	00042023          	sw	zero,0(s0)
20003b12:	00042223          	sw	zero,4(s0)
20003b16:	00042423          	sw	zero,8(s0)
20003b1a:	c45c                	sw	a5,12(s0)
20003b1c:	00042823          	sw	zero,16(s0)
20003b20:	00042a23          	sw	zero,20(s0)
20003b24:	00042c23          	sw	zero,24(s0)
20003b28:	4621                	li	a2,8
20003b2a:	4581                	li	a1,0
20003b2c:	05c40513          	addi	a0,s0,92
20003b30:	b73ff0ef          	jal	ra,200036a2 <memset>
20003b34:	02042a23          	sw	zero,52(s0)
20003b38:	02042c23          	sw	zero,56(s0)
20003b3c:	04042423          	sw	zero,72(s0)
20003b40:	04042623          	sw	zero,76(s0)
20003b44:	40b2                	lw	ra,12(sp)
20003b46:	8522                	mv	a0,s0
20003b48:	4422                	lw	s0,8(sp)
20003b4a:	4492                	lw	s1,4(sp)
20003b4c:	4902                	lw	s2,0(sp)
20003b4e:	0141                	addi	sp,sp,16
20003b50:	8082                	ret
20003b52:	06840413          	addi	s0,s0,104
20003b56:	bf71                	j	20003af2 <__sfp+0x24>
20003b58:	4591                	li	a1,4
20003b5a:	854a                	mv	a0,s2
20003b5c:	35c9                	jal	20003a1e <__sfmoreglue>
20003b5e:	c088                	sw	a0,0(s1)
20003b60:	842a                	mv	s0,a0
20003b62:	fd49                	bnez	a0,20003afc <__sfp+0x2e>
20003b64:	47b1                	li	a5,12
20003b66:	00f92023          	sw	a5,0(s2)
20003b6a:	bfe9                	j	20003b44 <__sfp+0x76>

20003b6c <_fwalk_reent>:
_fwalk_reent():
20003b6c:	7179                	addi	sp,sp,-48
20003b6e:	d422                	sw	s0,40(sp)
20003b70:	d04a                	sw	s2,32(sp)
20003b72:	ce4e                	sw	s3,28(sp)
20003b74:	cc52                	sw	s4,24(sp)
20003b76:	c85a                	sw	s6,16(sp)
20003b78:	c65e                	sw	s7,12(sp)
20003b7a:	d606                	sw	ra,44(sp)
20003b7c:	d226                	sw	s1,36(sp)
20003b7e:	ca56                	sw	s5,20(sp)
20003b80:	892a                	mv	s2,a0
20003b82:	8a2e                	mv	s4,a1
20003b84:	04850413          	addi	s0,a0,72
20003b88:	4981                	li	s3,0
20003b8a:	4b05                	li	s6,1
20003b8c:	5bfd                	li	s7,-1
20003b8e:	4404                	lw	s1,8(s0)
20003b90:	00442a83          	lw	s5,4(s0)
20003b94:	1afd                	addi	s5,s5,-1
20003b96:	020ad063          	bgez	s5,20003bb6 <_fwalk_reent+0x4a>
20003b9a:	4000                	lw	s0,0(s0)
20003b9c:	f86d                	bnez	s0,20003b8e <_fwalk_reent+0x22>
20003b9e:	50b2                	lw	ra,44(sp)
20003ba0:	5422                	lw	s0,40(sp)
20003ba2:	5492                	lw	s1,36(sp)
20003ba4:	5902                	lw	s2,32(sp)
20003ba6:	4a62                	lw	s4,24(sp)
20003ba8:	4ad2                	lw	s5,20(sp)
20003baa:	4b42                	lw	s6,16(sp)
20003bac:	4bb2                	lw	s7,12(sp)
20003bae:	854e                	mv	a0,s3
20003bb0:	49f2                	lw	s3,28(sp)
20003bb2:	6145                	addi	sp,sp,48
20003bb4:	8082                	ret
20003bb6:	00c4d783          	lhu	a5,12(s1)
20003bba:	00fb7b63          	bgeu	s6,a5,20003bd0 <_fwalk_reent+0x64>
20003bbe:	00e49783          	lh	a5,14(s1)
20003bc2:	01778763          	beq	a5,s7,20003bd0 <_fwalk_reent+0x64>
20003bc6:	85a6                	mv	a1,s1
20003bc8:	854a                	mv	a0,s2
20003bca:	9a02                	jalr	s4
20003bcc:	00a9e9b3          	or	s3,s3,a0
20003bd0:	06848493          	addi	s1,s1,104
20003bd4:	b7c1                	j	20003b94 <_fwalk_reent+0x28>

20003bd6 <__malloc_lock>:
__malloc_lock():
20003bd6:	8082                	ret

20003bd8 <__malloc_unlock>:
__malloc_unlock():
20003bd8:	8082                	ret

20003bda <__sfputc_r>:
__sfputc_r():
20003bda:	461c                	lw	a5,8(a2)
20003bdc:	17fd                	addi	a5,a5,-1
20003bde:	c61c                	sw	a5,8(a2)
20003be0:	0007d963          	bgez	a5,20003bf2 <__sfputc_r+0x18>
20003be4:	4e18                	lw	a4,24(a2)
20003be6:	00e7c563          	blt	a5,a4,20003bf0 <__sfputc_r+0x16>
20003bea:	47a9                	li	a5,10
20003bec:	00f59363          	bne	a1,a5,20003bf2 <__sfputc_r+0x18>
20003bf0:	a70d                	j	20004312 <__swbuf_r>
20003bf2:	421c                	lw	a5,0(a2)
20003bf4:	852e                	mv	a0,a1
20003bf6:	00178713          	addi	a4,a5,1 # ffff0001 <_sp+0x6ffe0001>
20003bfa:	c218                	sw	a4,0(a2)
20003bfc:	00b78023          	sb	a1,0(a5)
20003c00:	8082                	ret

20003c02 <__sfputs_r>:
__sfputs_r():
20003c02:	1101                	addi	sp,sp,-32
20003c04:	cc22                	sw	s0,24(sp)
20003c06:	ca26                	sw	s1,20(sp)
20003c08:	c84a                	sw	s2,16(sp)
20003c0a:	c64e                	sw	s3,12(sp)
20003c0c:	c452                	sw	s4,8(sp)
20003c0e:	ce06                	sw	ra,28(sp)
20003c10:	892a                	mv	s2,a0
20003c12:	89ae                	mv	s3,a1
20003c14:	8432                	mv	s0,a2
20003c16:	00d604b3          	add	s1,a2,a3
20003c1a:	5a7d                	li	s4,-1
20003c1c:	00941463          	bne	s0,s1,20003c24 <__sfputs_r+0x22>
20003c20:	4501                	li	a0,0
20003c22:	a809                	j	20003c34 <__sfputs_r+0x32>
20003c24:	00044583          	lbu	a1,0(s0)
20003c28:	864e                	mv	a2,s3
20003c2a:	854a                	mv	a0,s2
20003c2c:	377d                	jal	20003bda <__sfputc_r>
20003c2e:	0405                	addi	s0,s0,1
20003c30:	ff4516e3          	bne	a0,s4,20003c1c <__sfputs_r+0x1a>
20003c34:	40f2                	lw	ra,28(sp)
20003c36:	4462                	lw	s0,24(sp)
20003c38:	44d2                	lw	s1,20(sp)
20003c3a:	4942                	lw	s2,16(sp)
20003c3c:	49b2                	lw	s3,12(sp)
20003c3e:	4a22                	lw	s4,8(sp)
20003c40:	6105                	addi	sp,sp,32
20003c42:	8082                	ret

20003c44 <_vfiprintf_r>:
_vfiprintf_r():
20003c44:	7135                	addi	sp,sp,-160
20003c46:	cd22                	sw	s0,152(sp)
20003c48:	cb26                	sw	s1,148(sp)
20003c4a:	c94a                	sw	s2,144(sp)
20003c4c:	c74e                	sw	s3,140(sp)
20003c4e:	cf06                	sw	ra,156(sp)
20003c50:	c552                	sw	s4,136(sp)
20003c52:	c356                	sw	s5,132(sp)
20003c54:	c15a                	sw	s6,128(sp)
20003c56:	dede                	sw	s7,124(sp)
20003c58:	dce2                	sw	s8,120(sp)
20003c5a:	dae6                	sw	s9,116(sp)
20003c5c:	89aa                	mv	s3,a0
20003c5e:	84ae                	mv	s1,a1
20003c60:	8932                	mv	s2,a2
20003c62:	8436                	mv	s0,a3
20003c64:	c501                	beqz	a0,20003c6c <_vfiprintf_r+0x28>
20003c66:	4d1c                	lw	a5,24(a0)
20003c68:	e391                	bnez	a5,20003c6c <_vfiprintf_r+0x28>
20003c6a:	3bed                	jal	20003a64 <__sinit>
20003c6c:	00001797          	auipc	a5,0x1
20003c70:	fe078793          	addi	a5,a5,-32 # 20004c4c <__sf_fake_stdin>
20003c74:	0cf49c63          	bne	s1,a5,20003d4c <_vfiprintf_r+0x108>
20003c78:	0049a483          	lw	s1,4(s3)
20003c7c:	00c4d783          	lhu	a5,12(s1)
20003c80:	8ba1                	andi	a5,a5,8
20003c82:	c7fd                	beqz	a5,20003d70 <_vfiprintf_r+0x12c>
20003c84:	489c                	lw	a5,16(s1)
20003c86:	c7ed                	beqz	a5,20003d70 <_vfiprintf_r+0x12c>
20003c88:	02000793          	li	a5,32
20003c8c:	02f104a3          	sb	a5,41(sp)
20003c90:	03000793          	li	a5,48
20003c94:	d202                	sw	zero,36(sp)
20003c96:	02f10523          	sb	a5,42(sp)
20003c9a:	c622                	sw	s0,12(sp)
20003c9c:	02500b93          	li	s7,37
20003ca0:	00001a97          	auipc	s5,0x1
20003ca4:	feca8a93          	addi	s5,s5,-20 # 20004c8c <__sf_fake_stdout+0x20>
20003ca8:	4c05                	li	s8,1
20003caa:	4b29                	li	s6,10
20003cac:	844a                	mv	s0,s2
20003cae:	00044783          	lbu	a5,0(s0)
20003cb2:	c399                	beqz	a5,20003cb8 <_vfiprintf_r+0x74>
20003cb4:	0f779063          	bne	a5,s7,20003d94 <_vfiprintf_r+0x150>
20003cb8:	41240cb3          	sub	s9,s0,s2
20003cbc:	01240d63          	beq	s0,s2,20003cd6 <_vfiprintf_r+0x92>
20003cc0:	86e6                	mv	a3,s9
20003cc2:	864a                	mv	a2,s2
20003cc4:	85a6                	mv	a1,s1
20003cc6:	854e                	mv	a0,s3
20003cc8:	3f2d                	jal	20003c02 <__sfputs_r>
20003cca:	57fd                	li	a5,-1
20003ccc:	1ef50663          	beq	a0,a5,20003eb8 <_vfiprintf_r+0x274>
20003cd0:	5792                	lw	a5,36(sp)
20003cd2:	97e6                	add	a5,a5,s9
20003cd4:	d23e                	sw	a5,36(sp)
20003cd6:	00044783          	lbu	a5,0(s0)
20003cda:	1c078f63          	beqz	a5,20003eb8 <_vfiprintf_r+0x274>
20003cde:	57fd                	li	a5,-1
20003ce0:	00140913          	addi	s2,s0,1
20003ce4:	c802                	sw	zero,16(sp)
20003ce6:	ce02                	sw	zero,28(sp)
20003ce8:	ca3e                	sw	a5,20(sp)
20003cea:	cc02                	sw	zero,24(sp)
20003cec:	040109a3          	sb	zero,83(sp)
20003cf0:	d482                	sw	zero,104(sp)
20003cf2:	00094583          	lbu	a1,0(s2)
20003cf6:	4615                	li	a2,5
20003cf8:	8556                	mv	a0,s5
20003cfa:	323000ef          	jal	ra,2000481c <memchr>
20003cfe:	47c2                	lw	a5,16(sp)
20003d00:	00190413          	addi	s0,s2,1
20003d04:	e951                	bnez	a0,20003d98 <_vfiprintf_r+0x154>
20003d06:	0107f713          	andi	a4,a5,16
20003d0a:	c709                	beqz	a4,20003d14 <_vfiprintf_r+0xd0>
20003d0c:	02000713          	li	a4,32
20003d10:	04e109a3          	sb	a4,83(sp)
20003d14:	0087f713          	andi	a4,a5,8
20003d18:	c709                	beqz	a4,20003d22 <_vfiprintf_r+0xde>
20003d1a:	02b00713          	li	a4,43
20003d1e:	04e109a3          	sb	a4,83(sp)
20003d22:	00094683          	lbu	a3,0(s2)
20003d26:	02a00713          	li	a4,42
20003d2a:	06e68f63          	beq	a3,a4,20003da8 <_vfiprintf_r+0x164>
20003d2e:	47f2                	lw	a5,28(sp)
20003d30:	844a                	mv	s0,s2
20003d32:	4681                	li	a3,0
20003d34:	4625                	li	a2,9
20003d36:	00044703          	lbu	a4,0(s0)
20003d3a:	00140593          	addi	a1,s0,1
20003d3e:	fd070713          	addi	a4,a4,-48
20003d42:	0ae67863          	bgeu	a2,a4,20003df2 <_vfiprintf_r+0x1ae>
20003d46:	caad                	beqz	a3,20003db8 <_vfiprintf_r+0x174>
20003d48:	ce3e                	sw	a5,28(sp)
20003d4a:	a0bd                	j	20003db8 <_vfiprintf_r+0x174>
20003d4c:	00001797          	auipc	a5,0x1
20003d50:	f2078793          	addi	a5,a5,-224 # 20004c6c <__sf_fake_stdout>
20003d54:	00f49563          	bne	s1,a5,20003d5e <_vfiprintf_r+0x11a>
20003d58:	0089a483          	lw	s1,8(s3)
20003d5c:	b705                	j	20003c7c <_vfiprintf_r+0x38>
20003d5e:	00001797          	auipc	a5,0x1
20003d62:	ece78793          	addi	a5,a5,-306 # 20004c2c <__sf_fake_stderr>
20003d66:	f0f49be3          	bne	s1,a5,20003c7c <_vfiprintf_r+0x38>
20003d6a:	00c9a483          	lw	s1,12(s3)
20003d6e:	b739                	j	20003c7c <_vfiprintf_r+0x38>
20003d70:	85a6                	mv	a1,s1
20003d72:	854e                	mv	a0,s3
20003d74:	2d51                	jal	20004408 <__swsetup_r>
20003d76:	d909                	beqz	a0,20003c88 <_vfiprintf_r+0x44>
20003d78:	557d                	li	a0,-1
20003d7a:	40fa                	lw	ra,156(sp)
20003d7c:	446a                	lw	s0,152(sp)
20003d7e:	44da                	lw	s1,148(sp)
20003d80:	494a                	lw	s2,144(sp)
20003d82:	49ba                	lw	s3,140(sp)
20003d84:	4a2a                	lw	s4,136(sp)
20003d86:	4a9a                	lw	s5,132(sp)
20003d88:	4b0a                	lw	s6,128(sp)
20003d8a:	5bf6                	lw	s7,124(sp)
20003d8c:	5c66                	lw	s8,120(sp)
20003d8e:	5cd6                	lw	s9,116(sp)
20003d90:	610d                	addi	sp,sp,160
20003d92:	8082                	ret
20003d94:	0405                	addi	s0,s0,1
20003d96:	bf21                	j	20003cae <_vfiprintf_r+0x6a>
20003d98:	41550533          	sub	a0,a0,s5
20003d9c:	00ac1533          	sll	a0,s8,a0
20003da0:	8fc9                	or	a5,a5,a0
20003da2:	c83e                	sw	a5,16(sp)
20003da4:	8922                	mv	s2,s0
20003da6:	b7b1                	j	20003cf2 <_vfiprintf_r+0xae>
20003da8:	4732                	lw	a4,12(sp)
20003daa:	00470693          	addi	a3,a4,4
20003dae:	4318                	lw	a4,0(a4)
20003db0:	c636                	sw	a3,12(sp)
20003db2:	02074963          	bltz	a4,20003de4 <_vfiprintf_r+0x1a0>
20003db6:	ce3a                	sw	a4,28(sp)
20003db8:	00044703          	lbu	a4,0(s0)
20003dbc:	02e00793          	li	a5,46
20003dc0:	04f71f63          	bne	a4,a5,20003e1e <_vfiprintf_r+0x1da>
20003dc4:	00144703          	lbu	a4,1(s0)
20003dc8:	02a00793          	li	a5,42
20003dcc:	02f71b63          	bne	a4,a5,20003e02 <_vfiprintf_r+0x1be>
20003dd0:	47b2                	lw	a5,12(sp)
20003dd2:	0409                	addi	s0,s0,2
20003dd4:	00478713          	addi	a4,a5,4
20003dd8:	439c                	lw	a5,0(a5)
20003dda:	c63a                	sw	a4,12(sp)
20003ddc:	0207c163          	bltz	a5,20003dfe <_vfiprintf_r+0x1ba>
20003de0:	ca3e                	sw	a5,20(sp)
20003de2:	a835                	j	20003e1e <_vfiprintf_r+0x1da>
20003de4:	40e00733          	neg	a4,a4
20003de8:	0027e793          	ori	a5,a5,2
20003dec:	ce3a                	sw	a4,28(sp)
20003dee:	c83e                	sw	a5,16(sp)
20003df0:	b7e1                	j	20003db8 <_vfiprintf_r+0x174>
20003df2:	036787b3          	mul	a5,a5,s6
20003df6:	842e                	mv	s0,a1
20003df8:	4685                	li	a3,1
20003dfa:	97ba                	add	a5,a5,a4
20003dfc:	bf2d                	j	20003d36 <_vfiprintf_r+0xf2>
20003dfe:	57fd                	li	a5,-1
20003e00:	b7c5                	j	20003de0 <_vfiprintf_r+0x19c>
20003e02:	0405                	addi	s0,s0,1
20003e04:	ca02                	sw	zero,20(sp)
20003e06:	4681                	li	a3,0
20003e08:	4781                	li	a5,0
20003e0a:	4625                	li	a2,9
20003e0c:	00044703          	lbu	a4,0(s0)
20003e10:	00140593          	addi	a1,s0,1
20003e14:	fd070713          	addi	a4,a4,-48
20003e18:	06e67663          	bgeu	a2,a4,20003e84 <_vfiprintf_r+0x240>
20003e1c:	f2f1                	bnez	a3,20003de0 <_vfiprintf_r+0x19c>
20003e1e:	00044583          	lbu	a1,0(s0)
20003e22:	460d                	li	a2,3
20003e24:	00001517          	auipc	a0,0x1
20003e28:	e7050513          	addi	a0,a0,-400 # 20004c94 <__sf_fake_stdout+0x28>
20003e2c:	1f1000ef          	jal	ra,2000481c <memchr>
20003e30:	cd11                	beqz	a0,20003e4c <_vfiprintf_r+0x208>
20003e32:	00001797          	auipc	a5,0x1
20003e36:	e6278793          	addi	a5,a5,-414 # 20004c94 <__sf_fake_stdout+0x28>
20003e3a:	8d1d                	sub	a0,a0,a5
20003e3c:	04000793          	li	a5,64
20003e40:	00a797b3          	sll	a5,a5,a0
20003e44:	4542                	lw	a0,16(sp)
20003e46:	0405                	addi	s0,s0,1
20003e48:	8d5d                	or	a0,a0,a5
20003e4a:	c82a                	sw	a0,16(sp)
20003e4c:	00044583          	lbu	a1,0(s0)
20003e50:	4619                	li	a2,6
20003e52:	00001517          	auipc	a0,0x1
20003e56:	e4650513          	addi	a0,a0,-442 # 20004c98 <__sf_fake_stdout+0x2c>
20003e5a:	00140913          	addi	s2,s0,1
20003e5e:	02b10423          	sb	a1,40(sp)
20003e62:	1bb000ef          	jal	ra,2000481c <memchr>
20003e66:	c12d                	beqz	a0,20003ec8 <_vfiprintf_r+0x284>
20003e68:	00000793          	li	a5,0
20003e6c:	e795                	bnez	a5,20003e98 <_vfiprintf_r+0x254>
20003e6e:	4742                	lw	a4,16(sp)
20003e70:	47b2                	lw	a5,12(sp)
20003e72:	10077713          	andi	a4,a4,256
20003e76:	cf09                	beqz	a4,20003e90 <_vfiprintf_r+0x24c>
20003e78:	0791                	addi	a5,a5,4
20003e7a:	c63e                	sw	a5,12(sp)
20003e7c:	5792                	lw	a5,36(sp)
20003e7e:	97d2                	add	a5,a5,s4
20003e80:	d23e                	sw	a5,36(sp)
20003e82:	b52d                	j	20003cac <_vfiprintf_r+0x68>
20003e84:	036787b3          	mul	a5,a5,s6
20003e88:	842e                	mv	s0,a1
20003e8a:	4685                	li	a3,1
20003e8c:	97ba                	add	a5,a5,a4
20003e8e:	bfbd                	j	20003e0c <_vfiprintf_r+0x1c8>
20003e90:	079d                	addi	a5,a5,7
20003e92:	9be1                	andi	a5,a5,-8
20003e94:	07a1                	addi	a5,a5,8
20003e96:	b7d5                	j	20003e7a <_vfiprintf_r+0x236>
20003e98:	0078                	addi	a4,sp,12
20003e9a:	00000697          	auipc	a3,0x0
20003e9e:	d6868693          	addi	a3,a3,-664 # 20003c02 <__sfputs_r>
20003ea2:	8626                	mv	a2,s1
20003ea4:	080c                	addi	a1,sp,16
20003ea6:	854e                	mv	a0,s3
20003ea8:	00000097          	auipc	ra,0x0
20003eac:	000000e7          	jalr	zero # 0 <__SMP_CPU_CNT-0x1>
20003eb0:	57fd                	li	a5,-1
20003eb2:	8a2a                	mv	s4,a0
20003eb4:	fcf514e3          	bne	a0,a5,20003e7c <_vfiprintf_r+0x238>
20003eb8:	00c4d783          	lhu	a5,12(s1)
20003ebc:	0407f793          	andi	a5,a5,64
20003ec0:	ea079ce3          	bnez	a5,20003d78 <_vfiprintf_r+0x134>
20003ec4:	5512                	lw	a0,36(sp)
20003ec6:	bd55                	j	20003d7a <_vfiprintf_r+0x136>
20003ec8:	0078                	addi	a4,sp,12
20003eca:	00000697          	auipc	a3,0x0
20003ece:	d3868693          	addi	a3,a3,-712 # 20003c02 <__sfputs_r>
20003ed2:	8626                	mv	a2,s1
20003ed4:	080c                	addi	a1,sp,16
20003ed6:	854e                	mv	a0,s3
20003ed8:	2a01                	jal	20003fe8 <_printf_i>
20003eda:	bfd9                	j	20003eb0 <_vfiprintf_r+0x26c>

20003edc <_printf_common>:
_printf_common():
20003edc:	7179                	addi	sp,sp,-48
20003ede:	cc52                	sw	s4,24(sp)
20003ee0:	499c                	lw	a5,16(a1)
20003ee2:	8a3a                	mv	s4,a4
20003ee4:	4598                	lw	a4,8(a1)
20003ee6:	d422                	sw	s0,40(sp)
20003ee8:	d226                	sw	s1,36(sp)
20003eea:	ce4e                	sw	s3,28(sp)
20003eec:	ca56                	sw	s5,20(sp)
20003eee:	d606                	sw	ra,44(sp)
20003ef0:	d04a                	sw	s2,32(sp)
20003ef2:	c85a                	sw	s6,16(sp)
20003ef4:	c65e                	sw	s7,12(sp)
20003ef6:	89aa                	mv	s3,a0
20003ef8:	842e                	mv	s0,a1
20003efa:	84b2                	mv	s1,a2
20003efc:	8ab6                	mv	s5,a3
20003efe:	00e7d363          	bge	a5,a4,20003f04 <_printf_common+0x28>
20003f02:	87ba                	mv	a5,a4
20003f04:	c09c                	sw	a5,0(s1)
20003f06:	04344703          	lbu	a4,67(s0)
20003f0a:	c319                	beqz	a4,20003f10 <_printf_common+0x34>
20003f0c:	0785                	addi	a5,a5,1
20003f0e:	c09c                	sw	a5,0(s1)
20003f10:	401c                	lw	a5,0(s0)
20003f12:	0207f793          	andi	a5,a5,32
20003f16:	c781                	beqz	a5,20003f1e <_printf_common+0x42>
20003f18:	409c                	lw	a5,0(s1)
20003f1a:	0789                	addi	a5,a5,2
20003f1c:	c09c                	sw	a5,0(s1)
20003f1e:	00042903          	lw	s2,0(s0)
20003f22:	00697913          	andi	s2,s2,6
20003f26:	00091a63          	bnez	s2,20003f3a <_printf_common+0x5e>
20003f2a:	01940b13          	addi	s6,s0,25
20003f2e:	5bfd                	li	s7,-1
20003f30:	445c                	lw	a5,12(s0)
20003f32:	4098                	lw	a4,0(s1)
20003f34:	8f99                	sub	a5,a5,a4
20003f36:	04f94c63          	blt	s2,a5,20003f8e <_printf_common+0xb2>
20003f3a:	04344783          	lbu	a5,67(s0)
20003f3e:	00f036b3          	snez	a3,a5
20003f42:	401c                	lw	a5,0(s0)
20003f44:	0207f793          	andi	a5,a5,32
20003f48:	eba5                	bnez	a5,20003fb8 <_printf_common+0xdc>
20003f4a:	04340613          	addi	a2,s0,67
20003f4e:	85d6                	mv	a1,s5
20003f50:	854e                	mv	a0,s3
20003f52:	9a02                	jalr	s4
20003f54:	57fd                	li	a5,-1
20003f56:	04f50363          	beq	a0,a5,20003f9c <_printf_common+0xc0>
20003f5a:	401c                	lw	a5,0(s0)
20003f5c:	4611                	li	a2,4
20003f5e:	4098                	lw	a4,0(s1)
20003f60:	8b99                	andi	a5,a5,6
20003f62:	4454                	lw	a3,12(s0)
20003f64:	4481                	li	s1,0
20003f66:	00c79763          	bne	a5,a2,20003f74 <_printf_common+0x98>
20003f6a:	40e684b3          	sub	s1,a3,a4
20003f6e:	0004d363          	bgez	s1,20003f74 <_printf_common+0x98>
20003f72:	4481                	li	s1,0
20003f74:	441c                	lw	a5,8(s0)
20003f76:	4818                	lw	a4,16(s0)
20003f78:	00f75463          	bge	a4,a5,20003f80 <_printf_common+0xa4>
20003f7c:	8f99                	sub	a5,a5,a4
20003f7e:	94be                	add	s1,s1,a5
20003f80:	4901                	li	s2,0
20003f82:	0469                	addi	s0,s0,26
20003f84:	5b7d                	li	s6,-1
20003f86:	05249863          	bne	s1,s2,20003fd6 <_printf_common+0xfa>
20003f8a:	4501                	li	a0,0
20003f8c:	a809                	j	20003f9e <_printf_common+0xc2>
20003f8e:	4685                	li	a3,1
20003f90:	865a                	mv	a2,s6
20003f92:	85d6                	mv	a1,s5
20003f94:	854e                	mv	a0,s3
20003f96:	9a02                	jalr	s4
20003f98:	01751e63          	bne	a0,s7,20003fb4 <_printf_common+0xd8>
20003f9c:	557d                	li	a0,-1
20003f9e:	50b2                	lw	ra,44(sp)
20003fa0:	5422                	lw	s0,40(sp)
20003fa2:	5492                	lw	s1,36(sp)
20003fa4:	5902                	lw	s2,32(sp)
20003fa6:	49f2                	lw	s3,28(sp)
20003fa8:	4a62                	lw	s4,24(sp)
20003faa:	4ad2                	lw	s5,20(sp)
20003fac:	4b42                	lw	s6,16(sp)
20003fae:	4bb2                	lw	s7,12(sp)
20003fb0:	6145                	addi	sp,sp,48
20003fb2:	8082                	ret
20003fb4:	0905                	addi	s2,s2,1
20003fb6:	bfad                	j	20003f30 <_printf_common+0x54>
20003fb8:	00d40733          	add	a4,s0,a3
20003fbc:	03000613          	li	a2,48
20003fc0:	04c701a3          	sb	a2,67(a4)
20003fc4:	04544703          	lbu	a4,69(s0)
20003fc8:	00168793          	addi	a5,a3,1
20003fcc:	97a2                	add	a5,a5,s0
20003fce:	0689                	addi	a3,a3,2
20003fd0:	04e781a3          	sb	a4,67(a5)
20003fd4:	bf9d                	j	20003f4a <_printf_common+0x6e>
20003fd6:	4685                	li	a3,1
20003fd8:	8622                	mv	a2,s0
20003fda:	85d6                	mv	a1,s5
20003fdc:	854e                	mv	a0,s3
20003fde:	9a02                	jalr	s4
20003fe0:	fb650ee3          	beq	a0,s6,20003f9c <_printf_common+0xc0>
20003fe4:	0905                	addi	s2,s2,1
20003fe6:	b745                	j	20003f86 <_printf_common+0xaa>

20003fe8 <_printf_i>:
_printf_i():
20003fe8:	7179                	addi	sp,sp,-48
20003fea:	d422                	sw	s0,40(sp)
20003fec:	d226                	sw	s1,36(sp)
20003fee:	d04a                	sw	s2,32(sp)
20003ff0:	ce4e                	sw	s3,28(sp)
20003ff2:	d606                	sw	ra,44(sp)
20003ff4:	cc52                	sw	s4,24(sp)
20003ff6:	ca56                	sw	s5,20(sp)
20003ff8:	c85a                	sw	s6,16(sp)
20003ffa:	0185c803          	lbu	a6,24(a1)
20003ffe:	07800793          	li	a5,120
20004002:	84aa                	mv	s1,a0
20004004:	842e                	mv	s0,a1
20004006:	8932                	mv	s2,a2
20004008:	89b6                	mv	s3,a3
2000400a:	0107ee63          	bltu	a5,a6,20004026 <_printf_i+0x3e>
2000400e:	06200793          	li	a5,98
20004012:	04358693          	addi	a3,a1,67
20004016:	0107ed63          	bltu	a5,a6,20004030 <_printf_i+0x48>
2000401a:	1c080563          	beqz	a6,200041e4 <_printf_i+0x1fc>
2000401e:	05800793          	li	a5,88
20004022:	12f80a63          	beq	a6,a5,20004156 <_printf_i+0x16e>
20004026:	04240a93          	addi	s5,s0,66
2000402a:	05040123          	sb	a6,66(s0)
2000402e:	a815                	j	20004062 <_printf_i+0x7a>
20004030:	f9d80793          	addi	a5,a6,-99
20004034:	0ff7f793          	zext.b	a5,a5
20004038:	4655                	li	a2,21
2000403a:	fef666e3          	bltu	a2,a5,20004026 <_printf_i+0x3e>
2000403e:	00001617          	auipc	a2,0x1
20004042:	c8a60613          	addi	a2,a2,-886 # 20004cc8 <__sf_fake_stdout+0x5c>
20004046:	078a                	slli	a5,a5,0x2
20004048:	97b2                	add	a5,a5,a2
2000404a:	439c                	lw	a5,0(a5)
2000404c:	97b2                	add	a5,a5,a2
2000404e:	8782                	jr	a5
20004050:	431c                	lw	a5,0(a4)
20004052:	04258a93          	addi	s5,a1,66
20004056:	00478693          	addi	a3,a5,4
2000405a:	439c                	lw	a5,0(a5)
2000405c:	c314                	sw	a3,0(a4)
2000405e:	04f58123          	sb	a5,66(a1)
20004062:	4785                	li	a5,1
20004064:	a25d                	j	2000420a <_printf_i+0x222>
20004066:	419c                	lw	a5,0(a1)
20004068:	4308                	lw	a0,0(a4)
2000406a:	0807f613          	andi	a2,a5,128
2000406e:	00450593          	addi	a1,a0,4
20004072:	c20d                	beqz	a2,20004094 <_printf_i+0xac>
20004074:	411c                	lw	a5,0(a0)
20004076:	c30c                	sw	a1,0(a4)
20004078:	0007d863          	bgez	a5,20004088 <_printf_i+0xa0>
2000407c:	02d00713          	li	a4,45
20004080:	40f007b3          	neg	a5,a5
20004084:	04e401a3          	sb	a4,67(s0)
20004088:	00001617          	auipc	a2,0x1
2000408c:	c1860613          	addi	a2,a2,-1000 # 20004ca0 <__sf_fake_stdout+0x34>
20004090:	4829                	li	a6,10
20004092:	a0a1                	j	200040da <_printf_i+0xf2>
20004094:	0407f613          	andi	a2,a5,64
20004098:	411c                	lw	a5,0(a0)
2000409a:	c30c                	sw	a1,0(a4)
2000409c:	de71                	beqz	a2,20004078 <_printf_i+0x90>
2000409e:	07c2                	slli	a5,a5,0x10
200040a0:	87c1                	srai	a5,a5,0x10
200040a2:	bfd9                	j	20004078 <_printf_i+0x90>
200040a4:	4190                	lw	a2,0(a1)
200040a6:	431c                	lw	a5,0(a4)
200040a8:	08067513          	andi	a0,a2,128
200040ac:	00478593          	addi	a1,a5,4
200040b0:	c501                	beqz	a0,200040b8 <_printf_i+0xd0>
200040b2:	c30c                	sw	a1,0(a4)
200040b4:	439c                	lw	a5,0(a5)
200040b6:	a039                	j	200040c4 <_printf_i+0xdc>
200040b8:	04067613          	andi	a2,a2,64
200040bc:	c30c                	sw	a1,0(a4)
200040be:	da7d                	beqz	a2,200040b4 <_printf_i+0xcc>
200040c0:	0007d783          	lhu	a5,0(a5)
200040c4:	06f00713          	li	a4,111
200040c8:	00001617          	auipc	a2,0x1
200040cc:	bd860613          	addi	a2,a2,-1064 # 20004ca0 <__sf_fake_stdout+0x34>
200040d0:	0ee80463          	beq	a6,a4,200041b8 <_printf_i+0x1d0>
200040d4:	4829                	li	a6,10
200040d6:	040401a3          	sb	zero,67(s0)
200040da:	4058                	lw	a4,4(s0)
200040dc:	c418                	sw	a4,8(s0)
200040de:	00074563          	bltz	a4,200040e8 <_printf_i+0x100>
200040e2:	400c                	lw	a1,0(s0)
200040e4:	99ed                	andi	a1,a1,-5
200040e6:	c00c                	sw	a1,0(s0)
200040e8:	e399                	bnez	a5,200040ee <_printf_i+0x106>
200040ea:	8ab6                	mv	s5,a3
200040ec:	cf19                	beqz	a4,2000410a <_printf_i+0x122>
200040ee:	8ab6                	mv	s5,a3
200040f0:	0307f733          	remu	a4,a5,a6
200040f4:	1afd                	addi	s5,s5,-1
200040f6:	9732                	add	a4,a4,a2
200040f8:	00074703          	lbu	a4,0(a4)
200040fc:	00ea8023          	sb	a4,0(s5)
20004100:	873e                	mv	a4,a5
20004102:	0307d7b3          	divu	a5,a5,a6
20004106:	ff0775e3          	bgeu	a4,a6,200040f0 <_printf_i+0x108>
2000410a:	47a1                	li	a5,8
2000410c:	00f81e63          	bne	a6,a5,20004128 <_printf_i+0x140>
20004110:	401c                	lw	a5,0(s0)
20004112:	8b85                	andi	a5,a5,1
20004114:	cb91                	beqz	a5,20004128 <_printf_i+0x140>
20004116:	4058                	lw	a4,4(s0)
20004118:	481c                	lw	a5,16(s0)
2000411a:	00e7c763          	blt	a5,a4,20004128 <_printf_i+0x140>
2000411e:	03000793          	li	a5,48
20004122:	fefa8fa3          	sb	a5,-1(s5)
20004126:	1afd                	addi	s5,s5,-1
20004128:	415686b3          	sub	a3,a3,s5
2000412c:	c814                	sw	a3,16(s0)
2000412e:	874e                	mv	a4,s3
20004130:	86ca                	mv	a3,s2
20004132:	0070                	addi	a2,sp,12
20004134:	85a2                	mv	a1,s0
20004136:	8526                	mv	a0,s1
20004138:	3355                	jal	20003edc <_printf_common>
2000413a:	5a7d                	li	s4,-1
2000413c:	0d451b63          	bne	a0,s4,20004212 <_printf_i+0x22a>
20004140:	557d                	li	a0,-1
20004142:	50b2                	lw	ra,44(sp)
20004144:	5422                	lw	s0,40(sp)
20004146:	5492                	lw	s1,36(sp)
20004148:	5902                	lw	s2,32(sp)
2000414a:	49f2                	lw	s3,28(sp)
2000414c:	4a62                	lw	s4,24(sp)
2000414e:	4ad2                	lw	s5,20(sp)
20004150:	4b42                	lw	s6,16(sp)
20004152:	6145                	addi	sp,sp,48
20004154:	8082                	ret
20004156:	050582a3          	sb	a6,69(a1)
2000415a:	00001617          	auipc	a2,0x1
2000415e:	b4660613          	addi	a2,a2,-1210 # 20004ca0 <__sf_fake_stdout+0x34>
20004162:	400c                	lw	a1,0(s0)
20004164:	4308                	lw	a0,0(a4)
20004166:	0805f813          	andi	a6,a1,128
2000416a:	411c                	lw	a5,0(a0)
2000416c:	0511                	addi	a0,a0,4
2000416e:	02080d63          	beqz	a6,200041a8 <_printf_i+0x1c0>
20004172:	c308                	sw	a0,0(a4)
20004174:	0015f713          	andi	a4,a1,1
20004178:	c701                	beqz	a4,20004180 <_printf_i+0x198>
2000417a:	0205e593          	ori	a1,a1,32
2000417e:	c00c                	sw	a1,0(s0)
20004180:	4841                	li	a6,16
20004182:	fbb1                	bnez	a5,200040d6 <_printf_i+0xee>
20004184:	4018                	lw	a4,0(s0)
20004186:	fdf77713          	andi	a4,a4,-33
2000418a:	c018                	sw	a4,0(s0)
2000418c:	b7a9                	j	200040d6 <_printf_i+0xee>
2000418e:	419c                	lw	a5,0(a1)
20004190:	0207e793          	ori	a5,a5,32
20004194:	c19c                	sw	a5,0(a1)
20004196:	07800793          	li	a5,120
2000419a:	04f402a3          	sb	a5,69(s0)
2000419e:	00001617          	auipc	a2,0x1
200041a2:	b1660613          	addi	a2,a2,-1258 # 20004cb4 <__sf_fake_stdout+0x48>
200041a6:	bf75                	j	20004162 <_printf_i+0x17a>
200041a8:	0405f813          	andi	a6,a1,64
200041ac:	c308                	sw	a0,0(a4)
200041ae:	fc0803e3          	beqz	a6,20004174 <_printf_i+0x18c>
200041b2:	07c2                	slli	a5,a5,0x10
200041b4:	83c1                	srli	a5,a5,0x10
200041b6:	bf7d                	j	20004174 <_printf_i+0x18c>
200041b8:	4821                	li	a6,8
200041ba:	bf31                	j	200040d6 <_printf_i+0xee>
200041bc:	4190                	lw	a2,0(a1)
200041be:	431c                	lw	a5,0(a4)
200041c0:	49cc                	lw	a1,20(a1)
200041c2:	08067813          	andi	a6,a2,128
200041c6:	00478513          	addi	a0,a5,4
200041ca:	00080663          	beqz	a6,200041d6 <_printf_i+0x1ee>
200041ce:	c308                	sw	a0,0(a4)
200041d0:	439c                	lw	a5,0(a5)
200041d2:	c38c                	sw	a1,0(a5)
200041d4:	a801                	j	200041e4 <_printf_i+0x1fc>
200041d6:	c308                	sw	a0,0(a4)
200041d8:	04067613          	andi	a2,a2,64
200041dc:	439c                	lw	a5,0(a5)
200041de:	da75                	beqz	a2,200041d2 <_printf_i+0x1ea>
200041e0:	00b79023          	sh	a1,0(a5)
200041e4:	00042823          	sw	zero,16(s0)
200041e8:	8ab6                	mv	s5,a3
200041ea:	b791                	j	2000412e <_printf_i+0x146>
200041ec:	431c                	lw	a5,0(a4)
200041ee:	41d0                	lw	a2,4(a1)
200041f0:	4581                	li	a1,0
200041f2:	00478693          	addi	a3,a5,4
200041f6:	c314                	sw	a3,0(a4)
200041f8:	0007aa83          	lw	s5,0(a5)
200041fc:	8556                	mv	a0,s5
200041fe:	2d39                	jal	2000481c <memchr>
20004200:	c501                	beqz	a0,20004208 <_printf_i+0x220>
20004202:	41550533          	sub	a0,a0,s5
20004206:	c048                	sw	a0,4(s0)
20004208:	405c                	lw	a5,4(s0)
2000420a:	c81c                	sw	a5,16(s0)
2000420c:	040401a3          	sb	zero,67(s0)
20004210:	bf39                	j	2000412e <_printf_i+0x146>
20004212:	4814                	lw	a3,16(s0)
20004214:	8656                	mv	a2,s5
20004216:	85ca                	mv	a1,s2
20004218:	8526                	mv	a0,s1
2000421a:	9982                	jalr	s3
2000421c:	f34502e3          	beq	a0,s4,20004140 <_printf_i+0x158>
20004220:	401c                	lw	a5,0(s0)
20004222:	8b89                	andi	a5,a5,2
20004224:	e78d                	bnez	a5,2000424e <_printf_i+0x266>
20004226:	47b2                	lw	a5,12(sp)
20004228:	4448                	lw	a0,12(s0)
2000422a:	f0f55ce3          	bge	a0,a5,20004142 <_printf_i+0x15a>
2000422e:	853e                	mv	a0,a5
20004230:	bf09                	j	20004142 <_printf_i+0x15a>
20004232:	4685                	li	a3,1
20004234:	8656                	mv	a2,s5
20004236:	85ca                	mv	a1,s2
20004238:	8526                	mv	a0,s1
2000423a:	9982                	jalr	s3
2000423c:	f16502e3          	beq	a0,s6,20004140 <_printf_i+0x158>
20004240:	0a05                	addi	s4,s4,1
20004242:	445c                	lw	a5,12(s0)
20004244:	4732                	lw	a4,12(sp)
20004246:	8f99                	sub	a5,a5,a4
20004248:	fefa45e3          	blt	s4,a5,20004232 <_printf_i+0x24a>
2000424c:	bfe9                	j	20004226 <_printf_i+0x23e>
2000424e:	4a01                	li	s4,0
20004250:	01940a93          	addi	s5,s0,25
20004254:	5b7d                	li	s6,-1
20004256:	b7f5                	j	20004242 <_printf_i+0x25a>

20004258 <__sread>:
__sread():
20004258:	1141                	addi	sp,sp,-16
2000425a:	c422                	sw	s0,8(sp)
2000425c:	842e                	mv	s0,a1
2000425e:	00e59583          	lh	a1,14(a1)
20004262:	c606                	sw	ra,12(sp)
20004264:	2bc9                	jal	20004836 <_read_r>
20004266:	00054963          	bltz	a0,20004278 <__sread+0x20>
2000426a:	487c                	lw	a5,84(s0)
2000426c:	97aa                	add	a5,a5,a0
2000426e:	c87c                	sw	a5,84(s0)
20004270:	40b2                	lw	ra,12(sp)
20004272:	4422                	lw	s0,8(sp)
20004274:	0141                	addi	sp,sp,16
20004276:	8082                	ret
20004278:	00c45783          	lhu	a5,12(s0)
2000427c:	777d                	lui	a4,0xfffff
2000427e:	177d                	addi	a4,a4,-1
20004280:	8ff9                	and	a5,a5,a4
20004282:	00f41623          	sh	a5,12(s0)
20004286:	b7ed                	j	20004270 <__sread+0x18>

20004288 <__swrite>:
__swrite():
20004288:	00c5d783          	lhu	a5,12(a1)
2000428c:	1101                	addi	sp,sp,-32
2000428e:	cc22                	sw	s0,24(sp)
20004290:	ca26                	sw	s1,20(sp)
20004292:	c84a                	sw	s2,16(sp)
20004294:	c64e                	sw	s3,12(sp)
20004296:	ce06                	sw	ra,28(sp)
20004298:	1007f793          	andi	a5,a5,256
2000429c:	84aa                	mv	s1,a0
2000429e:	842e                	mv	s0,a1
200042a0:	8932                	mv	s2,a2
200042a2:	89b6                	mv	s3,a3
200042a4:	c791                	beqz	a5,200042b0 <__swrite+0x28>
200042a6:	00e59583          	lh	a1,14(a1)
200042aa:	4689                	li	a3,2
200042ac:	4601                	li	a2,0
200042ae:	2189                	jal	200046f0 <_lseek_r>
200042b0:	00c45783          	lhu	a5,12(s0)
200042b4:	777d                	lui	a4,0xfffff
200042b6:	177d                	addi	a4,a4,-1
200042b8:	8ff9                	and	a5,a5,a4
200042ba:	00e41583          	lh	a1,14(s0)
200042be:	00f41623          	sh	a5,12(s0)
200042c2:	4462                	lw	s0,24(sp)
200042c4:	40f2                	lw	ra,28(sp)
200042c6:	86ce                	mv	a3,s3
200042c8:	864a                	mv	a2,s2
200042ca:	49b2                	lw	s3,12(sp)
200042cc:	4942                	lw	s2,16(sp)
200042ce:	8526                	mv	a0,s1
200042d0:	44d2                	lw	s1,20(sp)
200042d2:	6105                	addi	sp,sp,32
200042d4:	a201                	j	200043d4 <_write_r>

200042d6 <__sseek>:
__sseek():
200042d6:	1141                	addi	sp,sp,-16
200042d8:	c422                	sw	s0,8(sp)
200042da:	842e                	mv	s0,a1
200042dc:	00e59583          	lh	a1,14(a1)
200042e0:	c606                	sw	ra,12(sp)
200042e2:	2139                	jal	200046f0 <_lseek_r>
200042e4:	57fd                	li	a5,-1
200042e6:	00c45703          	lhu	a4,12(s0)
200042ea:	00f51b63          	bne	a0,a5,20004300 <__sseek+0x2a>
200042ee:	77fd                	lui	a5,0xfffff
200042f0:	17fd                	addi	a5,a5,-1
200042f2:	8ff9                	and	a5,a5,a4
200042f4:	00f41623          	sh	a5,12(s0)
200042f8:	40b2                	lw	ra,12(sp)
200042fa:	4422                	lw	s0,8(sp)
200042fc:	0141                	addi	sp,sp,16
200042fe:	8082                	ret
20004300:	6785                	lui	a5,0x1
20004302:	8fd9                	or	a5,a5,a4
20004304:	00f41623          	sh	a5,12(s0)
20004308:	c868                	sw	a0,84(s0)
2000430a:	b7fd                	j	200042f8 <__sseek+0x22>

2000430c <__sclose>:
__sclose():
2000430c:	00e59583          	lh	a1,14(a1)
20004310:	a409                	j	20004512 <_close_r>

20004312 <__swbuf_r>:
__swbuf_r():
20004312:	1101                	addi	sp,sp,-32
20004314:	cc22                	sw	s0,24(sp)
20004316:	ca26                	sw	s1,20(sp)
20004318:	c84a                	sw	s2,16(sp)
2000431a:	ce06                	sw	ra,28(sp)
2000431c:	c64e                	sw	s3,12(sp)
2000431e:	84aa                	mv	s1,a0
20004320:	892e                	mv	s2,a1
20004322:	8432                	mv	s0,a2
20004324:	c509                	beqz	a0,2000432e <__swbuf_r+0x1c>
20004326:	4d1c                	lw	a5,24(a0)
20004328:	e399                	bnez	a5,2000432e <__swbuf_r+0x1c>
2000432a:	f3aff0ef          	jal	ra,20003a64 <__sinit>
2000432e:	00001797          	auipc	a5,0x1
20004332:	91e78793          	addi	a5,a5,-1762 # 20004c4c <__sf_fake_stdin>
20004336:	06f41963          	bne	s0,a5,200043a8 <__swbuf_r+0x96>
2000433a:	40c0                	lw	s0,4(s1)
2000433c:	4c1c                	lw	a5,24(s0)
2000433e:	c41c                	sw	a5,8(s0)
20004340:	00c45783          	lhu	a5,12(s0)
20004344:	8ba1                	andi	a5,a5,8
20004346:	c3c9                	beqz	a5,200043c8 <__swbuf_r+0xb6>
20004348:	481c                	lw	a5,16(s0)
2000434a:	cfbd                	beqz	a5,200043c8 <__swbuf_r+0xb6>
2000434c:	481c                	lw	a5,16(s0)
2000434e:	4008                	lw	a0,0(s0)
20004350:	0ff97993          	zext.b	s3,s2
20004354:	0ff97913          	zext.b	s2,s2
20004358:	8d1d                	sub	a0,a0,a5
2000435a:	485c                	lw	a5,20(s0)
2000435c:	00f54663          	blt	a0,a5,20004368 <__swbuf_r+0x56>
20004360:	85a2                	mv	a1,s0
20004362:	8526                	mv	a0,s1
20004364:	261d                	jal	2000468a <_fflush_r>
20004366:	e52d                	bnez	a0,200043d0 <__swbuf_r+0xbe>
20004368:	441c                	lw	a5,8(s0)
2000436a:	0505                	addi	a0,a0,1
2000436c:	17fd                	addi	a5,a5,-1
2000436e:	c41c                	sw	a5,8(s0)
20004370:	401c                	lw	a5,0(s0)
20004372:	00178713          	addi	a4,a5,1
20004376:	c018                	sw	a4,0(s0)
20004378:	01378023          	sb	s3,0(a5)
2000437c:	485c                	lw	a5,20(s0)
2000437e:	00a78963          	beq	a5,a0,20004390 <__swbuf_r+0x7e>
20004382:	00c45783          	lhu	a5,12(s0)
20004386:	8b85                	andi	a5,a5,1
20004388:	cb81                	beqz	a5,20004398 <__swbuf_r+0x86>
2000438a:	47a9                	li	a5,10
2000438c:	00f91663          	bne	s2,a5,20004398 <__swbuf_r+0x86>
20004390:	85a2                	mv	a1,s0
20004392:	8526                	mv	a0,s1
20004394:	2cdd                	jal	2000468a <_fflush_r>
20004396:	ed0d                	bnez	a0,200043d0 <__swbuf_r+0xbe>
20004398:	40f2                	lw	ra,28(sp)
2000439a:	4462                	lw	s0,24(sp)
2000439c:	44d2                	lw	s1,20(sp)
2000439e:	49b2                	lw	s3,12(sp)
200043a0:	854a                	mv	a0,s2
200043a2:	4942                	lw	s2,16(sp)
200043a4:	6105                	addi	sp,sp,32
200043a6:	8082                	ret
200043a8:	00001797          	auipc	a5,0x1
200043ac:	8c478793          	addi	a5,a5,-1852 # 20004c6c <__sf_fake_stdout>
200043b0:	00f41463          	bne	s0,a5,200043b8 <__swbuf_r+0xa6>
200043b4:	4480                	lw	s0,8(s1)
200043b6:	b759                	j	2000433c <__swbuf_r+0x2a>
200043b8:	00001797          	auipc	a5,0x1
200043bc:	87478793          	addi	a5,a5,-1932 # 20004c2c <__sf_fake_stderr>
200043c0:	f6f41ee3          	bne	s0,a5,2000433c <__swbuf_r+0x2a>
200043c4:	44c0                	lw	s0,12(s1)
200043c6:	bf9d                	j	2000433c <__swbuf_r+0x2a>
200043c8:	85a2                	mv	a1,s0
200043ca:	8526                	mv	a0,s1
200043cc:	2835                	jal	20004408 <__swsetup_r>
200043ce:	dd3d                	beqz	a0,2000434c <__swbuf_r+0x3a>
200043d0:	597d                	li	s2,-1
200043d2:	b7d9                	j	20004398 <__swbuf_r+0x86>

200043d4 <_write_r>:
_write_r():
200043d4:	1141                	addi	sp,sp,-16
200043d6:	c422                	sw	s0,8(sp)
200043d8:	842a                	mv	s0,a0
200043da:	852e                	mv	a0,a1
200043dc:	85b2                	mv	a1,a2
200043de:	8636                	mv	a2,a3
200043e0:	70004797          	auipc	a5,0x70004
200043e4:	e007ac23          	sw	zero,-488(a5) # 900081f8 <errno>
200043e8:	c606                	sw	ra,12(sp)
200043ea:	850fc0ef          	jal	ra,2000043a <_write>
200043ee:	57fd                	li	a5,-1
200043f0:	00f51863          	bne	a0,a5,20004400 <_write_r+0x2c>
200043f4:	70004797          	auipc	a5,0x70004
200043f8:	e047a783          	lw	a5,-508(a5) # 900081f8 <errno>
200043fc:	c391                	beqz	a5,20004400 <_write_r+0x2c>
200043fe:	c01c                	sw	a5,0(s0)
20004400:	40b2                	lw	ra,12(sp)
20004402:	4422                	lw	s0,8(sp)
20004404:	0141                	addi	sp,sp,16
20004406:	8082                	ret

20004408 <__swsetup_r>:
__swsetup_r():
20004408:	1141                	addi	sp,sp,-16
2000440a:	c422                	sw	s0,8(sp)
2000440c:	c226                	sw	s1,4(sp)
2000440e:	c04a                	sw	s2,0(sp)
20004410:	c606                	sw	ra,12(sp)
20004412:	8101a483          	lw	s1,-2032(gp) # 90000070 <_impure_ptr>
20004416:	892a                	mv	s2,a0
20004418:	842e                	mv	s0,a1
2000441a:	c491                	beqz	s1,20004426 <__swsetup_r+0x1e>
2000441c:	4c9c                	lw	a5,24(s1)
2000441e:	e781                	bnez	a5,20004426 <__swsetup_r+0x1e>
20004420:	8526                	mv	a0,s1
20004422:	e42ff0ef          	jal	ra,20003a64 <__sinit>
20004426:	00001797          	auipc	a5,0x1
2000442a:	82678793          	addi	a5,a5,-2010 # 20004c4c <__sf_fake_stdin>
2000442e:	02f41763          	bne	s0,a5,2000445c <__swsetup_r+0x54>
20004432:	40c0                	lw	s0,4(s1)
20004434:	00c41783          	lh	a5,12(s0)
20004438:	01079713          	slli	a4,a5,0x10
2000443c:	0087f693          	andi	a3,a5,8
20004440:	8341                	srli	a4,a4,0x10
20004442:	eab5                	bnez	a3,200044b6 <__swsetup_r+0xae>
20004444:	01077693          	andi	a3,a4,16
20004448:	ea95                	bnez	a3,2000447c <__swsetup_r+0x74>
2000444a:	4725                	li	a4,9
2000444c:	00e92023          	sw	a4,0(s2)
20004450:	0407e793          	ori	a5,a5,64
20004454:	00f41623          	sh	a5,12(s0)
20004458:	557d                	li	a0,-1
2000445a:	a879                	j	200044f8 <__swsetup_r+0xf0>
2000445c:	00001797          	auipc	a5,0x1
20004460:	81078793          	addi	a5,a5,-2032 # 20004c6c <__sf_fake_stdout>
20004464:	00f41463          	bne	s0,a5,2000446c <__swsetup_r+0x64>
20004468:	4480                	lw	s0,8(s1)
2000446a:	b7e9                	j	20004434 <__swsetup_r+0x2c>
2000446c:	00000797          	auipc	a5,0x0
20004470:	7c078793          	addi	a5,a5,1984 # 20004c2c <__sf_fake_stderr>
20004474:	fcf410e3          	bne	s0,a5,20004434 <__swsetup_r+0x2c>
20004478:	44c0                	lw	s0,12(s1)
2000447a:	bf6d                	j	20004434 <__swsetup_r+0x2c>
2000447c:	8b11                	andi	a4,a4,4
2000447e:	c715                	beqz	a4,200044aa <__swsetup_r+0xa2>
20004480:	584c                	lw	a1,52(s0)
20004482:	c991                	beqz	a1,20004496 <__swsetup_r+0x8e>
20004484:	04440793          	addi	a5,s0,68
20004488:	00f58563          	beq	a1,a5,20004492 <__swsetup_r+0x8a>
2000448c:	854a                	mv	a0,s2
2000448e:	abcff0ef          	jal	ra,2000374a <_free_r>
20004492:	02042a23          	sw	zero,52(s0)
20004496:	00c45783          	lhu	a5,12(s0)
2000449a:	00042223          	sw	zero,4(s0)
2000449e:	fdb7f793          	andi	a5,a5,-37
200044a2:	00f41623          	sh	a5,12(s0)
200044a6:	481c                	lw	a5,16(s0)
200044a8:	c01c                	sw	a5,0(s0)
200044aa:	00c45783          	lhu	a5,12(s0)
200044ae:	0087e793          	ori	a5,a5,8
200044b2:	00f41623          	sh	a5,12(s0)
200044b6:	481c                	lw	a5,16(s0)
200044b8:	ef81                	bnez	a5,200044d0 <__swsetup_r+0xc8>
200044ba:	00c45783          	lhu	a5,12(s0)
200044be:	20000713          	li	a4,512
200044c2:	2807f793          	andi	a5,a5,640
200044c6:	00e78563          	beq	a5,a4,200044d0 <__swsetup_r+0xc8>
200044ca:	85a2                	mv	a1,s0
200044cc:	854a                	mv	a0,s2
200044ce:	2c45                	jal	2000477e <__smakebuf_r>
200044d0:	00c41783          	lh	a5,12(s0)
200044d4:	01079713          	slli	a4,a5,0x10
200044d8:	0017f693          	andi	a3,a5,1
200044dc:	8341                	srli	a4,a4,0x10
200044de:	c29d                	beqz	a3,20004504 <__swsetup_r+0xfc>
200044e0:	4854                	lw	a3,20(s0)
200044e2:	00042423          	sw	zero,8(s0)
200044e6:	40d006b3          	neg	a3,a3
200044ea:	cc14                	sw	a3,24(s0)
200044ec:	4814                	lw	a3,16(s0)
200044ee:	4501                	li	a0,0
200044f0:	e681                	bnez	a3,200044f8 <__swsetup_r+0xf0>
200044f2:	08077713          	andi	a4,a4,128
200044f6:	ff29                	bnez	a4,20004450 <__swsetup_r+0x48>
200044f8:	40b2                	lw	ra,12(sp)
200044fa:	4422                	lw	s0,8(sp)
200044fc:	4492                	lw	s1,4(sp)
200044fe:	4902                	lw	s2,0(sp)
20004500:	0141                	addi	sp,sp,16
20004502:	8082                	ret
20004504:	00277693          	andi	a3,a4,2
20004508:	4601                	li	a2,0
2000450a:	e291                	bnez	a3,2000450e <__swsetup_r+0x106>
2000450c:	4850                	lw	a2,20(s0)
2000450e:	c410                	sw	a2,8(s0)
20004510:	bff1                	j	200044ec <__swsetup_r+0xe4>

20004512 <_close_r>:
_close_r():
20004512:	1141                	addi	sp,sp,-16
20004514:	c422                	sw	s0,8(sp)
20004516:	842a                	mv	s0,a0
20004518:	852e                	mv	a0,a1
2000451a:	70004797          	auipc	a5,0x70004
2000451e:	cc07af23          	sw	zero,-802(a5) # 900081f8 <errno>
20004522:	c606                	sw	ra,12(sp)
20004524:	f95fb0ef          	jal	ra,200004b8 <_close>
20004528:	57fd                	li	a5,-1
2000452a:	00f51863          	bne	a0,a5,2000453a <_close_r+0x28>
2000452e:	70004797          	auipc	a5,0x70004
20004532:	cca7a783          	lw	a5,-822(a5) # 900081f8 <errno>
20004536:	c391                	beqz	a5,2000453a <_close_r+0x28>
20004538:	c01c                	sw	a5,0(s0)
2000453a:	40b2                	lw	ra,12(sp)
2000453c:	4422                	lw	s0,8(sp)
2000453e:	0141                	addi	sp,sp,16
20004540:	8082                	ret

20004542 <__sflush_r>:
__sflush_r():
20004542:	00c5d783          	lhu	a5,12(a1)
20004546:	1101                	addi	sp,sp,-32
20004548:	cc22                	sw	s0,24(sp)
2000454a:	ca26                	sw	s1,20(sp)
2000454c:	ce06                	sw	ra,28(sp)
2000454e:	c84a                	sw	s2,16(sp)
20004550:	c64e                	sw	s3,12(sp)
20004552:	0087f713          	andi	a4,a5,8
20004556:	84aa                	mv	s1,a0
20004558:	842e                	mv	s0,a1
2000455a:	e37d                	bnez	a4,20004640 <__sflush_r+0xfe>
2000455c:	41d8                	lw	a4,4(a1)
2000455e:	00e04763          	bgtz	a4,2000456c <__sflush_r+0x2a>
20004562:	41b8                	lw	a4,64(a1)
20004564:	00e04463          	bgtz	a4,2000456c <__sflush_r+0x2a>
20004568:	4501                	li	a0,0
2000456a:	a87d                	j	20004628 <__sflush_r+0xe6>
2000456c:	5458                	lw	a4,44(s0)
2000456e:	df6d                	beqz	a4,20004568 <__sflush_r+0x26>
20004570:	6685                	lui	a3,0x1
20004572:	0004a903          	lw	s2,0(s1)
20004576:	8ff5                	and	a5,a5,a3
20004578:	0004a023          	sw	zero,0(s1)
2000457c:	cfad                	beqz	a5,200045f6 <__sflush_r+0xb4>
2000457e:	4868                	lw	a0,84(s0)
20004580:	00c45783          	lhu	a5,12(s0)
20004584:	8b91                	andi	a5,a5,4
20004586:	c799                	beqz	a5,20004594 <__sflush_r+0x52>
20004588:	405c                	lw	a5,4(s0)
2000458a:	8d1d                	sub	a0,a0,a5
2000458c:	585c                	lw	a5,52(s0)
2000458e:	c399                	beqz	a5,20004594 <__sflush_r+0x52>
20004590:	403c                	lw	a5,64(s0)
20004592:	8d1d                	sub	a0,a0,a5
20004594:	545c                	lw	a5,44(s0)
20004596:	500c                	lw	a1,32(s0)
20004598:	862a                	mv	a2,a0
2000459a:	4681                	li	a3,0
2000459c:	8526                	mv	a0,s1
2000459e:	9782                	jalr	a5
200045a0:	57fd                	li	a5,-1
200045a2:	00c45703          	lhu	a4,12(s0)
200045a6:	00f51d63          	bne	a0,a5,200045c0 <__sflush_r+0x7e>
200045aa:	4094                	lw	a3,0(s1)
200045ac:	47f5                	li	a5,29
200045ae:	08d7e463          	bltu	a5,a3,20004636 <__sflush_r+0xf4>
200045b2:	204007b7          	lui	a5,0x20400
200045b6:	0785                	addi	a5,a5,1
200045b8:	00d7d7b3          	srl	a5,a5,a3
200045bc:	8b85                	andi	a5,a5,1
200045be:	cfa5                	beqz	a5,20004636 <__sflush_r+0xf4>
200045c0:	481c                	lw	a5,16(s0)
200045c2:	00042223          	sw	zero,4(s0)
200045c6:	c01c                	sw	a5,0(s0)
200045c8:	6785                	lui	a5,0x1
200045ca:	8f7d                	and	a4,a4,a5
200045cc:	c719                	beqz	a4,200045da <__sflush_r+0x98>
200045ce:	57fd                	li	a5,-1
200045d0:	00f51463          	bne	a0,a5,200045d8 <__sflush_r+0x96>
200045d4:	409c                	lw	a5,0(s1)
200045d6:	e391                	bnez	a5,200045da <__sflush_r+0x98>
200045d8:	c868                	sw	a0,84(s0)
200045da:	584c                	lw	a1,52(s0)
200045dc:	0124a023          	sw	s2,0(s1)
200045e0:	d5c1                	beqz	a1,20004568 <__sflush_r+0x26>
200045e2:	04440793          	addi	a5,s0,68
200045e6:	00f58563          	beq	a1,a5,200045f0 <__sflush_r+0xae>
200045ea:	8526                	mv	a0,s1
200045ec:	95eff0ef          	jal	ra,2000374a <_free_r>
200045f0:	02042a23          	sw	zero,52(s0)
200045f4:	bf95                	j	20004568 <__sflush_r+0x26>
200045f6:	500c                	lw	a1,32(s0)
200045f8:	4685                	li	a3,1
200045fa:	4601                	li	a2,0
200045fc:	8526                	mv	a0,s1
200045fe:	9702                	jalr	a4
20004600:	57fd                	li	a5,-1
20004602:	f6f51fe3          	bne	a0,a5,20004580 <__sflush_r+0x3e>
20004606:	409c                	lw	a5,0(s1)
20004608:	dfa5                	beqz	a5,20004580 <__sflush_r+0x3e>
2000460a:	4775                	li	a4,29
2000460c:	00e78563          	beq	a5,a4,20004616 <__sflush_r+0xd4>
20004610:	4759                	li	a4,22
20004612:	00e79563          	bne	a5,a4,2000461c <__sflush_r+0xda>
20004616:	0124a023          	sw	s2,0(s1)
2000461a:	b7b9                	j	20004568 <__sflush_r+0x26>
2000461c:	00c45783          	lhu	a5,12(s0)
20004620:	0407e793          	ori	a5,a5,64
20004624:	00f41623          	sh	a5,12(s0)
20004628:	40f2                	lw	ra,28(sp)
2000462a:	4462                	lw	s0,24(sp)
2000462c:	44d2                	lw	s1,20(sp)
2000462e:	4942                	lw	s2,16(sp)
20004630:	49b2                	lw	s3,12(sp)
20004632:	6105                	addi	sp,sp,32
20004634:	8082                	ret
20004636:	04076713          	ori	a4,a4,64
2000463a:	00e41623          	sh	a4,12(s0)
2000463e:	b7ed                	j	20004628 <__sflush_r+0xe6>
20004640:	0105a983          	lw	s3,16(a1)
20004644:	f20982e3          	beqz	s3,20004568 <__sflush_r+0x26>
20004648:	0005a903          	lw	s2,0(a1)
2000464c:	8b8d                	andi	a5,a5,3
2000464e:	0135a023          	sw	s3,0(a1)
20004652:	41390933          	sub	s2,s2,s3
20004656:	4701                	li	a4,0
20004658:	e391                	bnez	a5,2000465c <__sflush_r+0x11a>
2000465a:	49d8                	lw	a4,20(a1)
2000465c:	c418                	sw	a4,8(s0)
2000465e:	f12055e3          	blez	s2,20004568 <__sflush_r+0x26>
20004662:	541c                	lw	a5,40(s0)
20004664:	500c                	lw	a1,32(s0)
20004666:	86ca                	mv	a3,s2
20004668:	864e                	mv	a2,s3
2000466a:	8526                	mv	a0,s1
2000466c:	9782                	jalr	a5
2000466e:	00a04a63          	bgtz	a0,20004682 <__sflush_r+0x140>
20004672:	00c45783          	lhu	a5,12(s0)
20004676:	557d                	li	a0,-1
20004678:	0407e793          	ori	a5,a5,64
2000467c:	00f41623          	sh	a5,12(s0)
20004680:	b765                	j	20004628 <__sflush_r+0xe6>
20004682:	99aa                	add	s3,s3,a0
20004684:	40a90933          	sub	s2,s2,a0
20004688:	bfd9                	j	2000465e <__sflush_r+0x11c>

2000468a <_fflush_r>:
_fflush_r():
2000468a:	499c                	lw	a5,16(a1)
2000468c:	c3a5                	beqz	a5,200046ec <_fflush_r+0x62>
2000468e:	1101                	addi	sp,sp,-32
20004690:	cc22                	sw	s0,24(sp)
20004692:	ce06                	sw	ra,28(sp)
20004694:	842a                	mv	s0,a0
20004696:	c519                	beqz	a0,200046a4 <_fflush_r+0x1a>
20004698:	4d1c                	lw	a5,24(a0)
2000469a:	e789                	bnez	a5,200046a4 <_fflush_r+0x1a>
2000469c:	c62e                	sw	a1,12(sp)
2000469e:	bc6ff0ef          	jal	ra,20003a64 <__sinit>
200046a2:	45b2                	lw	a1,12(sp)
200046a4:	00000797          	auipc	a5,0x0
200046a8:	5a878793          	addi	a5,a5,1448 # 20004c4c <__sf_fake_stdin>
200046ac:	00f59b63          	bne	a1,a5,200046c2 <_fflush_r+0x38>
200046b0:	404c                	lw	a1,4(s0)
200046b2:	00c59783          	lh	a5,12(a1)
200046b6:	c795                	beqz	a5,200046e2 <_fflush_r+0x58>
200046b8:	8522                	mv	a0,s0
200046ba:	4462                	lw	s0,24(sp)
200046bc:	40f2                	lw	ra,28(sp)
200046be:	6105                	addi	sp,sp,32
200046c0:	b549                	j	20004542 <__sflush_r>
200046c2:	00000797          	auipc	a5,0x0
200046c6:	5aa78793          	addi	a5,a5,1450 # 20004c6c <__sf_fake_stdout>
200046ca:	00f59463          	bne	a1,a5,200046d2 <_fflush_r+0x48>
200046ce:	440c                	lw	a1,8(s0)
200046d0:	b7cd                	j	200046b2 <_fflush_r+0x28>
200046d2:	00000797          	auipc	a5,0x0
200046d6:	55a78793          	addi	a5,a5,1370 # 20004c2c <__sf_fake_stderr>
200046da:	fcf59ce3          	bne	a1,a5,200046b2 <_fflush_r+0x28>
200046de:	444c                	lw	a1,12(s0)
200046e0:	bfc9                	j	200046b2 <_fflush_r+0x28>
200046e2:	40f2                	lw	ra,28(sp)
200046e4:	4462                	lw	s0,24(sp)
200046e6:	4501                	li	a0,0
200046e8:	6105                	addi	sp,sp,32
200046ea:	8082                	ret
200046ec:	4501                	li	a0,0
200046ee:	8082                	ret

200046f0 <_lseek_r>:
_lseek_r():
200046f0:	1141                	addi	sp,sp,-16
200046f2:	c422                	sw	s0,8(sp)
200046f4:	842a                	mv	s0,a0
200046f6:	852e                	mv	a0,a1
200046f8:	85b2                	mv	a1,a2
200046fa:	8636                	mv	a2,a3
200046fc:	70004797          	auipc	a5,0x70004
20004700:	ae07ae23          	sw	zero,-1284(a5) # 900081f8 <errno>
20004704:	c606                	sw	ra,12(sp)
20004706:	dbffb0ef          	jal	ra,200004c4 <_lseek>
2000470a:	57fd                	li	a5,-1
2000470c:	00f51863          	bne	a0,a5,2000471c <_lseek_r+0x2c>
20004710:	70004797          	auipc	a5,0x70004
20004714:	ae87a783          	lw	a5,-1304(a5) # 900081f8 <errno>
20004718:	c391                	beqz	a5,2000471c <_lseek_r+0x2c>
2000471a:	c01c                	sw	a5,0(s0)
2000471c:	40b2                	lw	ra,12(sp)
2000471e:	4422                	lw	s0,8(sp)
20004720:	0141                	addi	sp,sp,16
20004722:	8082                	ret

20004724 <__swhatbuf_r>:
__swhatbuf_r():
20004724:	7159                	addi	sp,sp,-112
20004726:	d0ca                	sw	s2,96(sp)
20004728:	892e                	mv	s2,a1
2000472a:	00e59583          	lh	a1,14(a1)
2000472e:	d4a2                	sw	s0,104(sp)
20004730:	d2a6                	sw	s1,100(sp)
20004732:	d686                	sw	ra,108(sp)
20004734:	8432                	mv	s0,a2
20004736:	84b6                	mv	s1,a3
20004738:	0005dc63          	bgez	a1,20004750 <__swhatbuf_r+0x2c>
2000473c:	00c91783          	lh	a5,12(s2)
20004740:	0004a023          	sw	zero,0(s1)
20004744:	0807f793          	andi	a5,a5,128
20004748:	e38d                	bnez	a5,2000476a <__swhatbuf_r+0x46>
2000474a:	40000793          	li	a5,1024
2000474e:	a005                	j	2000476e <__swhatbuf_r+0x4a>
20004750:	0030                	addi	a2,sp,8
20004752:	2a21                	jal	2000486a <_fstat_r>
20004754:	fe0544e3          	bltz	a0,2000473c <__swhatbuf_r+0x18>
20004758:	4732                	lw	a4,12(sp)
2000475a:	67bd                	lui	a5,0xf
2000475c:	8ff9                	and	a5,a5,a4
2000475e:	7779                	lui	a4,0xffffe
20004760:	97ba                	add	a5,a5,a4
20004762:	0017b793          	seqz	a5,a5
20004766:	c09c                	sw	a5,0(s1)
20004768:	b7cd                	j	2000474a <__swhatbuf_r+0x26>
2000476a:	04000793          	li	a5,64
2000476e:	50b6                	lw	ra,108(sp)
20004770:	c01c                	sw	a5,0(s0)
20004772:	5426                	lw	s0,104(sp)
20004774:	5496                	lw	s1,100(sp)
20004776:	5906                	lw	s2,96(sp)
20004778:	4501                	li	a0,0
2000477a:	6165                	addi	sp,sp,112
2000477c:	8082                	ret

2000477e <__smakebuf_r>:
__smakebuf_r():
2000477e:	00c5d783          	lhu	a5,12(a1)
20004782:	1101                	addi	sp,sp,-32
20004784:	cc22                	sw	s0,24(sp)
20004786:	ce06                	sw	ra,28(sp)
20004788:	ca26                	sw	s1,20(sp)
2000478a:	c84a                	sw	s2,16(sp)
2000478c:	8b89                	andi	a5,a5,2
2000478e:	842e                	mv	s0,a1
20004790:	cf89                	beqz	a5,200047aa <__smakebuf_r+0x2c>
20004792:	04740793          	addi	a5,s0,71
20004796:	c01c                	sw	a5,0(s0)
20004798:	c81c                	sw	a5,16(s0)
2000479a:	4785                	li	a5,1
2000479c:	c85c                	sw	a5,20(s0)
2000479e:	40f2                	lw	ra,28(sp)
200047a0:	4462                	lw	s0,24(sp)
200047a2:	44d2                	lw	s1,20(sp)
200047a4:	4942                	lw	s2,16(sp)
200047a6:	6105                	addi	sp,sp,32
200047a8:	8082                	ret
200047aa:	0074                	addi	a3,sp,12
200047ac:	0030                	addi	a2,sp,8
200047ae:	892a                	mv	s2,a0
200047b0:	3f95                	jal	20004724 <__swhatbuf_r>
200047b2:	45a2                	lw	a1,8(sp)
200047b4:	84aa                	mv	s1,a0
200047b6:	854a                	mv	a0,s2
200047b8:	834ff0ef          	jal	ra,200037ec <_malloc_r>
200047bc:	ed01                	bnez	a0,200047d4 <__smakebuf_r+0x56>
200047be:	00c41783          	lh	a5,12(s0)
200047c2:	2007f713          	andi	a4,a5,512
200047c6:	ff61                	bnez	a4,2000479e <__smakebuf_r+0x20>
200047c8:	9bf1                	andi	a5,a5,-4
200047ca:	0027e793          	ori	a5,a5,2
200047ce:	00f41623          	sh	a5,12(s0)
200047d2:	b7c1                	j	20004792 <__smakebuf_r+0x14>
200047d4:	fffff797          	auipc	a5,0xfffff
200047d8:	24078793          	addi	a5,a5,576 # 20003a14 <_cleanup_r>
200047dc:	02f92423          	sw	a5,40(s2)
200047e0:	00c45783          	lhu	a5,12(s0)
200047e4:	c008                	sw	a0,0(s0)
200047e6:	c808                	sw	a0,16(s0)
200047e8:	0807e793          	ori	a5,a5,128
200047ec:	00f41623          	sh	a5,12(s0)
200047f0:	47a2                	lw	a5,8(sp)
200047f2:	c85c                	sw	a5,20(s0)
200047f4:	47b2                	lw	a5,12(sp)
200047f6:	cf89                	beqz	a5,20004810 <__smakebuf_r+0x92>
200047f8:	00e41583          	lh	a1,14(s0)
200047fc:	854a                	mv	a0,s2
200047fe:	2879                	jal	2000489c <_isatty_r>
20004800:	c901                	beqz	a0,20004810 <__smakebuf_r+0x92>
20004802:	00c45783          	lhu	a5,12(s0)
20004806:	9bf1                	andi	a5,a5,-4
20004808:	0017e793          	ori	a5,a5,1
2000480c:	00f41623          	sh	a5,12(s0)
20004810:	00c45503          	lhu	a0,12(s0)
20004814:	8cc9                	or	s1,s1,a0
20004816:	00941623          	sh	s1,12(s0)
2000481a:	b751                	j	2000479e <__smakebuf_r+0x20>

2000481c <memchr>:
memchr():
2000481c:	0ff5f593          	zext.b	a1,a1
20004820:	962a                	add	a2,a2,a0
20004822:	00c51463          	bne	a0,a2,2000482a <memchr+0xe>
20004826:	4501                	li	a0,0
20004828:	8082                	ret
2000482a:	00054783          	lbu	a5,0(a0)
2000482e:	feb78de3          	beq	a5,a1,20004828 <memchr+0xc>
20004832:	0505                	addi	a0,a0,1
20004834:	b7fd                	j	20004822 <memchr+0x6>

20004836 <_read_r>:
_read_r():
20004836:	1141                	addi	sp,sp,-16
20004838:	c422                	sw	s0,8(sp)
2000483a:	842a                	mv	s0,a0
2000483c:	852e                	mv	a0,a1
2000483e:	85b2                	mv	a1,a2
20004840:	8636                	mv	a2,a3
20004842:	70004797          	auipc	a5,0x70004
20004846:	9a07ab23          	sw	zero,-1610(a5) # 900081f8 <errno>
2000484a:	c606                	sw	ra,12(sp)
2000484c:	c7dfb0ef          	jal	ra,200004c8 <_read>
20004850:	57fd                	li	a5,-1
20004852:	00f51863          	bne	a0,a5,20004862 <_read_r+0x2c>
20004856:	70004797          	auipc	a5,0x70004
2000485a:	9a27a783          	lw	a5,-1630(a5) # 900081f8 <errno>
2000485e:	c391                	beqz	a5,20004862 <_read_r+0x2c>
20004860:	c01c                	sw	a5,0(s0)
20004862:	40b2                	lw	ra,12(sp)
20004864:	4422                	lw	s0,8(sp)
20004866:	0141                	addi	sp,sp,16
20004868:	8082                	ret

2000486a <_fstat_r>:
_fstat_r():
2000486a:	1141                	addi	sp,sp,-16
2000486c:	c422                	sw	s0,8(sp)
2000486e:	842a                	mv	s0,a0
20004870:	852e                	mv	a0,a1
20004872:	85b2                	mv	a1,a2
20004874:	70004797          	auipc	a5,0x70004
20004878:	9807a223          	sw	zero,-1660(a5) # 900081f8 <errno>
2000487c:	c606                	sw	ra,12(sp)
2000487e:	c3ffb0ef          	jal	ra,200004bc <_fstat>
20004882:	57fd                	li	a5,-1
20004884:	00f51863          	bne	a0,a5,20004894 <_fstat_r+0x2a>
20004888:	70004797          	auipc	a5,0x70004
2000488c:	9707a783          	lw	a5,-1680(a5) # 900081f8 <errno>
20004890:	c391                	beqz	a5,20004894 <_fstat_r+0x2a>
20004892:	c01c                	sw	a5,0(s0)
20004894:	40b2                	lw	ra,12(sp)
20004896:	4422                	lw	s0,8(sp)
20004898:	0141                	addi	sp,sp,16
2000489a:	8082                	ret

2000489c <_isatty_r>:
_isatty_r():
2000489c:	1141                	addi	sp,sp,-16
2000489e:	c422                	sw	s0,8(sp)
200048a0:	842a                	mv	s0,a0
200048a2:	852e                	mv	a0,a1
200048a4:	70004797          	auipc	a5,0x70004
200048a8:	9407aa23          	sw	zero,-1708(a5) # 900081f8 <errno>
200048ac:	c606                	sw	ra,12(sp)
200048ae:	c13fb0ef          	jal	ra,200004c0 <_isatty>
200048b2:	57fd                	li	a5,-1
200048b4:	00f51863          	bne	a0,a5,200048c4 <_isatty_r+0x28>
200048b8:	70004797          	auipc	a5,0x70004
200048bc:	9407a783          	lw	a5,-1728(a5) # 900081f8 <errno>
200048c0:	c391                	beqz	a5,200048c4 <_isatty_r+0x28>
200048c2:	c01c                	sw	a5,0(s0)
200048c4:	40b2                	lw	ra,12(sp)
200048c6:	4422                	lw	s0,8(sp)
200048c8:	0141                	addi	sp,sp,16
200048ca:	8082                	ret

200048cc <_sbrk>:
_sbrk():
200048cc:	70004717          	auipc	a4,0x70004
200048d0:	93070713          	addi	a4,a4,-1744 # 900081fc <heap_end.0>
200048d4:	4314                	lw	a3,0(a4)
200048d6:	87aa                	mv	a5,a0
200048d8:	e691                	bnez	a3,200048e4 <_sbrk+0x18>
200048da:	70004697          	auipc	a3,0x70004
200048de:	c6668693          	addi	a3,a3,-922 # 90008540 <_end>
200048e2:	c314                	sw	a3,0(a4)
200048e4:	4308                	lw	a0,0(a4)
200048e6:	97aa                	add	a5,a5,a0
200048e8:	c31c                	sw	a5,0(a4)
200048ea:	8082                	ret
200048ec:	0000                	unimp
	...

200048f0 <_global_impure_ptr>:
200048f0:	0000 9000 6548 6c6c 206f 6556 6972 6953     ....Hello VeriSi
20004900:	696c 6f63 0d6e 000a 6548 6c6c 5f6f 6556     licon...Hello_Ve
20004910:	6972 6953 696c 6f63 006e 0000 6e49 6176     riSilicon...Inva
20004920:	696c 2064 4453 204b 696c 6563 736e 2165     lid SDK license!
20004930:	0a0d 0000 6f53 2063 6e49 7469 4520 7272     ....Soc Init Err
20004940:	726f 0d21 000a 0000 6154 6b73 2520 2773     or!.....Task %s'
20004950:	2073 7473 6361 206b 766f 7265 6c66 776f     s stack overflow
20004960:	6465 0a21 0000 0000 434d 5541 4553 3a20     ed!.....MCAUSE :
20004970:	3020 2578 786c 0a0d 0000 0000 6e28 6c75      0x%lx......(nul
20004980:	296c 0000 7325 4520 5252 475f 4e45 5245     l)..%s ERR_GENER
20004990:	4349 0000 7325 4520 5252 495f 564e 4c41     IC..%s ERR_INVAL
200049a0:	4449 0000 7325 4520 5252 4e5f 4d4f 4d45     ID..%s ERR_NOMEM
200049b0:	0000 0000 7325 4520 5252 465f 4c55 004c     ....%s ERR_FULL.
200049c0:	7325 4520 5252 455f 504d 5954 0000 0000     %s ERR_EMPTY....
200049d0:	7325 4520 5252 495f 004f 0000 7325 4520     %s ERR_IO...%s E
200049e0:	5252 425f 5355 0059 7325 4520 5252 545f     RR_BUSY.%s ERR_T
200049f0:	4d49 4f45 5455 0000 7325 4520 5252 4e5f     IMEOUT..%s ERR_N
20004a00:	444f 5645 4349 0045 7325 4520 5252 4c5f     ODEVICE.%s ERR_L
20004a10:	534f 5f54 4f43 004e 7325 4520 5252 4e5f     OST_CON.%s ERR_N
20004a20:	5f4f 4341 004b 0000 7325 4520 5252 4e5f     O_ACK...%s ERR_N
20004a30:	544f 525f 4145 5944 0000 0000 7325 4520     OT_READY....%s E
20004a40:	5252 445f 6665 7561 746c 0000 5362 2000     RR_Default..bS. 
20004a50:	5412 2000 5372 2000 5382 2000 5392 2000     .T. rS. .S. .S. 
20004a60:	53a2 2000 53b2 2000 53c2 2000 53d2 2000     .S. .S. .S. .S. 
20004a70:	53e2 2000 53f2 2000 5402 2000 5356 2000     .S. .S. .T. VS. 

20004a80 <CSWTCH.14>:
20004a80:	0000 0000 ffff ffff 0001 0000 0001 0000     ................
20004a90:	0001 0000 0001 0000 0001 0000 0001 0000     ................
20004aa0:	0005 0000 0006 0000 0002 0000 0003 0000     ................
20004ab0:	0004 0000 ffff ffff 0007 0000 0008 0000     ................
20004ac0:	ffff ffff 0010 0000 7245 6f72 3a72 6320     ........Error: c
20004ad0:	6572 7461 2065 6174 6b73 2520 2073 6166     reate task %s fa
20004ae0:	6c69 6465 2520 646c 000a 0000 7973 5f73     iled %ld....sys_
20004af0:	6469 656c 0000 0000 7973 5f73 6974 656d     idle....sys_time
20004b00:	0072 0000 212c 2000 212c 2000 212c 2000     r...,!. ,!. ,!. 
20004b10:	21b0 2000 2186 2000 21bc 2000 212c 2000     .!. .!. .!. ,!. 
20004b20:	212c 2000 21b0 2000 2186 2000               ,!. .!. .!. 

20004b2c <__clz_tab>:
20004b2c:	0100 0202 0303 0303 0404 0404 0404 0404     ................
20004b3c:	0505 0505 0505 0505 0505 0505 0505 0505     ................
20004b4c:	0606 0606 0606 0606 0606 0606 0606 0606     ................
20004b5c:	0606 0606 0606 0606 0606 0606 0606 0606     ................
20004b6c:	0707 0707 0707 0707 0707 0707 0707 0707     ................
20004b7c:	0707 0707 0707 0707 0707 0707 0707 0707     ................
20004b8c:	0707 0707 0707 0707 0707 0707 0707 0707     ................
20004b9c:	0707 0707 0707 0707 0707 0707 0707 0707     ................
20004bac:	0808 0808 0808 0808 0808 0808 0808 0808     ................
20004bbc:	0808 0808 0808 0808 0808 0808 0808 0808     ................
20004bcc:	0808 0808 0808 0808 0808 0808 0808 0808     ................
20004bdc:	0808 0808 0808 0808 0808 0808 0808 0808     ................
20004bec:	0808 0808 0808 0808 0808 0808 0808 0808     ................
20004bfc:	0808 0808 0808 0808 0808 0808 0808 0808     ................
20004c0c:	0808 0808 0808 0808 0808 0808 0808 0808     ................
20004c1c:	0808 0808 0808 0808 0808 0808 0808 0808     ................

20004c2c <__sf_fake_stderr>:
	...

20004c4c <__sf_fake_stdin>:
	...

20004c6c <__sf_fake_stdout>:
	...
20004c8c:	2d23 2b30 0020 0000 6c68 004c 6665 4567     #-0+ ...hlL.efgE
20004c9c:	4746 0000 3130 3332 3534 3736 3938 4241     FG..0123456789AB
20004cac:	4443 4645 0000 0000 3130 3332 3534 3736     CDEF....01234567
20004cbc:	3938 6261 6463 6665 0000 0000 f388 ffff     89abcdef........
20004ccc:	f39e ffff f35e ffff f35e ffff f35e ffff     ....^...^...^...
20004cdc:	f35e ffff f39e ffff f35e ffff f35e ffff     ^.......^...^...
20004cec:	f35e ffff f35e ffff f4f4 ffff f3dc ffff     ^...^...........
20004cfc:	f4c6 ffff f35e ffff f35e ffff f524 ffff     ....^...^...$...
20004d0c:	f35e ffff f3dc ffff f35e ffff f35e ffff     ^.......^...^...
20004d1c:	f4ce ffff                                   ....

Disassembly of section .stext:

20004d20 <prints>:
prints():
/jenkins/node-gerritverify/workspace/gerrit_review_verification/.workspace/modules/logging/uart_printf.c:29
20004d20:	1101                	addi	sp,sp,-32
20004d22:	cc22                	sw	s0,24(sp)
20004d24:	ca26                	sw	s1,20(sp)
20004d26:	c64e                	sw	s3,12(sp)
20004d28:	ce06                	sw	ra,28(sp)
20004d2a:	c84a                	sw	s2,16(sp)
20004d2c:	c452                	sw	s4,8(sp)
20004d2e:	c256                	sw	s5,4(sp)
20004d30:	84ae                	mv	s1,a1
20004d32:	89b2                	mv	s3,a2
/jenkins/node-gerritverify/workspace/gerrit_review_verification/.workspace/modules/logging/uart_printf.c:35
20004d34:	0005c583          	lbu	a1,0(a1)
/jenkins/node-gerritverify/workspace/gerrit_review_verification/.workspace/modules/logging/uart_printf.c:29
20004d38:	842a                	mv	s0,a0
/jenkins/node-gerritverify/workspace/gerrit_review_verification/.workspace/modules/logging/uart_printf.c:32
20004d3a:	0ec05563          	blez	a2,20004e24 <prints+0x104>
/jenkins/node-gerritverify/workspace/gerrit_review_verification/.workspace/modules/logging/uart_printf.c:35
20004d3e:	10058063          	beqz	a1,20004e3e <prints+0x11e>
/jenkins/node-gerritverify/workspace/gerrit_review_verification/.workspace/modules/logging/uart_printf.c:33
20004d42:	4781                	li	a5,0
/jenkins/node-gerritverify/workspace/gerrit_review_verification/.workspace/modules/logging/uart_printf.c:36 (discriminator 3)
20004d44:	0785                	addi	a5,a5,1
/jenkins/node-gerritverify/workspace/gerrit_review_verification/.workspace/modules/logging/uart_printf.c:35 (discriminator 3)
20004d46:	00f48733          	add	a4,s1,a5
20004d4a:	00074703          	lbu	a4,0(a4)
20004d4e:	fb7d                	bnez	a4,20004d44 <prints+0x24>
/jenkins/node-gerritverify/workspace/gerrit_review_verification/.workspace/modules/logging/uart_printf.c:38
20004d50:	0737c763          	blt	a5,s3,20004dbe <prints+0x9e>
/jenkins/node-gerritverify/workspace/gerrit_review_verification/.workspace/modules/logging/uart_printf.c:43
20004d54:	0026f993          	andi	s3,a3,2
20004d58:	0c099a63          	bnez	s3,20004e2c <prints+0x10c>
/jenkins/node-gerritverify/workspace/gerrit_review_verification/.workspace/modules/logging/uart_printf.c:47
20004d5c:	0016f913          	andi	s2,a3,1
20004d60:	00090363          	beqz	s2,20004d66 <prints+0x46>
/jenkins/node-gerritverify/workspace/gerrit_review_verification/.workspace/modules/logging/uart_printf.c:30
20004d64:	4901                	li	s2,0
20004d66:	40990933          	sub	s2,s2,s1
/jenkins/node-gerritverify/workspace/gerrit_review_verification/.workspace/modules/logging/uart_printf.c:31
20004d6a:	02000a13          	li	s4,32
20004d6e:	00190a93          	addi	s5,s2,1
printchar():
/jenkins/node-gerritverify/workspace/gerrit_review_verification/.workspace/modules/logging/uart_printf.c:19 (discriminator 2)
20004d72:	c859                	beqz	s0,20004e08 <prints+0xe8>
/jenkins/node-gerritverify/workspace/gerrit_review_verification/.workspace/modules/logging/uart_printf.c:20
20004d74:	4018                	lw	a4,0(s0)
20004d76:	00b70023          	sb	a1,0(a4)
/jenkins/node-gerritverify/workspace/gerrit_review_verification/.workspace/modules/logging/uart_printf.c:21
20004d7a:	4018                	lw	a4,0(s0)
20004d7c:	0705                	addi	a4,a4,1
20004d7e:	c018                	sw	a4,0(s0)
prints():
/jenkins/node-gerritverify/workspace/gerrit_review_verification/.workspace/modules/logging/uart_printf.c:53
20004d80:	0014c583          	lbu	a1,1(s1)
20004d84:	01548933          	add	s2,s1,s5
20004d88:	0485                	addi	s1,s1,1
20004d8a:	f5e5                	bnez	a1,20004d72 <prints+0x52>
/jenkins/node-gerritverify/workspace/gerrit_review_verification/.workspace/modules/logging/uart_printf.c:57
20004d8c:	01305f63          	blez	s3,20004daa <prints+0x8a>
printchar():
/jenkins/node-gerritverify/workspace/gerrit_review_verification/.workspace/modules/logging/uart_printf.c:20
20004d90:	0ffa7a13          	zext.b	s4,s4
20004d94:	84ce                	mv	s1,s3
/jenkins/node-gerritverify/workspace/gerrit_review_verification/.workspace/modules/logging/uart_printf.c:19
20004d96:	cc2d                	beqz	s0,20004e10 <prints+0xf0>
/jenkins/node-gerritverify/workspace/gerrit_review_verification/.workspace/modules/logging/uart_printf.c:20
20004d98:	401c                	lw	a5,0(s0)
20004d9a:	01478023          	sb	s4,0(a5)
/jenkins/node-gerritverify/workspace/gerrit_review_verification/.workspace/modules/logging/uart_printf.c:21
20004d9e:	401c                	lw	a5,0(s0)
20004da0:	0785                	addi	a5,a5,1
20004da2:	c01c                	sw	a5,0(s0)
prints():
/jenkins/node-gerritverify/workspace/gerrit_review_verification/.workspace/modules/logging/uart_printf.c:57
20004da4:	14fd                	addi	s1,s1,-1
20004da6:	f8e5                	bnez	s1,20004d96 <prints+0x76>
/jenkins/node-gerritverify/workspace/gerrit_review_verification/.workspace/modules/logging/uart_printf.c:59
20004da8:	994e                	add	s2,s2,s3
/jenkins/node-gerritverify/workspace/gerrit_review_verification/.workspace/modules/logging/uart_printf.c:63
20004daa:	40f2                	lw	ra,28(sp)
20004dac:	4462                	lw	s0,24(sp)
20004dae:	44d2                	lw	s1,20(sp)
20004db0:	49b2                	lw	s3,12(sp)
20004db2:	4a22                	lw	s4,8(sp)
20004db4:	4a92                	lw	s5,4(sp)
20004db6:	854a                	mv	a0,s2
20004db8:	4942                	lw	s2,16(sp)
20004dba:	6105                	addi	sp,sp,32
20004dbc:	8082                	ret
/jenkins/node-gerritverify/workspace/gerrit_review_verification/.workspace/modules/logging/uart_printf.c:41
20004dbe:	40f98933          	sub	s2,s3,a5
/jenkins/node-gerritverify/workspace/gerrit_review_verification/.workspace/modules/logging/uart_printf.c:43
20004dc2:	0026fa13          	andi	s4,a3,2
/jenkins/node-gerritverify/workspace/gerrit_review_verification/.workspace/modules/logging/uart_printf.c:44
20004dc6:	001a3a13          	seqz	s4,s4
20004dca:	41400a33          	neg	s4,s4
20004dce:	ff0a7a13          	andi	s4,s4,-16
/jenkins/node-gerritverify/workspace/gerrit_review_verification/.workspace/modules/logging/uart_printf.c:47
20004dd2:	8a85                	andi	a3,a3,1
/jenkins/node-gerritverify/workspace/gerrit_review_verification/.workspace/modules/logging/uart_printf.c:44
20004dd4:	030a0a13          	addi	s4,s4,48
/jenkins/node-gerritverify/workspace/gerrit_review_verification/.workspace/modules/logging/uart_printf.c:47
20004dd8:	eeb9                	bnez	a3,20004e36 <prints+0x116>
/jenkins/node-gerritverify/workspace/gerrit_review_verification/.workspace/modules/logging/uart_printf.c:48
20004dda:	07205463          	blez	s2,20004e42 <prints+0x122>
printchar():
/jenkins/node-gerritverify/workspace/gerrit_review_verification/.workspace/modules/logging/uart_printf.c:20
20004dde:	0ffa7a93          	zext.b	s5,s4
20004de2:	89ca                	mv	s3,s2
/jenkins/node-gerritverify/workspace/gerrit_review_verification/.workspace/modules/logging/uart_printf.c:19
20004de4:	c81d                	beqz	s0,20004e1a <prints+0xfa>
/jenkins/node-gerritverify/workspace/gerrit_review_verification/.workspace/modules/logging/uart_printf.c:20
20004de6:	401c                	lw	a5,0(s0)
20004de8:	01578023          	sb	s5,0(a5)
/jenkins/node-gerritverify/workspace/gerrit_review_verification/.workspace/modules/logging/uart_printf.c:21
20004dec:	401c                	lw	a5,0(s0)
20004dee:	0785                	addi	a5,a5,1
20004df0:	c01c                	sw	a5,0(s0)
prints():
/jenkins/node-gerritverify/workspace/gerrit_review_verification/.workspace/modules/logging/uart_printf.c:48
20004df2:	19fd                	addi	s3,s3,-1
20004df4:	fe0998e3          	bnez	s3,20004de4 <prints+0xc4>
/jenkins/node-gerritverify/workspace/gerrit_review_verification/.workspace/modules/logging/uart_printf.c:53
20004df8:	0004c583          	lbu	a1,0(s1)
20004dfc:	d5dd                	beqz	a1,20004daa <prints+0x8a>
20004dfe:	40990933          	sub	s2,s2,s1
20004e02:	00190a93          	addi	s5,s2,1
printchar():
/jenkins/node-gerritverify/workspace/gerrit_review_verification/.workspace/modules/logging/uart_printf.c:19
20004e06:	f43d                	bnez	s0,20004d74 <prints+0x54>
/jenkins/node-gerritverify/workspace/gerrit_review_verification/.workspace/modules/logging/uart_printf.c:23
20004e08:	4501                	li	a0,0
20004e0a:	e06fb0ef          	jal	ra,20000410 <hal_uart_put_char>
20004e0e:	bf8d                	j	20004d80 <prints+0x60>
20004e10:	85d2                	mv	a1,s4
20004e12:	4501                	li	a0,0
20004e14:	dfcfb0ef          	jal	ra,20000410 <hal_uart_put_char>
20004e18:	b771                	j	20004da4 <prints+0x84>
20004e1a:	85d6                	mv	a1,s5
20004e1c:	4501                	li	a0,0
20004e1e:	df2fb0ef          	jal	ra,20000410 <hal_uart_put_char>
20004e22:	bfc1                	j	20004df2 <prints+0xd2>
prints():
/jenkins/node-gerritverify/workspace/gerrit_review_verification/.workspace/modules/logging/uart_printf.c:31
20004e24:	02000a13          	li	s4,32
/jenkins/node-gerritverify/workspace/gerrit_review_verification/.workspace/modules/logging/uart_printf.c:30
20004e28:	4901                	li	s2,0
20004e2a:	bfc9                	j	20004dfc <prints+0xdc>
/jenkins/node-gerritverify/workspace/gerrit_review_verification/.workspace/modules/logging/uart_printf.c:44
20004e2c:	03000a13          	li	s4,48
/jenkins/node-gerritverify/workspace/gerrit_review_verification/.workspace/modules/logging/uart_printf.c:30
20004e30:	4901                	li	s2,0
/jenkins/node-gerritverify/workspace/gerrit_review_verification/.workspace/modules/logging/uart_printf.c:39
20004e32:	4981                	li	s3,0
20004e34:	b7e9                	j	20004dfe <prints+0xde>
/jenkins/node-gerritverify/workspace/gerrit_review_verification/.workspace/modules/logging/uart_printf.c:53 (discriminator 1)
20004e36:	89ca                	mv	s3,s2
/jenkins/node-gerritverify/workspace/gerrit_review_verification/.workspace/modules/logging/uart_printf.c:30 (discriminator 1)
20004e38:	4901                	li	s2,0
/jenkins/node-gerritverify/workspace/gerrit_review_verification/.workspace/modules/logging/uart_printf.c:53 (discriminator 1)
20004e3a:	f1f1                	bnez	a1,20004dfe <prints+0xde>
20004e3c:	bf81                	j	20004d8c <prints+0x6c>
/jenkins/node-gerritverify/workspace/gerrit_review_verification/.workspace/modules/logging/uart_printf.c:35
20004e3e:	8932                	mv	s2,a2
20004e40:	b749                	j	20004dc2 <prints+0xa2>
/jenkins/node-gerritverify/workspace/gerrit_review_verification/.workspace/modules/logging/uart_printf.c:48
20004e42:	89ca                	mv	s3,s2
/jenkins/node-gerritverify/workspace/gerrit_review_verification/.workspace/modules/logging/uart_printf.c:30
20004e44:	4901                	li	s2,0
20004e46:	bf5d                	j	20004dfc <prints+0xdc>

20004e48 <printi>:
printi():
/jenkins/node-gerritverify/workspace/gerrit_review_verification/.workspace/modules/logging/uart_printf.c:67
20004e48:	7179                	addi	sp,sp,-48
20004e4a:	d226                	sw	s1,36(sp)
20004e4c:	d606                	sw	ra,44(sp)
20004e4e:	d422                	sw	s0,40(sp)
20004e50:	d04a                	sw	s2,32(sp)
20004e52:	8332                	mv	t1,a2
20004e54:	84b6                	mv	s1,a3
20004e56:	863a                	mv	a2,a4
20004e58:	86be                	mv	a3,a5
/jenkins/node-gerritverify/workspace/gerrit_review_verification/.workspace/modules/logging/uart_printf.c:75
20004e5a:	cdc1                	beqz	a1,20004ef2 <printi+0xaa>
20004e5c:	88ae                	mv	a7,a1
20004e5e:	892a                	mv	s2,a0
/jenkins/node-gerritverify/workspace/gerrit_review_verification/.workspace/modules/logging/uart_printf.c:81
20004e60:	e8a5                	bnez	s1,20004ed0 <printi+0x88>
/jenkins/node-gerritverify/workspace/gerrit_review_verification/.workspace/modules/logging/uart_printf.c:87
20004e62:	00010fa3          	sb	zero,31(sp)
/jenkins/node-gerritverify/workspace/gerrit_review_verification/.workspace/modules/logging/uart_printf.c:86
20004e66:	01f10e13          	addi	t3,sp,31
/jenkins/node-gerritverify/workspace/gerrit_review_verification/.workspace/modules/logging/uart_printf.c:91
20004e6a:	4ea5                	li	t4,9
/jenkins/node-gerritverify/workspace/gerrit_review_verification/.workspace/modules/logging/uart_printf.c:92
20004e6c:	fc680813          	addi	a6,a6,-58
20004e70:	a019                	j	20004e76 <printi+0x2e>
20004e72:	8e22                	mv	t3,s0
/jenkins/node-gerritverify/workspace/gerrit_review_verification/.workspace/modules/logging/uart_printf.c:95
20004e74:	88ae                	mv	a7,a1
/jenkins/node-gerritverify/workspace/gerrit_review_verification/.workspace/modules/logging/uart_printf.c:90
20004e76:	0268f5b3          	remu	a1,a7,t1
/jenkins/node-gerritverify/workspace/gerrit_review_verification/.workspace/modules/logging/uart_printf.c:94
20004e7a:	fffe0413          	addi	s0,t3,-1
/jenkins/node-gerritverify/workspace/gerrit_review_verification/.workspace/modules/logging/uart_printf.c:91
20004e7e:	00bed363          	bge	t4,a1,20004e84 <printi+0x3c>
/jenkins/node-gerritverify/workspace/gerrit_review_verification/.workspace/modules/logging/uart_printf.c:92
20004e82:	95c2                	add	a1,a1,a6
/jenkins/node-gerritverify/workspace/gerrit_review_verification/.workspace/modules/logging/uart_printf.c:94
20004e84:	03058593          	addi	a1,a1,48
20004e88:	febe0fa3          	sb	a1,-1(t3)
/jenkins/node-gerritverify/workspace/gerrit_review_verification/.workspace/modules/logging/uart_printf.c:95
20004e8c:	0268d5b3          	divu	a1,a7,t1
/jenkins/node-gerritverify/workspace/gerrit_review_verification/.workspace/modules/logging/uart_printf.c:89
20004e90:	fe68f1e3          	bgeu	a7,t1,20004e72 <printi+0x2a>
/jenkins/node-gerritverify/workspace/gerrit_review_verification/.workspace/modules/logging/uart_printf.c:98
20004e94:	e899                	bnez	s1,20004eaa <printi+0x62>
/jenkins/node-gerritverify/workspace/gerrit_review_verification/.workspace/modules/logging/uart_printf.c:108
20004e96:	85a2                	mv	a1,s0
20004e98:	854a                	mv	a0,s2
20004e9a:	3559                	jal	20004d20 <prints>
/jenkins/node-gerritverify/workspace/gerrit_review_verification/.workspace/modules/logging/uart_printf.c:109
20004e9c:	50b2                	lw	ra,44(sp)
20004e9e:	5422                	lw	s0,40(sp)
20004ea0:	5902                	lw	s2,32(sp)
/jenkins/node-gerritverify/workspace/gerrit_review_verification/.workspace/modules/logging/uart_printf.c:108
20004ea2:	9526                	add	a0,a0,s1
/jenkins/node-gerritverify/workspace/gerrit_review_verification/.workspace/modules/logging/uart_printf.c:109
20004ea4:	5492                	lw	s1,36(sp)
20004ea6:	6145                	addi	sp,sp,48
20004ea8:	8082                	ret
/jenkins/node-gerritverify/workspace/gerrit_review_verification/.workspace/modules/logging/uart_printf.c:99
20004eaa:	ce05                	beqz	a2,20004ee2 <printi+0x9a>
/jenkins/node-gerritverify/workspace/gerrit_review_verification/.workspace/modules/logging/uart_printf.c:99 (discriminator 1)
20004eac:	0026f793          	andi	a5,a3,2
20004eb0:	cb8d                	beqz	a5,20004ee2 <printi+0x9a>
printchar():
/jenkins/node-gerritverify/workspace/gerrit_review_verification/.workspace/modules/logging/uart_printf.c:19
20004eb2:	04090c63          	beqz	s2,20004f0a <printi+0xc2>
/jenkins/node-gerritverify/workspace/gerrit_review_verification/.workspace/modules/logging/uart_printf.c:20
20004eb6:	00092783          	lw	a5,0(s2)
20004eba:	02d00713          	li	a4,45
20004ebe:	00e78023          	sb	a4,0(a5)
/jenkins/node-gerritverify/workspace/gerrit_review_verification/.workspace/modules/logging/uart_printf.c:21
20004ec2:	00092783          	lw	a5,0(s2)
printi():
/jenkins/node-gerritverify/workspace/gerrit_review_verification/.workspace/modules/logging/uart_printf.c:102
20004ec6:	167d                	addi	a2,a2,-1
printchar():
/jenkins/node-gerritverify/workspace/gerrit_review_verification/.workspace/modules/logging/uart_printf.c:21
20004ec8:	0785                	addi	a5,a5,1
20004eca:	00f92023          	sw	a5,0(s2)
printi():
/jenkins/node-gerritverify/workspace/gerrit_review_verification/.workspace/modules/logging/uart_printf.c:102
20004ece:	b7e1                	j	20004e96 <printi+0x4e>
/jenkins/node-gerritverify/workspace/gerrit_review_verification/.workspace/modules/logging/uart_printf.c:71 (discriminator 1)
20004ed0:	4481                	li	s1,0
/jenkins/node-gerritverify/workspace/gerrit_review_verification/.workspace/modules/logging/uart_printf.c:81 (discriminator 1)
20004ed2:	f80308e3          	beqz	t1,20004e62 <printi+0x1a>
/jenkins/node-gerritverify/workspace/gerrit_review_verification/.workspace/modules/logging/uart_printf.c:81
20004ed6:	f805d6e3          	bgez	a1,20004e62 <printi+0x1a>
/jenkins/node-gerritverify/workspace/gerrit_review_verification/.workspace/modules/logging/uart_printf.c:83
20004eda:	40b008b3          	neg	a7,a1
/jenkins/node-gerritverify/workspace/gerrit_review_verification/.workspace/modules/logging/uart_printf.c:82
20004ede:	4485                	li	s1,1
20004ee0:	b749                	j	20004e62 <printi+0x1a>
/jenkins/node-gerritverify/workspace/gerrit_review_verification/.workspace/modules/logging/uart_printf.c:104
20004ee2:	02d00793          	li	a5,45
20004ee6:	fef40fa3          	sb	a5,-1(s0)
/jenkins/node-gerritverify/workspace/gerrit_review_verification/.workspace/modules/logging/uart_printf.c:72
20004eea:	4481                	li	s1,0
/jenkins/node-gerritverify/workspace/gerrit_review_verification/.workspace/modules/logging/uart_printf.c:104
20004eec:	ffee0413          	addi	s0,t3,-2
20004ef0:	b75d                	j	20004e96 <printi+0x4e>
/jenkins/node-gerritverify/workspace/gerrit_review_verification/.workspace/modules/logging/uart_printf.c:78
20004ef2:	084c                	addi	a1,sp,20
/jenkins/node-gerritverify/workspace/gerrit_review_verification/.workspace/modules/logging/uart_printf.c:76
20004ef4:	03000793          	li	a5,48
20004ef8:	00f11a23          	sh	a5,20(sp)
/jenkins/node-gerritverify/workspace/gerrit_review_verification/.workspace/modules/logging/uart_printf.c:78
20004efc:	3515                	jal	20004d20 <prints>
/jenkins/node-gerritverify/workspace/gerrit_review_verification/.workspace/modules/logging/uart_printf.c:109
20004efe:	50b2                	lw	ra,44(sp)
20004f00:	5422                	lw	s0,40(sp)
20004f02:	5492                	lw	s1,36(sp)
20004f04:	5902                	lw	s2,32(sp)
20004f06:	6145                	addi	sp,sp,48
20004f08:	8082                	ret
printchar():
/jenkins/node-gerritverify/workspace/gerrit_review_verification/.workspace/modules/logging/uart_printf.c:23
20004f0a:	02d00593          	li	a1,45
20004f0e:	4501                	li	a0,0
20004f10:	c636                	sw	a3,12(sp)
20004f12:	c432                	sw	a2,8(sp)
20004f14:	cfcfb0ef          	jal	ra,20000410 <hal_uart_put_char>
20004f18:	4622                	lw	a2,8(sp)
20004f1a:	46b2                	lw	a3,12(sp)
printi():
/jenkins/node-gerritverify/workspace/gerrit_review_verification/.workspace/modules/logging/uart_printf.c:102
20004f1c:	167d                	addi	a2,a2,-1
20004f1e:	bfa5                	j	20004e96 <printi+0x4e>

20004f20 <print.constprop.0>:
print():
/jenkins/node-gerritverify/workspace/gerrit_review_verification/.workspace/modules/logging/uart_printf.c:180
20004f20:	7159                	addi	sp,sp,-112
20004f22:	ccd2                	sw	s4,88(sp)
20004f24:	d686                	sw	ra,108(sp)
20004f26:	d4a2                	sw	s0,104(sp)
20004f28:	d2a6                	sw	s1,100(sp)
20004f2a:	d0ca                	sw	s2,96(sp)
20004f2c:	cece                	sw	s3,92(sp)
20004f2e:	cad6                	sw	s5,84(sp)
20004f30:	c8da                	sw	s6,80(sp)
20004f32:	c6de                	sw	s7,76(sp)
20004f34:	c4e2                	sw	s8,72(sp)
20004f36:	c2e6                	sw	s9,68(sp)
20004f38:	c0ea                	sw	s10,64(sp)
20004f3a:	de6e                	sw	s11,60(sp)
/jenkins/node-gerritverify/workspace/gerrit_review_verification/.workspace/modules/logging/uart_printf.c:190
20004f3c:	0005c783          	lbu	a5,0(a1)
/jenkins/node-gerritverify/workspace/gerrit_review_verification/.workspace/modules/logging/uart_printf.c:180
20004f40:	8a2a                	mv	s4,a0
/jenkins/node-gerritverify/workspace/gerrit_review_verification/.workspace/modules/logging/uart_printf.c:190
20004f42:	12078863          	beqz	a5,20005072 <print.constprop.0+0x152>
/jenkins/node-gerritverify/workspace/gerrit_review_verification/.workspace/modules/logging/uart_printf.c:216
20004f46:	20005737          	lui	a4,0x20005
20004f4a:	97c70713          	addi	a4,a4,-1668 # 2000497c <_global_impure_ptr+0x8c>
20004f4e:	892e                	mv	s2,a1
20004f50:	8b32                	mv	s6,a2
/jenkins/node-gerritverify/workspace/gerrit_review_verification/.workspace/modules/logging/uart_printf.c:187
20004f52:	4b81                	li	s7,0
20004f54:	4c01                	li	s8,0
/jenkins/node-gerritverify/workspace/gerrit_review_verification/.workspace/modules/logging/uart_printf.c:186
20004f56:	4881                	li	a7,0
/jenkins/node-gerritverify/workspace/gerrit_review_verification/.workspace/modules/logging/uart_printf.c:185
20004f58:	4d01                	li	s10,0
/jenkins/node-gerritverify/workspace/gerrit_review_verification/.workspace/modules/logging/uart_printf.c:191
20004f5a:	02500a93          	li	s5,37
/jenkins/node-gerritverify/workspace/gerrit_review_verification/.workspace/modules/logging/uart_printf.c:269
20004f5e:	04300c93          	li	s9,67
/jenkins/node-gerritverify/workspace/gerrit_review_verification/.workspace/modules/logging/uart_printf.c:205
20004f62:	03000d93          	li	s11,48
/jenkins/node-gerritverify/workspace/gerrit_review_verification/.workspace/modules/logging/uart_printf.c:216
20004f66:	ca3a                	sw	a4,20(sp)
20004f68:	a03d                	j	20004f96 <print.constprop.0+0x76>
/jenkins/node-gerritverify/workspace/gerrit_review_verification/.workspace/modules/logging/uart_printf.c:269
20004f6a:	00094783          	lbu	a5,0(s2)
20004f6e:	01979463          	bne	a5,s9,20004f76 <print.constprop.0+0x56>
20004f72:	06300793          	li	a5,99
printchar():
/jenkins/node-gerritverify/workspace/gerrit_review_verification/.workspace/modules/logging/uart_printf.c:20
20004f76:	000a2683          	lw	a3,0(s4)
print():
/jenkins/node-gerritverify/workspace/gerrit_review_verification/.workspace/modules/logging/uart_printf.c:270
20004f7a:	8722                	mv	a4,s0
printchar():
/jenkins/node-gerritverify/workspace/gerrit_review_verification/.workspace/modules/logging/uart_printf.c:20
20004f7c:	00f68023          	sb	a5,0(a3)
/jenkins/node-gerritverify/workspace/gerrit_review_verification/.workspace/modules/logging/uart_printf.c:21
20004f80:	000a2783          	lw	a5,0(s4)
print():
/jenkins/node-gerritverify/workspace/gerrit_review_verification/.workspace/modules/logging/uart_printf.c:270
20004f84:	844a                	mv	s0,s2
printchar():
/jenkins/node-gerritverify/workspace/gerrit_review_verification/.workspace/modules/logging/uart_printf.c:21
20004f86:	0785                	addi	a5,a5,1
20004f88:	00fa2023          	sw	a5,0(s4)
print():
/jenkins/node-gerritverify/workspace/gerrit_review_verification/.workspace/modules/logging/uart_printf.c:270
20004f8c:	0d05                	addi	s10,s10,1
20004f8e:	893a                	mv	s2,a4
/jenkins/node-gerritverify/workspace/gerrit_review_verification/.workspace/modules/logging/uart_printf.c:190
20004f90:	00144783          	lbu	a5,1(s0)
20004f94:	c3e5                	beqz	a5,20005074 <print.constprop.0+0x154>
/jenkins/node-gerritverify/workspace/gerrit_review_verification/.workspace/modules/logging/uart_printf.c:192
20004f96:	00190413          	addi	s0,s2,1
/jenkins/node-gerritverify/workspace/gerrit_review_verification/.workspace/modules/logging/uart_printf.c:191
20004f9a:	fd5798e3          	bne	a5,s5,20004f6a <print.constprop.0+0x4a>
/jenkins/node-gerritverify/workspace/gerrit_review_verification/.workspace/modules/logging/uart_printf.c:194
20004f9e:	00194783          	lbu	a5,1(s2)
20004fa2:	cbe9                	beqz	a5,20005074 <print.constprop.0+0x154>
/jenkins/node-gerritverify/workspace/gerrit_review_verification/.workspace/modules/logging/uart_printf.c:197
20004fa4:	0d578263          	beq	a5,s5,20005068 <print.constprop.0+0x148>
/jenkins/node-gerritverify/workspace/gerrit_review_verification/.workspace/modules/logging/uart_printf.c:200
20004fa8:	02d00713          	li	a4,45
/jenkins/node-gerritverify/workspace/gerrit_review_verification/.workspace/modules/logging/uart_printf.c:193
20004fac:	4981                	li	s3,0
/jenkins/node-gerritverify/workspace/gerrit_review_verification/.workspace/modules/logging/uart_printf.c:200
20004fae:	0ae78763          	beq	a5,a4,2000505c <print.constprop.0+0x13c>
/jenkins/node-gerritverify/workspace/gerrit_review_verification/.workspace/modules/logging/uart_printf.c:205
20004fb2:	01b79963          	bne	a5,s11,20004fc4 <print.constprop.0+0xa4>
20004fb6:	00144783          	lbu	a5,1(s0)
/jenkins/node-gerritverify/workspace/gerrit_review_verification/.workspace/modules/logging/uart_printf.c:207
20004fba:	0029e993          	ori	s3,s3,2
/jenkins/node-gerritverify/workspace/gerrit_review_verification/.workspace/modules/logging/uart_printf.c:206
20004fbe:	0405                	addi	s0,s0,1
/jenkins/node-gerritverify/workspace/gerrit_review_verification/.workspace/modules/logging/uart_printf.c:205
20004fc0:	ffb78be3          	beq	a5,s11,20004fb6 <print.constprop.0+0x96>
/jenkins/node-gerritverify/workspace/gerrit_review_verification/.workspace/modules/logging/uart_printf.c:209
20004fc4:	fd078713          	addi	a4,a5,-48
20004fc8:	0ff77613          	zext.b	a2,a4
20004fcc:	46a5                	li	a3,9
/jenkins/node-gerritverify/workspace/gerrit_review_verification/.workspace/modules/logging/uart_printf.c:193
20004fce:	4481                	li	s1,0
/jenkins/node-gerritverify/workspace/gerrit_review_verification/.workspace/modules/logging/uart_printf.c:209
20004fd0:	02c6e063          	bltu	a3,a2,20004ff0 <print.constprop.0+0xd0>
/jenkins/node-gerritverify/workspace/gerrit_review_verification/.workspace/modules/logging/uart_printf.c:210
20004fd4:	45a9                	li	a1,10
/jenkins/node-gerritverify/workspace/gerrit_review_verification/.workspace/modules/logging/uart_printf.c:209
20004fd6:	4625                	li	a2,9
20004fd8:	00144783          	lbu	a5,1(s0)
/jenkins/node-gerritverify/workspace/gerrit_review_verification/.workspace/modules/logging/uart_printf.c:210
20004fdc:	02b484b3          	mul	s1,s1,a1
/jenkins/node-gerritverify/workspace/gerrit_review_verification/.workspace/modules/logging/uart_printf.c:211
20004fe0:	94ba                	add	s1,s1,a4
/jenkins/node-gerritverify/workspace/gerrit_review_verification/.workspace/modules/logging/uart_printf.c:209
20004fe2:	fd078713          	addi	a4,a5,-48
20004fe6:	0ff77693          	zext.b	a3,a4
20004fea:	0405                	addi	s0,s0,1
20004fec:	fed676e3          	bgeu	a2,a3,20004fd8 <print.constprop.0+0xb8>
/jenkins/node-gerritverify/workspace/gerrit_review_verification/.workspace/modules/logging/uart_printf.c:214
20004ff0:	07300713          	li	a4,115
/jenkins/node-gerritverify/workspace/gerrit_review_verification/.workspace/modules/logging/uart_printf.c:221
20004ff4:	00140913          	addi	s2,s0,1
/jenkins/node-gerritverify/workspace/gerrit_review_verification/.workspace/modules/logging/uart_printf.c:214
20004ff8:	16e78963          	beq	a5,a4,2000516a <print.constprop.0+0x24a>
/jenkins/node-gerritverify/workspace/gerrit_review_verification/.workspace/modules/logging/uart_printf.c:219
20004ffc:	06c00693          	li	a3,108
20005000:	0cd78163          	beq	a5,a3,200050c2 <print.constprop.0+0x1a2>
/jenkins/node-gerritverify/workspace/gerrit_review_verification/.workspace/modules/logging/uart_printf.c:223
20005004:	00044703          	lbu	a4,0(s0)
20005008:	0cd70563          	beq	a4,a3,200050d2 <print.constprop.0+0x1b2>
/jenkins/node-gerritverify/workspace/gerrit_review_verification/.workspace/modules/logging/uart_printf.c:228
2000500c:	06400793          	li	a5,100
20005010:	1cf70563          	beq	a4,a5,200051da <print.constprop.0+0x2ba>
/jenkins/node-gerritverify/workspace/gerrit_review_verification/.workspace/modules/logging/uart_printf.c:235
20005014:	07800793          	li	a5,120
20005018:	1cf70d63          	beq	a4,a5,200051f2 <print.constprop.0+0x2d2>
/jenkins/node-gerritverify/workspace/gerrit_review_verification/.workspace/modules/logging/uart_printf.c:242
2000501c:	07000793          	li	a5,112
20005020:	18f70e63          	beq	a4,a5,200051bc <print.constprop.0+0x29c>
/jenkins/node-gerritverify/workspace/gerrit_review_verification/.workspace/modules/logging/uart_printf.c:246
20005024:	05800793          	li	a5,88
20005028:	1ef70463          	beq	a4,a5,20005210 <print.constprop.0+0x2f0>
/jenkins/node-gerritverify/workspace/gerrit_review_verification/.workspace/modules/logging/uart_printf.c:253
2000502c:	07500793          	li	a5,117
20005030:	20f70263          	beq	a4,a5,20005234 <print.constprop.0+0x314>
/jenkins/node-gerritverify/workspace/gerrit_review_verification/.workspace/modules/logging/uart_printf.c:260
20005034:	06300793          	li	a5,99
20005038:	f4f71ce3          	bne	a4,a5,20004f90 <print.constprop.0+0x70>
/jenkins/node-gerritverify/workspace/gerrit_review_verification/.workspace/modules/logging/uart_printf.c:261
2000503c:	000b2783          	lw	a5,0(s6)
/jenkins/node-gerritverify/workspace/gerrit_review_verification/.workspace/modules/logging/uart_printf.c:263
20005040:	86ce                	mv	a3,s3
20005042:	8626                	mv	a2,s1
20005044:	106c                	addi	a1,sp,44
20005046:	8552                	mv	a0,s4
20005048:	cc46                	sw	a7,24(sp)
/jenkins/node-gerritverify/workspace/gerrit_review_verification/.workspace/modules/logging/uart_printf.c:261
2000504a:	02f10623          	sb	a5,44(sp)
/jenkins/node-gerritverify/workspace/gerrit_review_verification/.workspace/modules/logging/uart_printf.c:262
2000504e:	020106a3          	sb	zero,45(sp)
/jenkins/node-gerritverify/workspace/gerrit_review_verification/.workspace/modules/logging/uart_printf.c:263
20005052:	31f9                	jal	20004d20 <prints>
/jenkins/node-gerritverify/workspace/gerrit_review_verification/.workspace/modules/logging/uart_printf.c:264
20005054:	48e2                	lw	a7,24(sp)
/jenkins/node-gerritverify/workspace/gerrit_review_verification/.workspace/modules/logging/uart_printf.c:261
20005056:	0b11                	addi	s6,s6,4
/jenkins/node-gerritverify/workspace/gerrit_review_verification/.workspace/modules/logging/uart_printf.c:263
20005058:	9d2a                	add	s10,s10,a0
/jenkins/node-gerritverify/workspace/gerrit_review_verification/.workspace/modules/logging/uart_printf.c:264
2000505a:	bf1d                	j	20004f90 <print.constprop.0+0x70>
/jenkins/node-gerritverify/workspace/gerrit_review_verification/.workspace/modules/logging/uart_printf.c:205
2000505c:	00294783          	lbu	a5,2(s2)
/jenkins/node-gerritverify/workspace/gerrit_review_verification/.workspace/modules/logging/uart_printf.c:201
20005060:	00290413          	addi	s0,s2,2
/jenkins/node-gerritverify/workspace/gerrit_review_verification/.workspace/modules/logging/uart_printf.c:202
20005064:	4985                	li	s3,1
/jenkins/node-gerritverify/workspace/gerrit_review_verification/.workspace/modules/logging/uart_printf.c:205
20005066:	b7b1                	j	20004fb2 <print.constprop.0+0x92>
/jenkins/node-gerritverify/workspace/gerrit_review_verification/.workspace/modules/logging/uart_printf.c:190
20005068:	00290713          	addi	a4,s2,2
/jenkins/node-gerritverify/workspace/gerrit_review_verification/.workspace/modules/logging/uart_printf.c:192
2000506c:	8922                	mv	s2,s0
/jenkins/node-gerritverify/workspace/gerrit_review_verification/.workspace/modules/logging/uart_printf.c:190
2000506e:	843a                	mv	s0,a4
20005070:	b719                	j	20004f76 <print.constprop.0+0x56>
/jenkins/node-gerritverify/workspace/gerrit_review_verification/.workspace/modules/logging/uart_printf.c:185
20005072:	4d01                	li	s10,0
/jenkins/node-gerritverify/workspace/gerrit_review_verification/.workspace/modules/logging/uart_printf.c:274
20005074:	000a2783          	lw	a5,0(s4)
printchar():
/jenkins/node-gerritverify/workspace/gerrit_review_verification/.workspace/modules/logging/uart_printf.c:20
20005078:	4735                	li	a4,13
print():
/jenkins/node-gerritverify/workspace/gerrit_review_verification/.workspace/modules/logging/uart_printf.c:274
2000507a:	00078023          	sb	zero,0(a5)
printchar():
/jenkins/node-gerritverify/workspace/gerrit_review_verification/.workspace/modules/logging/uart_printf.c:20
2000507e:	000a2783          	lw	a5,0(s4)
print():
/jenkins/node-gerritverify/workspace/gerrit_review_verification/.workspace/modules/logging/uart_printf.c:284
20005082:	856a                	mv	a0,s10
printchar():
/jenkins/node-gerritverify/workspace/gerrit_review_verification/.workspace/modules/logging/uart_printf.c:20
20005084:	00e78023          	sb	a4,0(a5)
/jenkins/node-gerritverify/workspace/gerrit_review_verification/.workspace/modules/logging/uart_printf.c:21
20005088:	000a2783          	lw	a5,0(s4)
2000508c:	00178713          	addi	a4,a5,1
20005090:	00ea2023          	sw	a4,0(s4)
/jenkins/node-gerritverify/workspace/gerrit_review_verification/.workspace/modules/logging/uart_printf.c:20
20005094:	4729                	li	a4,10
20005096:	00e780a3          	sb	a4,1(a5)
/jenkins/node-gerritverify/workspace/gerrit_review_verification/.workspace/modules/logging/uart_printf.c:21
2000509a:	000a2783          	lw	a5,0(s4)
print():
/jenkins/node-gerritverify/workspace/gerrit_review_verification/.workspace/modules/logging/uart_printf.c:284
2000509e:	50b6                	lw	ra,108(sp)
200050a0:	5426                	lw	s0,104(sp)
printchar():
/jenkins/node-gerritverify/workspace/gerrit_review_verification/.workspace/modules/logging/uart_printf.c:21
200050a2:	0785                	addi	a5,a5,1
200050a4:	00fa2023          	sw	a5,0(s4)
print():
/jenkins/node-gerritverify/workspace/gerrit_review_verification/.workspace/modules/logging/uart_printf.c:284
200050a8:	5496                	lw	s1,100(sp)
200050aa:	5906                	lw	s2,96(sp)
200050ac:	49f6                	lw	s3,92(sp)
200050ae:	4a66                	lw	s4,88(sp)
200050b0:	4ad6                	lw	s5,84(sp)
200050b2:	4b46                	lw	s6,80(sp)
200050b4:	4bb6                	lw	s7,76(sp)
200050b6:	4c26                	lw	s8,72(sp)
200050b8:	4c96                	lw	s9,68(sp)
200050ba:	4d06                	lw	s10,64(sp)
200050bc:	5df2                	lw	s11,60(sp)
200050be:	6165                	addi	sp,sp,112
200050c0:	8082                	ret
/jenkins/node-gerritverify/workspace/gerrit_review_verification/.workspace/modules/logging/uart_printf.c:223
200050c2:	00144703          	lbu	a4,1(s0)
/jenkins/node-gerritverify/workspace/gerrit_review_verification/.workspace/modules/logging/uart_printf.c:190
200050c6:	00240693          	addi	a3,s0,2
/jenkins/node-gerritverify/workspace/gerrit_review_verification/.workspace/modules/logging/uart_printf.c:223
200050ca:	06f71863          	bne	a4,a5,2000513a <print.constprop.0+0x21a>
/jenkins/node-gerritverify/workspace/gerrit_review_verification/.workspace/modules/logging/uart_printf.c:221
200050ce:	844a                	mv	s0,s2
/jenkins/node-gerritverify/workspace/gerrit_review_verification/.workspace/modules/logging/uart_printf.c:223
200050d0:	8936                	mv	s2,a3
/jenkins/node-gerritverify/workspace/gerrit_review_verification/.workspace/modules/logging/uart_printf.c:225
200050d2:	007b0e13          	addi	t3,s6,7
/jenkins/node-gerritverify/workspace/gerrit_review_verification/.workspace/modules/logging/uart_printf.c:228
200050d6:	00144703          	lbu	a4,1(s0)
/jenkins/node-gerritverify/workspace/gerrit_review_verification/.workspace/modules/logging/uart_printf.c:225
200050da:	ff8e7e13          	andi	t3,t3,-8
/jenkins/node-gerritverify/workspace/gerrit_review_verification/.workspace/modules/logging/uart_printf.c:228
200050de:	06400793          	li	a5,100
/jenkins/node-gerritverify/workspace/gerrit_review_verification/.workspace/modules/logging/uart_printf.c:225
200050e2:	000e2b83          	lw	s7,0(t3)
200050e6:	004e2c03          	lw	s8,4(t3)
200050ea:	008e0b13          	addi	s6,t3,8
/jenkins/node-gerritverify/workspace/gerrit_review_verification/.workspace/modules/logging/uart_printf.c:190
200050ee:	00190f13          	addi	t5,s2,1
/jenkins/node-gerritverify/workspace/gerrit_review_verification/.workspace/modules/logging/uart_printf.c:228
200050f2:	10f70b63          	beq	a4,a5,20005208 <print.constprop.0+0x2e8>
/jenkins/node-gerritverify/workspace/gerrit_review_verification/.workspace/modules/logging/uart_printf.c:235
200050f6:	07800793          	li	a5,120
200050fa:	08f70863          	beq	a4,a5,2000518a <print.constprop.0+0x26a>
/jenkins/node-gerritverify/workspace/gerrit_review_verification/.workspace/modules/logging/uart_printf.c:242
200050fe:	07000793          	li	a5,112
20005102:	16f70563          	beq	a4,a5,2000526c <print.constprop.0+0x34c>
/jenkins/node-gerritverify/workspace/gerrit_review_verification/.workspace/modules/logging/uart_printf.c:246
20005106:	05800793          	li	a5,88
2000510a:	14f70463          	beq	a4,a5,20005252 <print.constprop.0+0x332>
/jenkins/node-gerritverify/workspace/gerrit_review_verification/.workspace/modules/logging/uart_printf.c:253
2000510e:	07500793          	li	a5,117
20005112:	844a                	mv	s0,s2
/jenkins/node-gerritverify/workspace/gerrit_review_verification/.workspace/modules/logging/uart_printf.c:224
20005114:	4889                	li	a7,2
/jenkins/node-gerritverify/workspace/gerrit_review_verification/.workspace/modules/logging/uart_printf.c:253
20005116:	897a                	mv	s2,t5
20005118:	f0f71ee3          	bne	a4,a5,20005034 <print.constprop.0+0x114>
/jenkins/node-gerritverify/workspace/gerrit_review_verification/.workspace/modules/logging/uart_printf.c:256
2000511c:	86c6                	mv	a3,a7
2000511e:	c002                	sw	zero,0(sp)
20005120:	06100893          	li	a7,97
20005124:	87de                	mv	a5,s7
20005126:	8862                	mv	a6,s8
20005128:	4729                	li	a4,10
2000512a:	864e                	mv	a2,s3
2000512c:	85a6                	mv	a1,s1
2000512e:	8552                	mv	a0,s4
20005130:	d65fb0ef          	jal	ra,20000e94 <print_inner>
20005134:	9d2a                	add	s10,s10,a0
/jenkins/node-gerritverify/workspace/gerrit_review_verification/.workspace/modules/logging/uart_printf.c:257
20005136:	4881                	li	a7,0
/jenkins/node-gerritverify/workspace/gerrit_review_verification/.workspace/modules/logging/uart_printf.c:258
20005138:	bda1                	j	20004f90 <print.constprop.0+0x70>
/jenkins/node-gerritverify/workspace/gerrit_review_verification/.workspace/modules/logging/uart_printf.c:228
2000513a:	06400793          	li	a5,100
2000513e:	0ef70763          	beq	a4,a5,2000522c <print.constprop.0+0x30c>
/jenkins/node-gerritverify/workspace/gerrit_review_verification/.workspace/modules/logging/uart_printf.c:235
20005142:	07800793          	li	a5,120
20005146:	10f70d63          	beq	a4,a5,20005260 <print.constprop.0+0x340>
/jenkins/node-gerritverify/workspace/gerrit_review_verification/.workspace/modules/logging/uart_printf.c:242
2000514a:	07000793          	li	a5,112
2000514e:	06f70463          	beq	a4,a5,200051b6 <print.constprop.0+0x296>
/jenkins/node-gerritverify/workspace/gerrit_review_verification/.workspace/modules/logging/uart_printf.c:246
20005152:	05800793          	li	a5,88
20005156:	10f70863          	beq	a4,a5,20005266 <print.constprop.0+0x346>
/jenkins/node-gerritverify/workspace/gerrit_review_verification/.workspace/modules/logging/uart_printf.c:253
2000515a:	07500793          	li	a5,117
2000515e:	10f70c63          	beq	a4,a5,20005276 <print.constprop.0+0x356>
/jenkins/node-gerritverify/workspace/gerrit_review_verification/.workspace/modules/logging/uart_printf.c:221
20005162:	844a                	mv	s0,s2
/jenkins/node-gerritverify/workspace/gerrit_review_verification/.workspace/modules/logging/uart_printf.c:220
20005164:	4885                	li	a7,1
/jenkins/node-gerritverify/workspace/gerrit_review_verification/.workspace/modules/logging/uart_printf.c:253
20005166:	8936                	mv	s2,a3
20005168:	b5f1                	j	20005034 <print.constprop.0+0x114>
/jenkins/node-gerritverify/workspace/gerrit_review_verification/.workspace/modules/logging/uart_printf.c:215
2000516a:	000b2783          	lw	a5,0(s6)
/jenkins/node-gerritverify/workspace/gerrit_review_verification/.workspace/modules/logging/uart_printf.c:216
2000516e:	45d2                	lw	a1,20(sp)
/jenkins/node-gerritverify/workspace/gerrit_review_verification/.workspace/modules/logging/uart_printf.c:215
20005170:	0b11                	addi	s6,s6,4
/jenkins/node-gerritverify/workspace/gerrit_review_verification/.workspace/modules/logging/uart_printf.c:216
20005172:	c391                	beqz	a5,20005176 <print.constprop.0+0x256>
/jenkins/node-gerritverify/workspace/gerrit_review_verification/.workspace/modules/logging/uart_printf.c:215
20005174:	85be                	mv	a1,a5
/jenkins/node-gerritverify/workspace/gerrit_review_verification/.workspace/modules/logging/uart_printf.c:216
20005176:	86ce                	mv	a3,s3
20005178:	8626                	mv	a2,s1
2000517a:	8552                	mv	a0,s4
2000517c:	cc46                	sw	a7,24(sp)
2000517e:	364d                	jal	20004d20 <prints>
/jenkins/node-gerritverify/workspace/gerrit_review_verification/.workspace/modules/logging/uart_printf.c:217
20005180:	48e2                	lw	a7,24(sp)
/jenkins/node-gerritverify/workspace/gerrit_review_verification/.workspace/modules/logging/uart_printf.c:216
20005182:	9d2a                	add	s10,s10,a0
/jenkins/node-gerritverify/workspace/gerrit_review_verification/.workspace/modules/logging/uart_printf.c:217
20005184:	b531                	j	20004f90 <print.constprop.0+0x70>
20005186:	8f4a                	mv	t5,s2
20005188:	8922                	mv	s2,s0
print_inner():
/jenkins/node-gerritverify/workspace/gerrit_review_verification/.workspace/modules/logging/uart_printf.c:166
2000518a:	8fe2                	mv	t6,s8
/jenkins/node-gerritverify/workspace/gerrit_review_verification/.workspace/modules/logging/uart_printf.c:170
2000518c:	88de                	mv	a7,s7
/jenkins/node-gerritverify/workspace/gerrit_review_verification/.workspace/modules/logging/uart_printf.c:172
2000518e:	0e0c1663          	bnez	s8,2000527a <print.constprop.0+0x35a>
20005192:	844a                	mv	s0,s2
20005194:	897a                	mv	s2,t5
/jenkins/node-gerritverify/workspace/gerrit_review_verification/.workspace/modules/logging/uart_printf.c:175
20005196:	cc7e                	sw	t6,24(sp)
20005198:	06100813          	li	a6,97
2000519c:	87ce                	mv	a5,s3
2000519e:	85c6                	mv	a1,a7
200051a0:	8726                	mv	a4,s1
200051a2:	4681                	li	a3,0
200051a4:	4641                	li	a2,16
200051a6:	8552                	mv	a0,s4
200051a8:	3145                	jal	20004e48 <printi>
200051aa:	4fe2                	lw	t6,24(sp)
print():
/jenkins/node-gerritverify/workspace/gerrit_review_verification/.workspace/modules/logging/uart_printf.c:250
200051ac:	4881                	li	a7,0
print_inner():
/jenkins/node-gerritverify/workspace/gerrit_review_verification/.workspace/modules/logging/uart_printf.c:175
200051ae:	01f507b3          	add	a5,a0,t6
print():
/jenkins/node-gerritverify/workspace/gerrit_review_verification/.workspace/modules/logging/uart_printf.c:249
200051b2:	9d3e                	add	s10,s10,a5
/jenkins/node-gerritverify/workspace/gerrit_review_verification/.workspace/modules/logging/uart_printf.c:251
200051b4:	bbf1                	j	20004f90 <print.constprop.0+0x70>
/jenkins/node-gerritverify/workspace/gerrit_review_verification/.workspace/modules/logging/uart_printf.c:221
200051b6:	844a                	mv	s0,s2
/jenkins/node-gerritverify/workspace/gerrit_review_verification/.workspace/modules/logging/uart_printf.c:220
200051b8:	4885                	li	a7,1
/jenkins/node-gerritverify/workspace/gerrit_review_verification/.workspace/modules/logging/uart_printf.c:242
200051ba:	8936                	mv	s2,a3
/jenkins/node-gerritverify/workspace/gerrit_review_verification/.workspace/modules/logging/uart_printf.c:243
200051bc:	87da                	mv	a5,s6
200051be:	438c                	lw	a1,0(a5)
200051c0:	06100813          	li	a6,97
200051c4:	87ce                	mv	a5,s3
200051c6:	8726                	mv	a4,s1
200051c8:	4681                	li	a3,0
200051ca:	4641                	li	a2,16
200051cc:	8552                	mv	a0,s4
200051ce:	cc46                	sw	a7,24(sp)
200051d0:	39a5                	jal	20004e48 <printi>
/jenkins/node-gerritverify/workspace/gerrit_review_verification/.workspace/modules/logging/uart_printf.c:244
200051d2:	48e2                	lw	a7,24(sp)
/jenkins/node-gerritverify/workspace/gerrit_review_verification/.workspace/modules/logging/uart_printf.c:243
200051d4:	0b11                	addi	s6,s6,4
200051d6:	9d2a                	add	s10,s10,a0
/jenkins/node-gerritverify/workspace/gerrit_review_verification/.workspace/modules/logging/uart_printf.c:244
200051d8:	bb65                	j	20004f90 <print.constprop.0+0x70>
/jenkins/node-gerritverify/workspace/gerrit_review_verification/.workspace/modules/logging/uart_printf.c:229
200051da:	4789                	li	a5,2
200051dc:	00f88763          	beq	a7,a5,200051ea <print.constprop.0+0x2ca>
/jenkins/node-gerritverify/workspace/gerrit_review_verification/.workspace/modules/logging/uart_printf.c:230
200051e0:	000b2b83          	lw	s7,0(s6)
200051e4:	0b11                	addi	s6,s6,4
200051e6:	41fbdc13          	srai	s8,s7,0x1f
/jenkins/node-gerritverify/workspace/gerrit_review_verification/.workspace/modules/logging/uart_printf.c:231
200051ea:	4785                	li	a5,1
200051ec:	86c6                	mv	a3,a7
200051ee:	c03e                	sw	a5,0(sp)
200051f0:	bf05                	j	20005120 <print.constprop.0+0x200>
/jenkins/node-gerritverify/workspace/gerrit_review_verification/.workspace/modules/logging/uart_printf.c:236
200051f2:	4789                	li	a5,2
200051f4:	f8f889e3          	beq	a7,a5,20005186 <print.constprop.0+0x266>
/jenkins/node-gerritverify/workspace/gerrit_review_verification/.workspace/modules/logging/uart_printf.c:237
200051f8:	000b2883          	lw	a7,0(s6)
print_inner():
/jenkins/node-gerritverify/workspace/gerrit_review_verification/.workspace/modules/logging/uart_printf.c:159
200051fc:	4f81                	li	t6,0
print():
/jenkins/node-gerritverify/workspace/gerrit_review_verification/.workspace/modules/logging/uart_printf.c:237
200051fe:	0b11                	addi	s6,s6,4
20005200:	8bc6                	mv	s7,a7
20005202:	41f8dc13          	srai	s8,a7,0x1f
print_inner():
/jenkins/node-gerritverify/workspace/gerrit_review_verification/.workspace/modules/logging/uart_printf.c:172
20005206:	bf41                	j	20005196 <print.constprop.0+0x276>
print():
/jenkins/node-gerritverify/workspace/gerrit_review_verification/.workspace/modules/logging/uart_printf.c:228
20005208:	844a                	mv	s0,s2
/jenkins/node-gerritverify/workspace/gerrit_review_verification/.workspace/modules/logging/uart_printf.c:224
2000520a:	4889                	li	a7,2
/jenkins/node-gerritverify/workspace/gerrit_review_verification/.workspace/modules/logging/uart_printf.c:228
2000520c:	897a                	mv	s2,t5
2000520e:	bff1                	j	200051ea <print.constprop.0+0x2ca>
/jenkins/node-gerritverify/workspace/gerrit_review_verification/.workspace/modules/logging/uart_printf.c:247
20005210:	4789                	li	a5,2
20005212:	02f88e63          	beq	a7,a5,2000524e <print.constprop.0+0x32e>
/jenkins/node-gerritverify/workspace/gerrit_review_verification/.workspace/modules/logging/uart_printf.c:248
20005216:	000b2883          	lw	a7,0(s6)
print_inner():
/jenkins/node-gerritverify/workspace/gerrit_review_verification/.workspace/modules/logging/uart_printf.c:159
2000521a:	4f81                	li	t6,0
print():
/jenkins/node-gerritverify/workspace/gerrit_review_verification/.workspace/modules/logging/uart_printf.c:248
2000521c:	0b11                	addi	s6,s6,4
2000521e:	8bc6                	mv	s7,a7
20005220:	41f8dc13          	srai	s8,a7,0x1f
print_inner():
/jenkins/node-gerritverify/workspace/gerrit_review_verification/.workspace/modules/logging/uart_printf.c:175
20005224:	cc7e                	sw	t6,24(sp)
20005226:	04100813          	li	a6,65
2000522a:	bf8d                	j	2000519c <print.constprop.0+0x27c>
print():
/jenkins/node-gerritverify/workspace/gerrit_review_verification/.workspace/modules/logging/uart_printf.c:221
2000522c:	844a                	mv	s0,s2
/jenkins/node-gerritverify/workspace/gerrit_review_verification/.workspace/modules/logging/uart_printf.c:220
2000522e:	4885                	li	a7,1
/jenkins/node-gerritverify/workspace/gerrit_review_verification/.workspace/modules/logging/uart_printf.c:228
20005230:	8936                	mv	s2,a3
20005232:	b77d                	j	200051e0 <print.constprop.0+0x2c0>
/jenkins/node-gerritverify/workspace/gerrit_review_verification/.workspace/modules/logging/uart_printf.c:254
20005234:	4789                	li	a5,2
20005236:	eef883e3          	beq	a7,a5,2000511c <print.constprop.0+0x1fc>
2000523a:	86ca                	mv	a3,s2
2000523c:	8922                	mv	s2,s0
/jenkins/node-gerritverify/workspace/gerrit_review_verification/.workspace/modules/logging/uart_printf.c:255
2000523e:	000b2b83          	lw	s7,0(s6)
20005242:	844a                	mv	s0,s2
20005244:	0b11                	addi	s6,s6,4
20005246:	41fbdc13          	srai	s8,s7,0x1f
2000524a:	8936                	mv	s2,a3
2000524c:	bdc1                	j	2000511c <print.constprop.0+0x1fc>
2000524e:	8f4a                	mv	t5,s2
20005250:	8922                	mv	s2,s0
print_inner():
/jenkins/node-gerritverify/workspace/gerrit_review_verification/.workspace/modules/logging/uart_printf.c:166
20005252:	8fe2                	mv	t6,s8
/jenkins/node-gerritverify/workspace/gerrit_review_verification/.workspace/modules/logging/uart_printf.c:170
20005254:	88de                	mv	a7,s7
/jenkins/node-gerritverify/workspace/gerrit_review_verification/.workspace/modules/logging/uart_printf.c:172
20005256:	040c1363          	bnez	s8,2000529c <print.constprop.0+0x37c>
2000525a:	844a                	mv	s0,s2
2000525c:	897a                	mv	s2,t5
2000525e:	b7d9                	j	20005224 <print.constprop.0+0x304>
print():
/jenkins/node-gerritverify/workspace/gerrit_review_verification/.workspace/modules/logging/uart_printf.c:221
20005260:	844a                	mv	s0,s2
/jenkins/node-gerritverify/workspace/gerrit_review_verification/.workspace/modules/logging/uart_printf.c:235
20005262:	8936                	mv	s2,a3
20005264:	bf51                	j	200051f8 <print.constprop.0+0x2d8>
/jenkins/node-gerritverify/workspace/gerrit_review_verification/.workspace/modules/logging/uart_printf.c:221
20005266:	844a                	mv	s0,s2
/jenkins/node-gerritverify/workspace/gerrit_review_verification/.workspace/modules/logging/uart_printf.c:246
20005268:	8936                	mv	s2,a3
2000526a:	b775                	j	20005216 <print.constprop.0+0x2f6>
/jenkins/node-gerritverify/workspace/gerrit_review_verification/.workspace/modules/logging/uart_printf.c:242
2000526c:	844a                	mv	s0,s2
2000526e:	87da                	mv	a5,s6
20005270:	897a                	mv	s2,t5
/jenkins/node-gerritverify/workspace/gerrit_review_verification/.workspace/modules/logging/uart_printf.c:224
20005272:	4889                	li	a7,2
20005274:	b7a9                	j	200051be <print.constprop.0+0x29e>
/jenkins/node-gerritverify/workspace/gerrit_review_verification/.workspace/modules/logging/uart_printf.c:220
20005276:	4885                	li	a7,1
20005278:	b7d9                	j	2000523e <print.constprop.0+0x31e>
print_inner():
/jenkins/node-gerritverify/workspace/gerrit_review_verification/.workspace/modules/logging/uart_printf.c:173
2000527a:	06100813          	li	a6,97
2000527e:	87ce                	mv	a5,s3
20005280:	8726                	mv	a4,s1
20005282:	4681                	li	a3,0
20005284:	4641                	li	a2,16
20005286:	85e2                	mv	a1,s8
20005288:	8552                	mv	a0,s4
2000528a:	ce7a                	sw	t5,28(sp)
2000528c:	cc46                	sw	a7,24(sp)
2000528e:	3e6d                	jal	20004e48 <printi>
20005290:	4f72                	lw	t5,28(sp)
20005292:	844a                	mv	s0,s2
20005294:	48e2                	lw	a7,24(sp)
20005296:	8faa                	mv	t6,a0
20005298:	897a                	mv	s2,t5
2000529a:	bdf5                	j	20005196 <print.constprop.0+0x276>
2000529c:	04100813          	li	a6,65
200052a0:	87ce                	mv	a5,s3
200052a2:	8726                	mv	a4,s1
200052a4:	4681                	li	a3,0
200052a6:	4641                	li	a2,16
200052a8:	85e2                	mv	a1,s8
200052aa:	8552                	mv	a0,s4
200052ac:	ce7a                	sw	t5,28(sp)
200052ae:	cc46                	sw	a7,24(sp)
200052b0:	3e61                	jal	20004e48 <printi>
200052b2:	4f72                	lw	t5,28(sp)
200052b4:	844a                	mv	s0,s2
200052b6:	48e2                	lw	a7,24(sp)
200052b8:	8faa                	mv	t6,a0
200052ba:	897a                	mv	s2,t5
200052bc:	b7a5                	j	20005224 <print.constprop.0+0x304>

200052be <uart_printf>:
uart_printf():
/jenkins/node-gerritverify/workspace/gerrit_review_verification/.workspace/modules/logging/uart_printf.c:287
200052be:	7179                	addi	sp,sp,-48
200052c0:	c606                	sw	ra,12(sp)
200052c2:	ca2e                	sw	a1,20(sp)
200052c4:	cc32                	sw	a2,24(sp)
200052c6:	ce36                	sw	a3,28(sp)
200052c8:	d03a                	sw	a4,32(sp)
200052ca:	d23e                	sw	a5,36(sp)
200052cc:	d442                	sw	a6,40(sp)
200052ce:	d646                	sw	a7,44(sp)
/jenkins/node-gerritverify/workspace/gerrit_review_verification/.workspace/modules/logging/uart_printf.c:289
200052d0:	df4fe0ef          	jal	ra,200038c4 <iprintf>
/jenkins/node-gerritverify/workspace/gerrit_review_verification/.workspace/modules/logging/uart_printf.c:296
200052d4:	40b2                	lw	ra,12(sp)
200052d6:	6145                	addi	sp,sp,48
200052d8:	8082                	ret

200052da <uart_sprintf>:
uart_sprintf():
/jenkins/node-gerritverify/workspace/gerrit_review_verification/.workspace/modules/logging/uart_printf.c:299
200052da:	715d                	addi	sp,sp,-80
/jenkins/node-gerritverify/workspace/gerrit_review_verification/.workspace/modules/logging/uart_printf.c:302
200052dc:	03810313          	addi	t1,sp,56
/jenkins/node-gerritverify/workspace/gerrit_review_verification/.workspace/modules/logging/uart_printf.c:299
200052e0:	c62a                	sw	a0,12(sp)
200052e2:	dc32                	sw	a2,56(sp)
/jenkins/node-gerritverify/workspace/gerrit_review_verification/.workspace/modules/logging/uart_printf.c:303
200052e4:	0068                	addi	a0,sp,12
200052e6:	861a                	mv	a2,t1
/jenkins/node-gerritverify/workspace/gerrit_review_verification/.workspace/modules/logging/uart_printf.c:299
200052e8:	d606                	sw	ra,44(sp)
200052ea:	de36                	sw	a3,60(sp)
200052ec:	c0ba                	sw	a4,64(sp)
200052ee:	c2be                	sw	a5,68(sp)
200052f0:	c4c2                	sw	a6,72(sp)
200052f2:	c6c6                	sw	a7,76(sp)
/jenkins/node-gerritverify/workspace/gerrit_review_verification/.workspace/modules/logging/uart_printf.c:302
200052f4:	ce1a                	sw	t1,28(sp)
/jenkins/node-gerritverify/workspace/gerrit_review_verification/.workspace/modules/logging/uart_printf.c:303
200052f6:	312d                	jal	20004f20 <print.constprop.0>
/jenkins/node-gerritverify/workspace/gerrit_review_verification/.workspace/modules/logging/uart_printf.c:304
200052f8:	50b2                	lw	ra,44(sp)
200052fa:	6161                	addi	sp,sp,80
200052fc:	8082                	ret

200052fe <uart_debug_init>:
uart_debug_init():
/jenkins/node-gerritverify/workspace/gerrit_review_verification/.workspace/modules/logging/uart_printf.c:309
200052fe:	65f1                	lui	a1,0x1c
/jenkins/node-gerritverify/workspace/gerrit_review_verification/.workspace/modules/logging/uart_printf.c:307
20005300:	1141                	addi	sp,sp,-16
/jenkins/node-gerritverify/workspace/gerrit_review_verification/.workspace/modules/logging/uart_printf.c:309
20005302:	20058593          	addi	a1,a1,512 # 1c200 <__HEAP_SIZE+0x17200>
20005306:	10013537          	lui	a0,0x10013
/jenkins/node-gerritverify/workspace/gerrit_review_verification/.workspace/modules/logging/uart_printf.c:307
2000530a:	c606                	sw	ra,12(sp)
/jenkins/node-gerritverify/workspace/gerrit_review_verification/.workspace/modules/logging/uart_printf.c:309
2000530c:	b51fb0ef          	jal	ra,20000e5c <e203_uart_init>
/jenkins/node-gerritverify/workspace/gerrit_review_verification/.workspace/modules/logging/uart_printf.c:314
20005310:	40b2                	lw	ra,12(sp)
20005312:	4501                	li	a0,0
20005314:	0141                	addi	sp,sp,16
20005316:	8082                	ret

20005318 <vsd_to_vpi>:
vsd_to_vpi():
/jenkins/node-gerritverify/workspace/gerrit_review_verification/.workspace/modules/lib/error/vpi_error.c:20
20005318:	47c5                	li	a5,17
2000531a:	00a7ea63          	bltu	a5,a0,2000532e <vsd_to_vpi+0x16>
2000531e:	200057b7          	lui	a5,0x20005
20005322:	a8078793          	addi	a5,a5,-1408 # 20004a80 <CSWTCH.14>
20005326:	050a                	slli	a0,a0,0x2
20005328:	953e                	add	a0,a0,a5
2000532a:	4108                	lw	a0,0(a0)
2000532c:	8082                	ret
/jenkins/node-gerritverify/workspace/gerrit_review_verification/.workspace/modules/lib/error/vpi_error.c:19
2000532e:	557d                	li	a0,-1
/jenkins/node-gerritverify/workspace/gerrit_review_verification/.workspace/modules/lib/error/vpi_error.c:49
20005330:	8082                	ret

20005332 <vpi_error_print>:
vpi_error_print():
/jenkins/node-gerritverify/workspace/gerrit_review_verification/.workspace/modules/lib/error/vpi_error.c:53
20005332:	1141                	addi	sp,sp,-16
/jenkins/node-gerritverify/workspace/gerrit_review_verification/.workspace/modules/lib/error/vpi_error.c:56
20005334:	90000737          	lui	a4,0x90000
/jenkins/node-gerritverify/workspace/gerrit_review_verification/.workspace/modules/lib/error/vpi_error.c:53
20005338:	c606                	sw	ra,12(sp)
2000533a:	0505                	addi	a0,a0,1
2000533c:	47b1                	li	a5,12
/jenkins/node-gerritverify/workspace/gerrit_review_verification/.workspace/modules/lib/error/vpi_error.c:56
2000533e:	06872703          	lw	a4,104(a4) # 90000068 <_sp+0xffff0068>
20005342:	0ca7e863          	bltu	a5,a0,20005412 <vpi_error_print+0xe0>
20005346:	200057b7          	lui	a5,0x20005
2000534a:	a4c78793          	addi	a5,a5,-1460 # 20004a4c <_global_impure_ptr+0x15c>
2000534e:	050a                	slli	a0,a0,0x2
20005350:	953e                	add	a0,a0,a5
20005352:	411c                	lw	a5,0(a0)
20005354:	8782                	jr	a5
/jenkins/node-gerritverify/workspace/gerrit_review_verification/.workspace/modules/lib/error/vpi_error.c:89
20005356:	0ce04663          	bgtz	a4,20005422 <vpi_error_print+0xf0>
/jenkins/node-gerritverify/workspace/gerrit_review_verification/.workspace/modules/lib/error/vpi_error.c:97
2000535a:	40b2                	lw	ra,12(sp)
2000535c:	4501                	li	a0,0
2000535e:	0141                	addi	sp,sp,16
20005360:	8082                	ret
/jenkins/node-gerritverify/workspace/gerrit_review_verification/.workspace/modules/lib/error/vpi_error.c:56
20005362:	fee05ce3          	blez	a4,2000535a <vpi_error_print+0x28>
/jenkins/node-gerritverify/workspace/gerrit_review_verification/.workspace/modules/lib/error/vpi_error.c:56 (discriminator 1)
20005366:	20005537          	lui	a0,0x20005
2000536a:	98450513          	addi	a0,a0,-1660 # 20004984 <_global_impure_ptr+0x94>
2000536e:	3f81                	jal	200052be <uart_printf>
20005370:	b7ed                	j	2000535a <vpi_error_print+0x28>
/jenkins/node-gerritverify/workspace/gerrit_review_verification/.workspace/modules/lib/error/vpi_error.c:59
20005372:	fee054e3          	blez	a4,2000535a <vpi_error_print+0x28>
/jenkins/node-gerritverify/workspace/gerrit_review_verification/.workspace/modules/lib/error/vpi_error.c:59 (discriminator 1)
20005376:	20005537          	lui	a0,0x20005
2000537a:	99450513          	addi	a0,a0,-1644 # 20004994 <_global_impure_ptr+0xa4>
2000537e:	3781                	jal	200052be <uart_printf>
20005380:	bfe9                	j	2000535a <vpi_error_print+0x28>
/jenkins/node-gerritverify/workspace/gerrit_review_verification/.workspace/modules/lib/error/vpi_error.c:62
20005382:	fce05ce3          	blez	a4,2000535a <vpi_error_print+0x28>
/jenkins/node-gerritverify/workspace/gerrit_review_verification/.workspace/modules/lib/error/vpi_error.c:62 (discriminator 1)
20005386:	20005537          	lui	a0,0x20005
2000538a:	9a450513          	addi	a0,a0,-1628 # 200049a4 <_global_impure_ptr+0xb4>
2000538e:	3f05                	jal	200052be <uart_printf>
20005390:	b7e9                	j	2000535a <vpi_error_print+0x28>
/jenkins/node-gerritverify/workspace/gerrit_review_verification/.workspace/modules/lib/error/vpi_error.c:65
20005392:	fce054e3          	blez	a4,2000535a <vpi_error_print+0x28>
/jenkins/node-gerritverify/workspace/gerrit_review_verification/.workspace/modules/lib/error/vpi_error.c:65 (discriminator 1)
20005396:	20005537          	lui	a0,0x20005
2000539a:	9b450513          	addi	a0,a0,-1612 # 200049b4 <_global_impure_ptr+0xc4>
2000539e:	3705                	jal	200052be <uart_printf>
200053a0:	bf6d                	j	2000535a <vpi_error_print+0x28>
/jenkins/node-gerritverify/workspace/gerrit_review_verification/.workspace/modules/lib/error/vpi_error.c:68
200053a2:	fae05ce3          	blez	a4,2000535a <vpi_error_print+0x28>
/jenkins/node-gerritverify/workspace/gerrit_review_verification/.workspace/modules/lib/error/vpi_error.c:68 (discriminator 1)
200053a6:	20005537          	lui	a0,0x20005
200053aa:	9c050513          	addi	a0,a0,-1600 # 200049c0 <_global_impure_ptr+0xd0>
200053ae:	3f01                	jal	200052be <uart_printf>
200053b0:	b76d                	j	2000535a <vpi_error_print+0x28>
/jenkins/node-gerritverify/workspace/gerrit_review_verification/.workspace/modules/lib/error/vpi_error.c:71
200053b2:	fae054e3          	blez	a4,2000535a <vpi_error_print+0x28>
/jenkins/node-gerritverify/workspace/gerrit_review_verification/.workspace/modules/lib/error/vpi_error.c:71 (discriminator 1)
200053b6:	20005537          	lui	a0,0x20005
200053ba:	9d050513          	addi	a0,a0,-1584 # 200049d0 <_global_impure_ptr+0xe0>
200053be:	3701                	jal	200052be <uart_printf>
200053c0:	bf69                	j	2000535a <vpi_error_print+0x28>
/jenkins/node-gerritverify/workspace/gerrit_review_verification/.workspace/modules/lib/error/vpi_error.c:74
200053c2:	f8e05ce3          	blez	a4,2000535a <vpi_error_print+0x28>
/jenkins/node-gerritverify/workspace/gerrit_review_verification/.workspace/modules/lib/error/vpi_error.c:74 (discriminator 1)
200053c6:	20005537          	lui	a0,0x20005
200053ca:	9dc50513          	addi	a0,a0,-1572 # 200049dc <_global_impure_ptr+0xec>
200053ce:	3dc5                	jal	200052be <uart_printf>
200053d0:	b769                	j	2000535a <vpi_error_print+0x28>
/jenkins/node-gerritverify/workspace/gerrit_review_verification/.workspace/modules/lib/error/vpi_error.c:77
200053d2:	f8e054e3          	blez	a4,2000535a <vpi_error_print+0x28>
/jenkins/node-gerritverify/workspace/gerrit_review_verification/.workspace/modules/lib/error/vpi_error.c:77 (discriminator 1)
200053d6:	20005537          	lui	a0,0x20005
200053da:	9e850513          	addi	a0,a0,-1560 # 200049e8 <_global_impure_ptr+0xf8>
200053de:	35c5                	jal	200052be <uart_printf>
200053e0:	bfad                	j	2000535a <vpi_error_print+0x28>
/jenkins/node-gerritverify/workspace/gerrit_review_verification/.workspace/modules/lib/error/vpi_error.c:80
200053e2:	f6e05ce3          	blez	a4,2000535a <vpi_error_print+0x28>
/jenkins/node-gerritverify/workspace/gerrit_review_verification/.workspace/modules/lib/error/vpi_error.c:80 (discriminator 1)
200053e6:	20005537          	lui	a0,0x20005
200053ea:	9f850513          	addi	a0,a0,-1544 # 200049f8 <_global_impure_ptr+0x108>
200053ee:	3dc1                	jal	200052be <uart_printf>
200053f0:	b7ad                	j	2000535a <vpi_error_print+0x28>
/jenkins/node-gerritverify/workspace/gerrit_review_verification/.workspace/modules/lib/error/vpi_error.c:83
200053f2:	f6e054e3          	blez	a4,2000535a <vpi_error_print+0x28>
/jenkins/node-gerritverify/workspace/gerrit_review_verification/.workspace/modules/lib/error/vpi_error.c:83 (discriminator 1)
200053f6:	20005537          	lui	a0,0x20005
200053fa:	a0850513          	addi	a0,a0,-1528 # 20004a08 <_global_impure_ptr+0x118>
200053fe:	35c1                	jal	200052be <uart_printf>
20005400:	bfa9                	j	2000535a <vpi_error_print+0x28>
/jenkins/node-gerritverify/workspace/gerrit_review_verification/.workspace/modules/lib/error/vpi_error.c:86
20005402:	f4e05ce3          	blez	a4,2000535a <vpi_error_print+0x28>
/jenkins/node-gerritverify/workspace/gerrit_review_verification/.workspace/modules/lib/error/vpi_error.c:86 (discriminator 1)
20005406:	20005537          	lui	a0,0x20005
2000540a:	a1850513          	addi	a0,a0,-1512 # 20004a18 <_global_impure_ptr+0x128>
2000540e:	3d45                	jal	200052be <uart_printf>
20005410:	b7a9                	j	2000535a <vpi_error_print+0x28>
/jenkins/node-gerritverify/workspace/gerrit_review_verification/.workspace/modules/lib/error/vpi_error.c:92
20005412:	f4e054e3          	blez	a4,2000535a <vpi_error_print+0x28>
/jenkins/node-gerritverify/workspace/gerrit_review_verification/.workspace/modules/lib/error/vpi_error.c:92 (discriminator 1)
20005416:	20005537          	lui	a0,0x20005
2000541a:	a3c50513          	addi	a0,a0,-1476 # 20004a3c <_global_impure_ptr+0x14c>
2000541e:	3545                	jal	200052be <uart_printf>
20005420:	bf2d                	j	2000535a <vpi_error_print+0x28>
/jenkins/node-gerritverify/workspace/gerrit_review_verification/.workspace/modules/lib/error/vpi_error.c:89 (discriminator 1)
20005422:	20005537          	lui	a0,0x20005
20005426:	a2850513          	addi	a0,a0,-1496 # 20004a28 <_global_impure_ptr+0x138>
2000542a:	3d51                	jal	200052be <uart_printf>
2000542c:	b73d                	j	2000535a <vpi_error_print+0x28>

2000542e <vsa_to_vpi>:
vsa_to_vpi():
/jenkins/node-gerritverify/workspace/gerrit_review_verification/.workspace/modules/lib/error/vpi_error.c:130
2000542e:	557d                	li	a0,-1
20005430:	8082                	ret
